(lp1
(lp2
L7000000000000000000000011130750000L
aL7000000000000000000000011130760000L
aS'f615bd78-8ab3-11e2-91a7-fa163e3a40ba'
p3
aI01
aI01
aS'cb695a44-8ab3-11e2-9c72-fa163e3a40ba'
p4
aa(lp5
L7000000000000000000000011130760000L
aL7000000000000000000000011130770000L
aS'f615c0d4-8ab3-11e2-91a7-fa163e3a40ba'
p6
aI01
aI01
aS'cacf302c-8ab3-11e2-87cc-fa163e3a40ba'
p7
aa(lp8
L7000000000000000000000011130770000L
aL7000000000000000000000011130780000L
aS'f615c264-8ab3-11e2-91a7-fa163e3a40ba'
p9
aI01
aI01
aS'ca9a7efe-8ab3-11e2-b41d-fa163e3a40ba'
p10
aa(lp11
L7000000000000000000000011130780000L
aL7000000000000000000000011130790000L
aS'f615c3cc-8ab3-11e2-91a7-fa163e3a40ba'
p12
aI01
aI01
aS'cb695a44-8ab3-11e2-9c72-fa163e3a40ba'
p13
aa(lp14
L7000000000000000000000011130790000L
aL7000000000000000000000011130800000L
aS'f615c53e-8ab3-11e2-91a7-fa163e3a40ba'
p15
aI01
aI01
aS'cacf302c-8ab3-11e2-87cc-fa163e3a40ba'
p16
aa(lp17
L7000000000000000000000011130800000L
aL7000000000000000000000011130810000L
aS'f615c69c-8ab3-11e2-91a7-fa163e3a40ba'
p18
aI01
aI01
aS'ca9a7efe-8ab3-11e2-b41d-fa163e3a40ba'
p19
aa(lp20
L7000000000000000000000011130810000L
aL7000000000000000000000011130820000L
aS'f615c7e6-8ab3-11e2-91a7-fa163e3a40ba'
p21
aI01
aI01
aS'cb695a44-8ab3-11e2-9c72-fa163e3a40ba'
p22
aa(lp23
L7000000000000000000000011130820000L
aL7000000000000000000000011130830000L
aS'f615c94e-8ab3-11e2-91a7-fa163e3a40ba'
p24
aI01
aI01
aS'cacf302c-8ab3-11e2-87cc-fa163e3a40ba'
p25
aa(lp26
L7000000000000000000000011130830000L
aL7000000000000000000000011130840000L
aS'f615ca98-8ab3-11e2-91a7-fa163e3a40ba'
p27
aI01
aI01
aS'ca9a7efe-8ab3-11e2-b41d-fa163e3a40ba'
p28
aa(lp29
L7000000000000000000000011130840000L
aL7000000000000000000000011130850000L
aS'f615cc00-8ab3-11e2-91a7-fa163e3a40ba'
p30
aI01
aI01
aS'cb695a44-8ab3-11e2-9c72-fa163e3a40ba'
p31
aa(lp32
L7000000000000000000000011130850000L
aL7000000000000000000000011130860000L
aS'f615cd54-8ab3-11e2-91a7-fa163e3a40ba'
p33
aI01
aI01
aS'cacf302c-8ab3-11e2-87cc-fa163e3a40ba'
p34
aa(lp35
L7000000000000000000000011130860000L
aL7000000000000000000000011130870000L
aS'f615cebc-8ab3-11e2-91a7-fa163e3a40ba'
p36
aI01
aI01
aS'ca9a7efe-8ab3-11e2-b41d-fa163e3a40ba'
p37
aa(lp38
L7000000000000000000000011130870000L
aL7000000000000000000000011130880000L
aS'f615d010-8ab3-11e2-91a7-fa163e3a40ba'
p39
aI01
aI01
aS'cb695a44-8ab3-11e2-9c72-fa163e3a40ba'
p40
aa(lp41
L7000000000000000000000011130880000L
aL7000000000000000000000011130890000L
aS'f615d164-8ab3-11e2-91a7-fa163e3a40ba'
p42
aI01
aI01
aS'cacf302c-8ab3-11e2-87cc-fa163e3a40ba'
p43
aa(lp44
L7000000000000000000000011130890000L
aL7000000000000000000000011130900000L
aS'f615d2e0-8ab3-11e2-91a7-fa163e3a40ba'
p45
aI01
aI01
aS'ca9a7efe-8ab3-11e2-b41d-fa163e3a40ba'
p46
aa(lp47
L7000000000000000000000011130900000L
aL7000000000000000000000011130910000L
aS'f615d43e-8ab3-11e2-91a7-fa163e3a40ba'
p48
aI01
aI00
aNaa(lp49
L7000000000000000000000011130910000L
aL7000000000000000000000011130920000L
aS'f615d588-8ab3-11e2-91a7-fa163e3a40ba'
p50
aI01
aI01
aS'cb695a44-8ab3-11e2-9c72-fa163e3a40ba'
p51
aa(lp52
L7000000000000000000000011130920000L
aL7000000000000000000000011130930000L
aS'f615d6f0-8ab3-11e2-91a7-fa163e3a40ba'
p53
aI01
aI01
aS'cacf302c-8ab3-11e2-87cc-fa163e3a40ba'
p54
aa(lp55
L7000000000000000000000011130930000L
aL7000000000000000000000011130940000L
aS'f615d83a-8ab3-11e2-91a7-fa163e3a40ba'
p56
aI01
aI01
aS'ca9a7efe-8ab3-11e2-b41d-fa163e3a40ba'
p57
aa(lp58
L7000000000000000000000011130940000L
aL7000000000000000000000011130950000L
aS'f615d98e-8ab3-11e2-91a7-fa163e3a40ba'
p59
aI01
aI01
aS'cb695a44-8ab3-11e2-9c72-fa163e3a40ba'
p60
aa(lp61
L7000000000000000000000011130950000L
aL7000000000000000000000011130960000L
aS'f615db3c-8ab3-11e2-91a7-fa163e3a40ba'
p62
aI01
aI01
aS'cacf302c-8ab3-11e2-87cc-fa163e3a40ba'
p63
aa(lp64
L7000000000000000000000011130960000L
aL7000000000000000000000011130970000L
aS'f615dd12-8ab3-11e2-91a7-fa163e3a40ba'
p65
aI01
aI01
aS'ca9a7efe-8ab3-11e2-b41d-fa163e3a40ba'
p66
aa(lp67
L7000000000000000000000011130970000L
aL7000000000000000000000011130980000L
aS'f615dfba-8ab3-11e2-91a7-fa163e3a40ba'
p68
aI01
aI01
aS'cb695a44-8ab3-11e2-9c72-fa163e3a40ba'
p69
aa(lp70
L7000000000000000000000011130980000L
aL7000000000000000000000011130990000L
aS'f615e10e-8ab3-11e2-91a7-fa163e3a40ba'
p71
aI01
aI01
aS'cacf302c-8ab3-11e2-87cc-fa163e3a40ba'
p72
aa(lp73
L7000000000000000000000011130990000L
aL7000000000000000000000011131000000L
aS'f615e276-8ab3-11e2-91a7-fa163e3a40ba'
p74
aI01
aI01
aS'ca9a7efe-8ab3-11e2-b41d-fa163e3a40ba'
p75
aa(lp76
L7000000000000000000000011131000000L
aL7000000000000000000000011131010000L
aS'f615e3ca-8ab3-11e2-91a7-fa163e3a40ba'
p77
aI01
aI01
aS'cb695a44-8ab3-11e2-9c72-fa163e3a40ba'
p78
aa(lp79
L7000000000000000000000011131010000L
aL7000000000000000000000011131020000L
aS'f615e500-8ab3-11e2-91a7-fa163e3a40ba'
p80
aI01
aI01
aS'cacf302c-8ab3-11e2-87cc-fa163e3a40ba'
p81
aa(lp82
L7000000000000000000000011131020000L
aL7000000000000000000000011131030000L
aS'f615e654-8ab3-11e2-91a7-fa163e3a40ba'
p83
aI01
aI01
aS'ca9a7efe-8ab3-11e2-b41d-fa163e3a40ba'
p84
aa(lp85
L7000000000000000000000011131030000L
aL7000000000000000000000011131040000L
aS'f615e79e-8ab3-11e2-91a7-fa163e3a40ba'
p86
aI01
aI01
aS'cb695a44-8ab3-11e2-9c72-fa163e3a40ba'
p87
aa(lp88
L7000000000000000000000011131040000L
aL7000000000000000000000011131050000L
aS'f615e8f2-8ab3-11e2-91a7-fa163e3a40ba'
p89
aI01
aI01
aS'cacf302c-8ab3-11e2-87cc-fa163e3a40ba'
p90
aa(lp91
L7000000000000000000000011131050000L
aL7000000000000000000000011131060000L
aS'f615ea46-8ab3-11e2-91a7-fa163e3a40ba'
p92
aI01
aI01
aS'ca9a7efe-8ab3-11e2-b41d-fa163e3a40ba'
p93
aa(lp94
L7000000000000000000000011131060000L
aL7000000000000000000000011131070000L
aS'f615eb90-8ab3-11e2-91a7-fa163e3a40ba'
p95
aI01
aI01
aS'cb695a44-8ab3-11e2-9c72-fa163e3a40ba'
p96
aa(lp97
L7000000000000000000000011131070000L
aL7000000000000000000000011131080000L
aS'f615ece4-8ab3-11e2-91a7-fa163e3a40ba'
p98
aI01
aI01
aS'cacf302c-8ab3-11e2-87cc-fa163e3a40ba'
p99
aa(lp100
L7000000000000000000000011131080000L
aL7000000000000000000000011131090000L
aS'f615ee2e-8ab3-11e2-91a7-fa163e3a40ba'
p101
aI01
aI01
aS'ca9a7efe-8ab3-11e2-b41d-fa163e3a40ba'
p102
aa(lp103
L7000000000000000000000011131090000L
aL7000000000000000000000011131100000L
aS'f615ef82-8ab3-11e2-91a7-fa163e3a40ba'
p104
aI01
aI01
aS'cacf302c-8ab3-11e2-87cc-fa163e3a40ba'
p105
aa(lp106
L7000000000000000000000011131100000L
aL7000000000000000000000011131110000L
aS'f615f0e0-8ab3-11e2-91a7-fa163e3a40ba'
p107
aI01
aI01
aS'cb695a44-8ab3-11e2-9c72-fa163e3a40ba'
p108
aa(lp109
L7000000000000000000000011131110000L
aL7000000000000000000000011131120000L
aS'f615f234-8ab3-11e2-91a7-fa163e3a40ba'
p110
aI01
aI00
aNaa(lp111
L7000000000000000000000011131120000L
aL7000000000000000000000011131130000L
aS'f615f388-8ab3-11e2-91a7-fa163e3a40ba'
p112
aI01
aI00
aNaa(lp113
L7000000000000000000000011131130000L
aL7000000000000000000000011131140000L
aS'f615f4d2-8ab3-11e2-91a7-fa163e3a40ba'
p114
aI01
aI00
aNaa(lp115
L7000000000000000000000011131140000L
aL7000000000000000000000011131150000L
aS'f615f61c-8ab3-11e2-91a7-fa163e3a40ba'
p116
aI00
aI00
aNaa(lp117
L7000000000000000000000011131150000L
aL7000000000000000000000011131160000L
aS'f615f752-8ab3-11e2-91a7-fa163e3a40ba'
p118
aI00
aI00
aNaa(lp119
L7000000000000000000000011131160000L
aL7000000000000000000000011131170000L
aS'f615f8a6-8ab3-11e2-91a7-fa163e3a40ba'
p120
aI00
aI00
aNaa(lp121
L7000000000000000000000011131170000L
aL7000000000000000000000011131180000L
aS'f615f9f0-8ab3-11e2-91a7-fa163e3a40ba'
p122
aI00
aI00
aNaa(lp123
L7000000000000000000000011131180000L
aL7000000000000000000000011131190000L
aS'f615fb44-8ab3-11e2-91a7-fa163e3a40ba'
p124
aI00
aI00
aNaa(lp125
L7000000000000000000000011131190000L
aL7000000000000000000000011131200000L
aS'f615fc8e-8ab3-11e2-91a7-fa163e3a40ba'
p126
aI00
aI00
aNaa(lp127
L7000000000000000000000011131200000L
aL7000000000000000000000011131210000L
aS'f615fdd8-8ab3-11e2-91a7-fa163e3a40ba'
p128
aI00
aI00
aNaa(lp129
L7000000000000000000000011131210000L
aL7000000000000000000000011131220000L
aS'f615ff2c-8ab3-11e2-91a7-fa163e3a40ba'
p130
aI00
aI00
aNaa(lp131
L7000000000000000000000011131220000L
aL7000000000000000000000011131230000L
aS'f6160080-8ab3-11e2-91a7-fa163e3a40ba'
p132
aI00
aI00
aNaa(lp133
L7000000000000000000000011131230000L
aL7000000000000000000000011131240000L
aS'f61601d4-8ab3-11e2-91a7-fa163e3a40ba'
p134
aI00
aI00
aNaa(lp135
L7000000000000000000000011131240000L
aL7000000000000000000000011131250000L
aS'f616031e-8ab3-11e2-91a7-fa163e3a40ba'
p136
aI00
aI00
aNaa(lp137
L7000000000000000000000011131250000L
aL7000000000000000000000011131260000L
aS'f6160454-8ab3-11e2-91a7-fa163e3a40ba'
p138
aI00
aI00
aNaa(lp139
L7000000000000000000000011131260000L
aL7000000000000000000000011131270000L
aS'f616059e-8ab3-11e2-91a7-fa163e3a40ba'
p140
aI00
aI00
aNaa(lp141
L7000000000000000000000011131270000L
aL7000000000000000000000011131280000L
aS'f61606f2-8ab3-11e2-91a7-fa163e3a40ba'
p142
aI00
aI00
aNaa(lp143
L7000000000000000000000011131280000L
aL7000000000000000000000011131290000L
aS'f616083c-8ab3-11e2-91a7-fa163e3a40ba'
p144
aI00
aI00
aNaa(lp145
L7000000000000000000000011131290000L
aL7000000000000000000000011131300000L
aS'f6160990-8ab3-11e2-91a7-fa163e3a40ba'
p146
aI00
aI00
aNaa(lp147
L7000000000000000000000011131300000L
aL7000000000000000000000011131310000L
aS'f6160ac6-8ab3-11e2-91a7-fa163e3a40ba'
p148
aI00
aI00
aNaa(lp149
L7000000000000000000000011131310000L
aL7000000000000000000000011131320000L
aS'f6160c06-8ab3-11e2-91a7-fa163e3a40ba'
p150
aI00
aI00
aNaa(lp151
L7000000000000000000000011131320000L
aL7000000000000000000000011131330000L
aS'f6160d64-8ab3-11e2-91a7-fa163e3a40ba'
p152
aI00
aI00
aNaa(lp153
L7000000000000000000000011131330000L
aL7000000000000000000000011131340000L
aS'f6160eae-8ab3-11e2-91a7-fa163e3a40ba'
p154
aI00
aI00
aNaa(lp155
L7000000000000000000000011131340000L
aL7000000000000000000000011131350000L
aS'f6161002-8ab3-11e2-91a7-fa163e3a40ba'
p156
aI00
aI00
aNaa(lp157
L7000000000000000000000011131350000L
aL7000000000000000000000011131360000L
aS'f6161156-8ab3-11e2-91a7-fa163e3a40ba'
p158
aI00
aI00
aNaa(lp159
L7000000000000000000000011131360000L
aL7000000000000000000000011131370000L
aS'f616128c-8ab3-11e2-91a7-fa163e3a40ba'
p160
aI00
aI00
aNaa(lp161
L7000000000000000000000011131370000L
aL7000000000000000000000011131380000L
aS'f61613c2-8ab3-11e2-91a7-fa163e3a40ba'
p162
aI00
aI00
aNaa(lp163
L7000000000000000000000011131380000L
aL7000000000000000000000011131390000L
aS'f616150c-8ab3-11e2-91a7-fa163e3a40ba'
p164
aI00
aI00
aNaa(lp165
L7000000000000000000000011131390000L
aL7000000000000000000000011131400000L
aS'f6161638-8ab3-11e2-91a7-fa163e3a40ba'
p166
aI00
aI00
aNaa(lp167
L7000000000000000000000011131400000L
aL7000000000000000000000011131410000L
aS'f616178c-8ab3-11e2-91a7-fa163e3a40ba'
p168
aI00
aI00
aNaa(lp169
L7000000000000000000000011131410000L
aL7000000000000000000000011131420000L
aS'f61618d6-8ab3-11e2-91a7-fa163e3a40ba'
p170
aI00
aI00
aNaa(lp171
L7000000000000000000000011131420000L
aL7000000000000000000000011131430000L
aS'f6161a2a-8ab3-11e2-91a7-fa163e3a40ba'
p172
aI00
aI00
aNaa(lp173
L7000000000000000000000011131430000L
aL7000000000000000000000011131440000L
aS'f6161b74-8ab3-11e2-91a7-fa163e3a40ba'
p174
aI00
aI00
aNaa(lp175
L7000000000000000000000011131440000L
aL7000000000000000000000011131450000L
aS'f6161cbe-8ab3-11e2-91a7-fa163e3a40ba'
p176
aI00
aI00
aNaa(lp177
L7000000000000000000000011131450000L
aL7000000000000000000000011131460000L
aS'f6161e08-8ab3-11e2-91a7-fa163e3a40ba'
p178
aI00
aI00
aNaa(lp179
L7000000000000000000000011131460000L
aL7000000000000000000000011131470000L
aS'f61620ce-8ab3-11e2-91a7-fa163e3a40ba'
p180
aI00
aI00
aNaa(lp181
L7000000000000000000000011131470000L
aL7000000000000000000000011131480000L
aS'f61622a4-8ab3-11e2-91a7-fa163e3a40ba'
p182
aI00
aI00
aNaa(lp183
L7000000000000000000000011131480000L
aL7000000000000000000000011131490000L
aS'f61623f8-8ab3-11e2-91a7-fa163e3a40ba'
p184
aI00
aI00
aNaa(lp185
L7000000000000000000000011131490000L
aL7000000000000000000000011131500000L
aS'f616254c-8ab3-11e2-91a7-fa163e3a40ba'
p186
aI00
aI00
aNaa(lp187
L7000000000000000000000011131500000L
aL7000000000000000000000011131510000L
aS'f6162696-8ab3-11e2-91a7-fa163e3a40ba'
p188
aI00
aI00
aNaa(lp189
L7000000000000000000000011131510000L
aL7000000000000000000000011131520000L
aS'f61627ea-8ab3-11e2-91a7-fa163e3a40ba'
p190
aI00
aI00
aNaa(lp191
L7000000000000000000000011131520000L
aL7000000000000000000000011131530000L
aS'f6162948-8ab3-11e2-91a7-fa163e3a40ba'
p192
aI00
aI00
aNaa(lp193
L7000000000000000000000011131530000L
aL7000000000000000000000011131540000L
aS'f6162aa6-8ab3-11e2-91a7-fa163e3a40ba'
p194
aI00
aI00
aNaa(lp195
L7000000000000000000000011131540000L
aL7000000000000000000000011131550000L
aS'f6162c04-8ab3-11e2-91a7-fa163e3a40ba'
p196
aI00
aI00
aNaa(lp197
L7000000000000000000000011131550000L
aL7000000000000000000000011131560000L
aS'f6162d3a-8ab3-11e2-91a7-fa163e3a40ba'
p198
aI00
aI00
aNaa(lp199
L7000000000000000000000011131560000L
aL7000000000000000000000011131570000L
aS'f6162e66-8ab3-11e2-91a7-fa163e3a40ba'
p200
aI00
aI00
aNaa(lp201
L7000000000000000000000011131570000L
aL7000000000000000000000011131580000L
aS'f6162f92-8ab3-11e2-91a7-fa163e3a40ba'
p202
aI00
aI00
aNaa(lp203
L7000000000000000000000011131580000L
aL7000000000000000000000011131590000L
aS'f61630be-8ab3-11e2-91a7-fa163e3a40ba'
p204
aI00
aI00
aNaa(lp205
L7000000000000000000000011131590000L
aL7000000000000000000000011131600000L
aS'f61631ea-8ab3-11e2-91a7-fa163e3a40ba'
p206
aI00
aI00
aNaa(lp207
L7000000000000000000000011131600000L
aL7000000000000000000000011131610000L
aS'f6163316-8ab3-11e2-91a7-fa163e3a40ba'
p208
aI00
aI00
aNaa(lp209
L7000000000000000000000011131610000L
aL7000000000000000000000011131620000L
aS'f6163442-8ab3-11e2-91a7-fa163e3a40ba'
p210
aI00
aI00
aNaa(lp211
L7000000000000000000000011131620000L
aL7000000000000000000000011131630000L
aS'f616356e-8ab3-11e2-91a7-fa163e3a40ba'
p212
aI00
aI00
aNaa(lp213
L7000000000000000000000011131630000L
aL7000000000000000000000011131640000L
aS'f61636a4-8ab3-11e2-91a7-fa163e3a40ba'
p214
aI00
aI00
aNaa(lp215
L7000000000000000000000011131640000L
aL7000000000000000000000011131650000L
aS'f61637d0-8ab3-11e2-91a7-fa163e3a40ba'
p216
aI00
aI00
aNaa(lp217
L7000000000000000000000011131650000L
aL7000000000000000000000011131660000L
aS'f61638fc-8ab3-11e2-91a7-fa163e3a40ba'
p218
aI00
aI00
aNaa(lp219
L7000000000000000000000011131660000L
aL7000000000000000000000011131670000L
aS'f6163a28-8ab3-11e2-91a7-fa163e3a40ba'
p220
aI00
aI00
aNaa(lp221
L7000000000000000000000011131670000L
aL7000000000000000000000011131680000L
aS'f6163b54-8ab3-11e2-91a7-fa163e3a40ba'
p222
aI00
aI00
aNaa(lp223
L7000000000000000000000011131680000L
aL7000000000000000000000011131690000L
aS'f6163c76-8ab3-11e2-91a7-fa163e3a40ba'
p224
aI00
aI00
aNaa(lp225
L7000000000000000000000011131690000L
aL7000000000000000000000011131700000L
aS'f6163da2-8ab3-11e2-91a7-fa163e3a40ba'
p226
aI00
aI00
aNaa(lp227
L7000000000000000000000011131700000L
aL7000000000000000000000011131710000L
aS'f6163ece-8ab3-11e2-91a7-fa163e3a40ba'
p228
aI00
aI00
aNaa(lp229
L7000000000000000000000011131710000L
aL7000000000000000000000011131720000L
aS'f6163ffa-8ab3-11e2-91a7-fa163e3a40ba'
p230
aI00
aI00
aNaa(lp231
L7000000000000000000000011131720000L
aL7000000000000000000000011131730000L
aS'f6164126-8ab3-11e2-91a7-fa163e3a40ba'
p232
aI00
aI00
aNaa(lp233
L7000000000000000000000011131730000L
aL7000000000000000000000011131740000L
aS'f616425c-8ab3-11e2-91a7-fa163e3a40ba'
p234
aI00
aI00
aNaa(lp235
L7000000000000000000000011131740000L
aL7000000000000000000000011131750000L
aS'f61643a6-8ab3-11e2-91a7-fa163e3a40ba'
p236
aI00
aI01
aS'2285a418-883e-11e2-97fd-000c29b76fa4'
p237
aa.