(lp1
(lp2
L7000000000000000000000011145750000L
aL7000000000000000000000011145760000L
aS'1bbd2342-8abc-11e2-9d33-fa163e3a40ba'
p3
aI01
aI01
aS'1dd17594-8abb-11e2-bd7f-000c29e250a1'
p4
aa(lp5
L7000000000000000000000011145760000L
aL7000000000000000000000011145770000L
aS'1bbd272a-8abc-11e2-9d33-fa163e3a40ba'
p6
aI01
aI01
aS'd2139088-8aba-11e2-b3a9-fa163e3a40ba'
p7
aa(lp8
L7000000000000000000000011145770000L
aL7000000000000000000000011145780000L
aS'1bbd2928-8abc-11e2-9d33-fa163e3a40ba'
p9
aI01
aI01
aS'd132e204-8aba-11e2-9c96-fa163e3a40ba'
p10
aa(lp11
L7000000000000000000000011145780000L
aL7000000000000000000000011145790000L
aS'1bbd2a9a-8abc-11e2-9d33-fa163e3a40ba'
p12
aI01
aI01
aS'd17a5e54-8aba-11e2-a50d-fa163e3a40ba'
p13
aa(lp14
L7000000000000000000000011145790000L
aL7000000000000000000000011145800000L
aS'1bbd2c16-8abc-11e2-9d33-fa163e3a40ba'
p15
aI01
aI01
aS'1c19f096-8abb-11e2-be7c-000c29e250a1'
p16
aa(lp17
L7000000000000000000000011145800000L
aL7000000000000000000000011145810000L
aS'1bbd2de2-8abc-11e2-9d33-fa163e3a40ba'
p18
aI01
aI01
aS'd2139088-8aba-11e2-b3a9-fa163e3a40ba'
p19
aa(lp20
L7000000000000000000000011145810000L
aL7000000000000000000000011145820000L
aS'1bbd2f36-8abc-11e2-9d33-fa163e3a40ba'
p21
aI01
aI01
aS'd132e204-8aba-11e2-9c96-fa163e3a40ba'
p22
aa(lp23
L7000000000000000000000011145820000L
aL7000000000000000000000011145830000L
aS'1bbd308a-8abc-11e2-9d33-fa163e3a40ba'
p24
aI01
aI01
aS'47dfb930-8abc-11e2-b3df-000c29b76fa4'
p25
aa(lp26
L7000000000000000000000011145830000L
aL7000000000000000000000011145840000L
aS'1bbd31f2-8abc-11e2-9d33-fa163e3a40ba'
p27
aI01
aI01
aS'd17a5e54-8aba-11e2-a50d-fa163e3a40ba'
p28
aa(lp29
L7000000000000000000000011145840000L
aL7000000000000000000000011145850000L
aS'1bbd3350-8abc-11e2-9d33-fa163e3a40ba'
p30
aI01
aI01
aS'4847ee1a-8abc-11e2-9053-000c29b76fa4'
p31
aa(lp32
L7000000000000000000000011145850000L
aL7000000000000000000000011145860000L
aS'1bbd34ae-8abc-11e2-9d33-fa163e3a40ba'
p33
aI01
aI01
aS'1b6c9da6-8abb-11e2-8471-000c29e250a1'
p34
aa(lp35
L7000000000000000000000011145860000L
aL7000000000000000000000011145870000L
aS'1bbd3602-8abc-11e2-9d33-fa163e3a40ba'
p36
aI01
aI01
aS'd2139088-8aba-11e2-b3a9-fa163e3a40ba'
p37
aa(lp38
L7000000000000000000000011145870000L
aL7000000000000000000000011145880000L
aS'1bbd377e-8abc-11e2-9d33-fa163e3a40ba'
p39
aI01
aI01
aS'd132e204-8aba-11e2-9c96-fa163e3a40ba'
p40
aa(lp41
L7000000000000000000000011145880000L
aL7000000000000000000000011145890000L
aS'1bbd38d2-8abc-11e2-9d33-fa163e3a40ba'
p42
aI01
aI01
aS'd17a5e54-8aba-11e2-a50d-fa163e3a40ba'
p43
aa(lp44
L7000000000000000000000011145890000L
aL7000000000000000000000011145900000L
aS'1bbd3a3a-8abc-11e2-9d33-fa163e3a40ba'
p45
aI01
aI01
aS'17b4bc98-8abb-11e2-a861-000c29e250a1'
p46
aa(lp47
L7000000000000000000000011145900000L
aL7000000000000000000000011145910000L
aS'1bbd3b8e-8abc-11e2-9d33-fa163e3a40ba'
p48
aI01
aI01
aS'd2139088-8aba-11e2-b3a9-fa163e3a40ba'
p49
aa(lp50
L7000000000000000000000011145910000L
aL7000000000000000000000011145920000L
aS'1bbd3cba-8abc-11e2-9d33-fa163e3a40ba'
p51
aI01
aI01
aS'd132e204-8aba-11e2-9c96-fa163e3a40ba'
p52
aa(lp53
L7000000000000000000000011145920000L
aL7000000000000000000000011145930000L
aS'1bbd3e22-8abc-11e2-9d33-fa163e3a40ba'
p54
aI01
aI01
aS'4368a448-8abc-11e2-8f10-000c29b76fa4'
p55
aa(lp56
L7000000000000000000000011145930000L
aL7000000000000000000000011145940000L
aS'1bbd3f4e-8abc-11e2-9d33-fa163e3a40ba'
p57
aI01
aI01
aS'd17a5e54-8aba-11e2-a50d-fa163e3a40ba'
p58
aa(lp59
L7000000000000000000000011145940000L
aL7000000000000000000000011145950000L
aS'1bbd4084-8abc-11e2-9d33-fa163e3a40ba'
p60
aI01
aI01
aS'1dd17594-8abb-11e2-bd7f-000c29e250a1'
p61
aa(lp62
L7000000000000000000000011145950000L
aL7000000000000000000000011145960000L
aS'1bbd41ec-8abc-11e2-9d33-fa163e3a40ba'
p63
aI01
aI01
aS'48aaa53c-8abc-11e2-9a06-000c29b76fa4'
p64
aa(lp65
L7000000000000000000000011145960000L
aL7000000000000000000000011145970000L
aS'1bbd4340-8abc-11e2-9d33-fa163e3a40ba'
p66
aI01
aI01
aS'1c19f096-8abb-11e2-be7c-000c29e250a1'
p67
aa(lp68
L7000000000000000000000011145970000L
aL7000000000000000000000011145980000L
aS'1bbd449e-8abc-11e2-9d33-fa163e3a40ba'
p69
aI01
aI01
aS'd132e204-8aba-11e2-9c96-fa163e3a40ba'
p70
aa(lp71
L7000000000000000000000011145980000L
aL7000000000000000000000011145990000L
aS'1bbd45d4-8abc-11e2-9d33-fa163e3a40ba'
p72
aI01
aI01
aS'd2139088-8aba-11e2-b3a9-fa163e3a40ba'
p73
aa(lp74
L7000000000000000000000011145990000L
aL7000000000000000000000011146000000L
aS'1bbd4732-8abc-11e2-9d33-fa163e3a40ba'
p75
aI01
aI01
aS'd17a5e54-8aba-11e2-a50d-fa163e3a40ba'
p76
aa(lp77
L7000000000000000000000011146000000L
aL7000000000000000000000011146010000L
aS'1bbd4886-8abc-11e2-9d33-fa163e3a40ba'
p78
aI01
aI01
aS'47dfb930-8abc-11e2-b3df-000c29b76fa4'
p79
aa(lp80
L7000000000000000000000011146010000L
aL7000000000000000000000011146020000L
aS'1bbd49ee-8abc-11e2-9d33-fa163e3a40ba'
p81
aI01
aI01
aS'1b6c9da6-8abb-11e2-8471-000c29e250a1'
p82
aa(lp83
L7000000000000000000000011146020000L
aL7000000000000000000000011146030000L
aS'1bbd4c64-8abc-11e2-9d33-fa163e3a40ba'
p84
aI01
aI01
aS'd132e204-8aba-11e2-9c96-fa163e3a40ba'
p85
aa(lp86
L7000000000000000000000011146030000L
aL7000000000000000000000011146040000L
aS'1bbd4e8a-8abc-11e2-9d33-fa163e3a40ba'
p87
aI01
aI01
aS'd2139088-8aba-11e2-b3a9-fa163e3a40ba'
p88
aa(lp89
L7000000000000000000000011146040000L
aL7000000000000000000000011146050000L
aS'1bbd4fde-8abc-11e2-9d33-fa163e3a40ba'
p90
aI01
aI01
aS'd17a5e54-8aba-11e2-a50d-fa163e3a40ba'
p91
aa(lp92
L7000000000000000000000011146050000L
aL7000000000000000000000011146060000L
aS'1bbd5114-8abc-11e2-9d33-fa163e3a40ba'
p93
aI01
aI01
aS'd132e204-8aba-11e2-9c96-fa163e3a40ba'
p94
aa(lp95
L7000000000000000000000011146060000L
aL7000000000000000000000011146070000L
aS'1bbd525e-8abc-11e2-9d33-fa163e3a40ba'
p96
aI01
aI01
aS'17b4bc98-8abb-11e2-a861-000c29e250a1'
p97
aa(lp98
L7000000000000000000000011146070000L
aL7000000000000000000000011146080000L
aS'1bbd53b2-8abc-11e2-9d33-fa163e3a40ba'
p99
aI01
aI01
aS'4847ee1a-8abc-11e2-9053-000c29b76fa4'
p100
aa(lp101
L7000000000000000000000011146080000L
aL7000000000000000000000011146090000L
aS'1bbd551a-8abc-11e2-9d33-fa163e3a40ba'
p102
aI01
aI01
aS'd2139088-8aba-11e2-b3a9-fa163e3a40ba'
p103
aa(lp104
L7000000000000000000000011146090000L
aL7000000000000000000000011146100000L
aS'1bbd566e-8abc-11e2-9d33-fa163e3a40ba'
p105
aI01
aI01
aS'd17a5e54-8aba-11e2-a50d-fa163e3a40ba'
p106
aa(lp107
L7000000000000000000000011146100000L
aL7000000000000000000000011146110000L
aS'1bbd57c2-8abc-11e2-9d33-fa163e3a40ba'
p108
aI01
aI01
aS'1dd17594-8abb-11e2-bd7f-000c29e250a1'
p109
aa(lp110
L7000000000000000000000011146110000L
aL7000000000000000000000011146120000L
aS'1bbd592a-8abc-11e2-9d33-fa163e3a40ba'
p111
aI01
aI01
aS'd132e204-8aba-11e2-9c96-fa163e3a40ba'
p112
aa(lp113
L7000000000000000000000011146120000L
aL7000000000000000000000011146130000L
aS'1bbd5a7e-8abc-11e2-9d33-fa163e3a40ba'
p114
aI01
aI01
aS'4368a448-8abc-11e2-8f10-000c29b76fa4'
p115
aa(lp116
L7000000000000000000000011146130000L
aL7000000000000000000000011146140000L
aS'1bbd5bdc-8abc-11e2-9d33-fa163e3a40ba'
p117
aI01
aI01
aS'd2139088-8aba-11e2-b3a9-fa163e3a40ba'
p118
aa(lp119
L7000000000000000000000011146140000L
aL7000000000000000000000011146150000L
aS'1bbd5d30-8abc-11e2-9d33-fa163e3a40ba'
p120
aI01
aI01
aS'1c19f096-8abb-11e2-be7c-000c29e250a1'
p121
aa(lp122
L7000000000000000000000011146150000L
aL7000000000000000000000011146160000L
aS'1bbd5e84-8abc-11e2-9d33-fa163e3a40ba'
p123
aI01
aI01
aS'd17a5e54-8aba-11e2-a50d-fa163e3a40ba'
p124
aa(lp125
L7000000000000000000000011146160000L
aL7000000000000000000000011146170000L
aS'1bbd5fce-8abc-11e2-9d33-fa163e3a40ba'
p126
aI01
aI01
aS'48aaa53c-8abc-11e2-9a06-000c29b76fa4'
p127
aa(lp128
L7000000000000000000000011146170000L
aL7000000000000000000000011146180000L
aS'1bbd6140-8abc-11e2-9d33-fa163e3a40ba'
p129
aI01
aI01
aS'1b6c9da6-8abb-11e2-8471-000c29e250a1'
p130
aa(lp131
L7000000000000000000000011146180000L
aL7000000000000000000000011146190000L
aS'1bbd626c-8abc-11e2-9d33-fa163e3a40ba'
p132
aI01
aI01
aS'd132e204-8aba-11e2-9c96-fa163e3a40ba'
p133
aa(lp134
L7000000000000000000000011146190000L
aL7000000000000000000000011146200000L
aS'1bbd63d4-8abc-11e2-9d33-fa163e3a40ba'
p135
aI01
aI01
aS'd2139088-8aba-11e2-b3a9-fa163e3a40ba'
p136
aa(lp137
L7000000000000000000000011146200000L
aL7000000000000000000000011146210000L
aS'1bbd651e-8abc-11e2-9d33-fa163e3a40ba'
p138
aI01
aI01
aS'd17a5e54-8aba-11e2-a50d-fa163e3a40ba'
p139
aa(lp140
L7000000000000000000000011146210000L
aL7000000000000000000000011146220000L
aS'1bbd6668-8abc-11e2-9d33-fa163e3a40ba'
p141
aI01
aI01
aS'47dfb930-8abc-11e2-b3df-000c29b76fa4'
p142
aa(lp143
L7000000000000000000000011146220000L
aL7000000000000000000000011146230000L
aS'1bbd67bc-8abc-11e2-9d33-fa163e3a40ba'
p144
aI01
aI01
aS'd132e204-8aba-11e2-9c96-fa163e3a40ba'
p145
aa(lp146
L7000000000000000000000011146230000L
aL7000000000000000000000011146240000L
aS'1bbd6910-8abc-11e2-9d33-fa163e3a40ba'
p147
aI01
aI01
aS'17b4bc98-8abb-11e2-a861-000c29e250a1'
p148
aa(lp149
L7000000000000000000000011146240000L
aL7000000000000000000000011146250000L
aS'1bbd6a3c-8abc-11e2-9d33-fa163e3a40ba'
p150
aI01
aI01
aS'd2139088-8aba-11e2-b3a9-fa163e3a40ba'
p151
aa(lp152
L7000000000000000000000011146250000L
aL7000000000000000000000011146260000L
aS'1bbd6b86-8abc-11e2-9d33-fa163e3a40ba'
p153
aI01
aI01
aS'1dd17594-8abb-11e2-bd7f-000c29e250a1'
p154
aa(lp155
L7000000000000000000000011146260000L
aL7000000000000000000000011146270000L
aS'1bbd6cb2-8abc-11e2-9d33-fa163e3a40ba'
p156
aI01
aI01
aS'd17a5e54-8aba-11e2-a50d-fa163e3a40ba'
p157
aa(lp158
L7000000000000000000000011146270000L
aL7000000000000000000000011146280000L
aS'1bbd6dfc-8abc-11e2-9d33-fa163e3a40ba'
p159
aI01
aI01
aS'4847ee1a-8abc-11e2-9053-000c29b76fa4'
p160
aa(lp161
L7000000000000000000000011146280000L
aL7000000000000000000000011146290000L
aS'1bbd6f50-8abc-11e2-9d33-fa163e3a40ba'
p162
aI01
aI01
aS'd132e204-8aba-11e2-9c96-fa163e3a40ba'
p163
aa(lp164
L7000000000000000000000011146290000L
aL7000000000000000000000011146300000L
aS'1bbd70a4-8abc-11e2-9d33-fa163e3a40ba'
p165
aI01
aI01
aS'd2139088-8aba-11e2-b3a9-fa163e3a40ba'
p166
aa(lp167
L7000000000000000000000011146300000L
aL7000000000000000000000011146310000L
aS'1bbd71f8-8abc-11e2-9d33-fa163e3a40ba'
p168
aI01
aI01
aS'1c19f096-8abb-11e2-be7c-000c29e250a1'
p169
aa(lp170
L7000000000000000000000011146310000L
aL7000000000000000000000011146320000L
aS'1bbd734c-8abc-11e2-9d33-fa163e3a40ba'
p171
aI01
aI01
aS'd17a5e54-8aba-11e2-a50d-fa163e3a40ba'
p172
aa(lp173
L7000000000000000000000011146320000L
aL7000000000000000000000011146330000L
aS'1bbd7496-8abc-11e2-9d33-fa163e3a40ba'
p174
aI01
aI01
aS'1b6c9da6-8abb-11e2-8471-000c29e250a1'
p175
aa(lp176
L7000000000000000000000011146330000L
aL7000000000000000000000011146340000L
aS'1bbd75ea-8abc-11e2-9d33-fa163e3a40ba'
p177
aI01
aI01
aS'4368a448-8abc-11e2-8f10-000c29b76fa4'
p178
aa(lp179
L7000000000000000000000011146340000L
aL7000000000000000000000011146350000L
aS'1bbd7720-8abc-11e2-9d33-fa163e3a40ba'
p180
aI01
aI01
aS'd132e204-8aba-11e2-9c96-fa163e3a40ba'
p181
aa(lp182
L7000000000000000000000011146350000L
aL7000000000000000000000011146360000L
aS'1bbd7874-8abc-11e2-9d33-fa163e3a40ba'
p183
aI01
aI01
aS'd2139088-8aba-11e2-b3a9-fa163e3a40ba'
p184
aa(lp185
L7000000000000000000000011146360000L
aL7000000000000000000000011146370000L
aS'1bbd79c8-8abc-11e2-9d33-fa163e3a40ba'
p186
aI01
aI00
aNaa(lp187
L7000000000000000000000011146370000L
aL7000000000000000000000011146380000L
aS'1bbd7afe-8abc-11e2-9d33-fa163e3a40ba'
p188
aI01
aI01
aS'd17a5e54-8aba-11e2-a50d-fa163e3a40ba'
p189
aa(lp190
L7000000000000000000000011146380000L
aL7000000000000000000000011146390000L
aS'1bbd7c52-8abc-11e2-9d33-fa163e3a40ba'
p191
aI01
aI01
aS'd132e204-8aba-11e2-9c96-fa163e3a40ba'
p192
aa(lp193
L7000000000000000000000011146390000L
aL7000000000000000000000011146400000L
aS'1bbd7da6-8abc-11e2-9d33-fa163e3a40ba'
p194
aI01
aI01
aS'd2139088-8aba-11e2-b3a9-fa163e3a40ba'
p195
aa(lp196
L7000000000000000000000011146400000L
aL7000000000000000000000011146410000L
aS'1bbd7ef0-8abc-11e2-9d33-fa163e3a40ba'
p197
aI01
aI01
aS'd17a5e54-8aba-11e2-a50d-fa163e3a40ba'
p198
aa(lp199
L7000000000000000000000011146410000L
aL7000000000000000000000011146420000L
aS'1bbd8044-8abc-11e2-9d33-fa163e3a40ba'
p200
aI01
aI00
aNaa(lp201
L7000000000000000000000011146420000L
aL7000000000000000000000011146430000L
aS'1bbd8170-8abc-11e2-9d33-fa163e3a40ba'
p202
aI01
aI00
aNaa(lp203
L7000000000000000000000011146430000L
aL7000000000000000000000011146440000L
aS'1bbd82c4-8abc-11e2-9d33-fa163e3a40ba'
p204
aI01
aI00
aNaa(lp205
L7000000000000000000000011146440000L
aL7000000000000000000000011146450000L
aS'1bbd840e-8abc-11e2-9d33-fa163e3a40ba'
p206
aI01
aI01
aS'd132e204-8aba-11e2-9c96-fa163e3a40ba'
p207
aa(lp208
L7000000000000000000000011146450000L
aL7000000000000000000000011146460000L
aS'1bbd853a-8abc-11e2-9d33-fa163e3a40ba'
p209
aI01
aI01
aS'd2139088-8aba-11e2-b3a9-fa163e3a40ba'
p210
aa(lp211
L7000000000000000000000011146460000L
aL7000000000000000000000011146470000L
aS'1bbd868e-8abc-11e2-9d33-fa163e3a40ba'
p212
aI01
aI00
aNaa(lp213
L7000000000000000000000011146470000L
aL7000000000000000000000011146480000L
aS'1bbd87d8-8abc-11e2-9d33-fa163e3a40ba'
p214
aI01
aI01
aS'd17a5e54-8aba-11e2-a50d-fa163e3a40ba'
p215
aa(lp216
L7000000000000000000000011146480000L
aL7000000000000000000000011146490000L
aS'1bbd8922-8abc-11e2-9d33-fa163e3a40ba'
p217
aI01
aI00
aNaa(lp218
L7000000000000000000000011146490000L
aL7000000000000000000000011146500000L
aS'1bbd8a76-8abc-11e2-9d33-fa163e3a40ba'
p219
aI01
aI00
aNaa(lp220
L7000000000000000000000011146500000L
aL7000000000000000000000011146510000L
aS'1bbd8ba2-8abc-11e2-9d33-fa163e3a40ba'
p221
aI01
aI00
aNaa(lp222
L7000000000000000000000011146510000L
aL7000000000000000000000011146520000L
aS'1bbd8cec-8abc-11e2-9d33-fa163e3a40ba'
p223
aI01
aI00
aNaa(lp224
L7000000000000000000000011146520000L
aL7000000000000000000000011146530000L
aS'1bbd8e36-8abc-11e2-9d33-fa163e3a40ba'
p225
aI01
aI00
aNaa(lp226
L7000000000000000000000011146530000L
aL7000000000000000000000011146540000L
aS'1bbd8f80-8abc-11e2-9d33-fa163e3a40ba'
p227
aI00
aI00
aNaa(lp228
L7000000000000000000000011146540000L
aL7000000000000000000000011146550000L
aS'1bbd90ac-8abc-11e2-9d33-fa163e3a40ba'
p229
aI00
aI00
aNaa(lp230
L7000000000000000000000011146550000L
aL7000000000000000000000011146560000L
aS'1bbd91f6-8abc-11e2-9d33-fa163e3a40ba'
p231
aI00
aI00
aNaa(lp232
L7000000000000000000000011146560000L
aL7000000000000000000000011146570000L
aS'1bbd934a-8abc-11e2-9d33-fa163e3a40ba'
p233
aI00
aI00
aNaa(lp234
L7000000000000000000000011146570000L
aL7000000000000000000000011146580000L
aS'1bbd9520-8abc-11e2-9d33-fa163e3a40ba'
p235
aI00
aI00
aNaa(lp236
L7000000000000000000000011146580000L
aL7000000000000000000000011146590000L
aS'1bbd9a02-8abc-11e2-9d33-fa163e3a40ba'
p237
aI00
aI00
aNaa(lp238
L7000000000000000000000011146590000L
aL7000000000000000000000011146600000L
aS'1bbd9de0-8abc-11e2-9d33-fa163e3a40ba'
p239
aI00
aI00
aNaa(lp240
L7000000000000000000000011146600000L
aL7000000000000000000000011146610000L
aS'1bbda02e-8abc-11e2-9d33-fa163e3a40ba'
p241
aI00
aI00
aNaa(lp242
L7000000000000000000000011146610000L
aL7000000000000000000000011146620000L
aS'1bbda452-8abc-11e2-9d33-fa163e3a40ba'
p243
aI00
aI00
aNaa(lp244
L7000000000000000000000011146620000L
aL7000000000000000000000011146630000L
aS'1bbda646-8abc-11e2-9d33-fa163e3a40ba'
p245
aI00
aI00
aNaa(lp246
L7000000000000000000000011146630000L
aL7000000000000000000000011146640000L
aS'1bbda7ae-8abc-11e2-9d33-fa163e3a40ba'
p247
aI00
aI00
aNaa(lp248
L7000000000000000000000011146640000L
aL7000000000000000000000011146650000L
aS'1bbdb622-8abc-11e2-9d33-fa163e3a40ba'
p249
aI00
aI00
aNaa(lp250
L7000000000000000000000011146650000L
aL7000000000000000000000011146660000L
aS'1bbdb794-8abc-11e2-9d33-fa163e3a40ba'
p251
aI00
aI00
aNaa(lp252
L7000000000000000000000011146660000L
aL7000000000000000000000011146670000L
aS'1bbdb8fc-8abc-11e2-9d33-fa163e3a40ba'
p253
aI00
aI00
aNaa(lp254
L7000000000000000000000011146670000L
aL7000000000000000000000011146680000L
aS'1bbdba28-8abc-11e2-9d33-fa163e3a40ba'
p255
aI00
aI00
aNaa(lp256
L7000000000000000000000011146680000L
aL7000000000000000000000011146690000L
aS'1bbdbb90-8abc-11e2-9d33-fa163e3a40ba'
p257
aI00
aI00
aNaa(lp258
L7000000000000000000000011146690000L
aL7000000000000000000000011146700000L
aS'1bbdbcda-8abc-11e2-9d33-fa163e3a40ba'
p259
aI00
aI00
aNaa(lp260
L7000000000000000000000011146700000L
aL7000000000000000000000011146710000L
aS'1bbdbe42-8abc-11e2-9d33-fa163e3a40ba'
p261
aI00
aI00
aNaa(lp262
L7000000000000000000000011146710000L
aL7000000000000000000000011146720000L
aS'1bbdbf96-8abc-11e2-9d33-fa163e3a40ba'
p263
aI00
aI00
aNaa(lp264
L7000000000000000000000011146720000L
aL7000000000000000000000011146730000L
aS'1bbdc1c6-8abc-11e2-9d33-fa163e3a40ba'
p265
aI00
aI00
aNaa(lp266
L7000000000000000000000011146730000L
aL7000000000000000000000011146740000L
aS'1bbdc39c-8abc-11e2-9d33-fa163e3a40ba'
p267
aI00
aI00
aNaa(lp268
L7000000000000000000000011146740000L
aL7000000000000000000000011146750000L
aS'1bbdc4fa-8abc-11e2-9d33-fa163e3a40ba'
p269
aI00
aI01
aS'48aaa53c-8abc-11e2-9a06-000c29b76fa4'
p270
aa.