(lp1
(lp2
L7000000000000000000000065541360277L
aL7000000000000000000000065541560277L
aS'94e88d88-fbcc-11e3-8cf7-ccd29b2fe4f6'
p3
aI01
aI01
aS'49a8a4a8-f7c0-11e3-b4e4-00e053135587'
p4
aa(lp5
L7000000000000000000000065541560277L
aL7000000000000000000000065541760277L
aS'94e8da86-fbcc-11e3-8cf7-ccd29b2fe4f6'
p6
aI01
aI01
aS'61f40dd6-f7c0-11e3-b620-5404a6372add'
p7
aa(lp8
L7000000000000000000000065541760277L
aL7000000000000000000000065541960277L
aS'94e93954-fbcc-11e3-8cf7-ccd29b2fe4f6'
p9
aI01
aI01
aS'60fc5d3e-f7c0-11e3-bcc6-5404a6372add'
p10
aa(lp11
L7000000000000000000000065541960277L
aL7000000000000000000000065542160277L
aS'94e95ff6-fbcc-11e3-8cf7-ccd29b2fe4f6'
p12
aI01
aI01
aS'5f0eea22-f7e9-11e3-8475-000c29e250a1'
p13
aa(lp14
L7000000000000000000000065542160277L
aL7000000000000000000000065542360277L
aS'94e98c38-fbcc-11e3-8cf7-ccd29b2fe4f6'
p15
aI01
aI01
aS'64b23c28-f7c0-11e3-8272-5404a6372add'
p16
aa(lp17
L7000000000000000000000065542360277L
aL7000000000000000000000065542560277L
aS'94e99fac-fbcc-11e3-8cf7-ccd29b2fe4f6'
p18
aI01
aI01
aS'663a5cf6-f7c0-11e3-8e94-5404a6372add'
p19
aa(lp20
L7000000000000000000000065542560277L
aL7000000000000000000000065542760277L
aS'94e9b05a-fbcc-11e3-8cf7-ccd29b2fe4f6'
p21
aI01
aI01
aS'39db6900-f7ef-11e3-b031-a3b0e3825347'
p22
aa(lp23
L7000000000000000000000065542760277L
aL7000000000000000000000065542960277L
aS'94e9c0cc-fbcc-11e3-8cf7-ccd29b2fe4f6'
p24
aI01
aI01
aS'6309116c-f7c0-11e3-9bf9-5404a6372add'
p25
aa(lp26
L7000000000000000000000065542960277L
aL7000000000000000000000065543160277L
aS'94e9d120-fbcc-11e3-8cf7-ccd29b2fe4f6'
p27
aI01
aI01
aS'74e81f02-f7ef-11e3-b031-57b3b5f7965f'
p28
aa(lp29
L7000000000000000000000065543160277L
aL7000000000000000000000065543360277L
aS'94e9e0de-fbcc-11e3-8cf7-ccd29b2fe4f6'
p30
aI01
aI01
aS'5dc4b5fc-f7e9-11e3-ab38-000c29e250a1'
p31
aa(lp32
L7000000000000000000000065543360277L
aL7000000000000000000000065543560277L
aS'94ea3f98-fbcc-11e3-8cf7-ccd29b2fe4f6'
p33
aI01
aI01
aS'462c5856-f7c0-11e3-935f-00e053135587'
p34
aa(lp35
L7000000000000000000000065543560277L
aL7000000000000000000000065543760277L
aS'94ea57c6-fbcc-11e3-8cf7-ccd29b2fe4f6'
p36
aI01
aI01
aS'3150c5a2-f7c0-11e3-b225-001cc0bffc9f'
p37
aa(lp38
L7000000000000000000000065543760277L
aL7000000000000000000000065543960277L
aS'94ea65c2-fbcc-11e3-8cf7-ccd29b2fe4f6'
p39
aI01
aI01
aS'47cc1bec-f7c0-11e3-9f29-00e053135587'
p40
aa(lp41
L7000000000000000000000065543960277L
aL7000000000000000000000065544160277L
aS'94ea71fc-fbcc-11e3-8cf7-ccd29b2fe4f6'
p42
aI01
aI01
aS'71b4e054-f7ef-11e3-b031-1150fe97b6a5'
p43
aa(lp44
L7000000000000000000000065544160277L
aL7000000000000000000000065544360277L
aS'94ea7ddc-fbcc-11e3-8cf7-ccd29b2fe4f6'
p45
aI01
aI01
aS'5fd14654-f7c0-11e3-bd92-5404a6372add'
p46
aa(lp47
L7000000000000000000000065544360277L
aL7000000000000000000000065544560277L
aS'94ea8962-fbcc-11e3-8cf7-ccd29b2fe4f6'
p48
aI01
aI01
aS'47579420-f7c0-11e3-be54-00e053135587'
p49
aa(lp50
L7000000000000000000000065544560277L
aL7000000000000000000000065544760277L
aS'94ea943e-fbcc-11e3-8cf7-ccd29b2fe4f6'
p51
aI01
aI01
aS'81ac6054-f7ef-11e3-b031-15fb80904113'
p52
aa(lp53
L7000000000000000000000065544760277L
aL7000000000000000000000065544960277L
aS'94ea9f1a-fbcc-11e3-8cf7-ccd29b2fe4f6'
p54
aI01
aI01
aS'64e24560-f7ef-11e3-b031-6328b648429f'
p55
aa(lp56
L7000000000000000000000065544960277L
aL7000000000000000000000065545160277L
aS'94eaaaa0-fbcc-11e3-8cf7-ccd29b2fe4f6'
p57
aI01
aI01
aS'66d09644-f7c0-11e3-9beb-5404a6372add'
p58
aa(lp59
L7000000000000000000000065545160277L
aL7000000000000000000000065545360277L
aS'94eab4e6-fbcc-11e3-8cf7-ccd29b2fe4f6'
p60
aI01
aI01
aS'0409a7bc-f7ed-11e3-8c97-bcaec562e169'
p61
aa(lp62
L7000000000000000000000065545360277L
aL7000000000000000000000065545560277L
aS'94eabf7c-fbcc-11e3-8cf7-ccd29b2fe4f6'
p63
aI01
aI01
aS'5d9647a2-f7ef-11e3-b031-c7d12f351c70'
p64
aa(lp65
L7000000000000000000000065545560277L
aL7000000000000000000000065545760277L
aS'94eaca9e-fbcc-11e3-8cf7-ccd29b2fe4f6'
p66
aI01
aI01
aS'5df74a4a-f7c0-11e3-94c7-5404a6372add'
p67
aa(lp68
L7000000000000000000000065545760277L
aL7000000000000000000000065545960277L
aS'94ead57a-fbcc-11e3-8cf7-ccd29b2fe4f6'
p69
aI01
aI01
aS'2f85c9de-f7c0-11e3-90f6-001cc0bffc9f'
p70
aa(lp71
L7000000000000000000000065545960277L
aL7000000000000000000000065546160277L
aS'94eae038-fbcc-11e3-8cf7-ccd29b2fe4f6'
p72
aI01
aI01
aS'5f071938-f7c0-11e3-ab3a-5404a6372add'
p73
aa(lp74
L7000000000000000000000065546160277L
aL7000000000000000000000065546360277L
aS'94eaeaec-fbcc-11e3-8cf7-ccd29b2fe4f6'
p75
aI01
aI01
aS'65bcb5b2-f7c0-11e3-a574-5404a6372add'
p76
aa(lp77
L7000000000000000000000065546360277L
aL7000000000000000000000065546560277L
aS'94eaf64a-fbcc-11e3-8cf7-ccd29b2fe4f6'
p78
aI01
aI01
aS'60cf8398-f7ef-11e3-b031-9be104d90b2b'
p79
aa(lp80
L7000000000000000000000065546560277L
aL7000000000000000000000065546760277L
aS'94eb013a-fbcc-11e3-8cf7-ccd29b2fe4f6'
p81
aI01
aI01
aS'6164d760-f7c0-11e3-bdf0-5404a6372add'
p82
aa(lp83
L7000000000000000000000065546760277L
aL7000000000000000000000065546960277L
aS'94eb0b94-fbcc-11e3-8cf7-ccd29b2fe4f6'
p84
aI01
aI01
aS'60037132-f7e9-11e3-b323-000c29e250a1'
p85
aa(lp86
L7000000000000000000000065546960277L
aL7000000000000000000000065547160277L
aS'94eb1620-fbcc-11e3-8cf7-ccd29b2fe4f6'
p87
aI01
aI01
aS'4870730e-f7c0-11e3-8173-00e053135587'
p88
aa(lp89
L7000000000000000000000065547160277L
aL7000000000000000000000065547360277L
aS'94eb20de-fbcc-11e3-8cf7-ccd29b2fe4f6'
p90
aI01
aI01
aS'663a5cf6-f7c0-11e3-8e94-5404a6372add'
p91
aa(lp92
L7000000000000000000000065547360277L
aL7000000000000000000000065547560277L
aS'94eb2b6a-fbcc-11e3-8cf7-ccd29b2fe4f6'
p93
aI01
aI01
aS'643555fa-f7c0-11e3-be64-5404a6372add'
p94
aa(lp95
L7000000000000000000000065547560277L
aL7000000000000000000000065547760277L
aS'94eb3588-fbcc-11e3-8cf7-ccd29b2fe4f6'
p96
aI01
aI01
aS'60db2ab4-f7e9-11e3-9436-000c29e250a1'
p97
aa(lp98
L7000000000000000000000065547760277L
aL7000000000000000000000065547960277L
aS'94eb4064-fbcc-11e3-8cf7-ccd29b2fe4f6'
p99
aI01
aI01
aS'63b15f48-f7c0-11e3-a0b3-5404a6372add'
p100
aa(lp101
L7000000000000000000000065547960277L
aL7000000000000000000000065548160277L
aS'94eb4b68-fbcc-11e3-8cf7-ccd29b2fe4f6'
p102
aI01
aI01
aS'6059fa9e-f7c0-11e3-8c3a-5404a6372add'
p103
aa(lp104
L7000000000000000000000065548160277L
aL7000000000000000000000065548360277L
aS'94eb55e0-fbcc-11e3-8cf7-ccd29b2fe4f6'
p105
aI01
aI01
aS'628c92cc-f7c0-11e3-a05e-5404a6372add'
p106
aa(lp107
L7000000000000000000000065548360277L
aL7000000000000000000000065548560277L
aS'94eb5ff4-fbcc-11e3-8cf7-ccd29b2fe4f6'
p108
aI01
aI01
aS'0409a7bc-f7ed-11e3-8c97-bcaec562e169'
p109
aa(lp110
L7000000000000000000000065548560277L
aL7000000000000000000000065548760277L
aS'94eb6ac6-fbcc-11e3-8cf7-ccd29b2fe4f6'
p111
aI01
aI01
aS'3150c5a2-f7c0-11e3-b225-001cc0bffc9f'
p112
aa(lp113
L7000000000000000000000065548760277L
aL7000000000000000000000065548960277L
aS'94eb7520-fbcc-11e3-8cf7-ccd29b2fe4f6'
p114
aI01
aI01
aS'60fc5d3e-f7c0-11e3-bcc6-5404a6372add'
p115
aa(lp116
L7000000000000000000000065548960277L
aL7000000000000000000000065549160277L
aS'94eb7f5c-fbcc-11e3-8cf7-ccd29b2fe4f6'
p117
aI01
aI01
aS'71b4e054-f7ef-11e3-b031-1150fe97b6a5'
p118
aa(lp119
L7000000000000000000000065549160277L
aL7000000000000000000000065549360277L
aS'94eb8a38-fbcc-11e3-8cf7-ccd29b2fe4f6'
p120
aI01
aI01
aS'47cc1bec-f7c0-11e3-9f29-00e053135587'
p121
aa(lp122
L7000000000000000000000065549360277L
aL7000000000000000000000065549560277L
aS'94eba950-fbcc-11e3-8cf7-ccd29b2fe4f6'
p123
aI01
aI01
aS'65285926-f7c0-11e3-91f4-5404a6372add'
p124
aa(lp125
L7000000000000000000000065549560277L
aL7000000000000000000000065549760277L
aS'94ebb828-fbcc-11e3-8cf7-ccd29b2fe4f6'
p126
aI01
aI01
aS'81ac6054-f7ef-11e3-b031-15fb80904113'
p127
aa(lp128
L7000000000000000000000065549760277L
aL7000000000000000000000065549960277L
aS'94ebc3e0-fbcc-11e3-8cf7-ccd29b2fe4f6'
p129
aI01
aI01
aS'64b23c28-f7c0-11e3-8272-5404a6372add'
p130
aa(lp131
L7000000000000000000000065549960277L
aL7000000000000000000000065550160277L
aS'94ecc79a-fbcc-11e3-8cf7-ccd29b2fe4f6'
p132
aI01
aI01
aS'6309116c-f7c0-11e3-9bf9-5404a6372add'
p133
aa(lp134
L7000000000000000000000065550160277L
aL7000000000000000000000065550360277L
aS'94ecf0b2-fbcc-11e3-8cf7-ccd29b2fe4f6'
p135
aI01
aI01
aS'39db6900-f7ef-11e3-b031-a3b0e3825347'
p136
aa(lp137
L7000000000000000000000065550360277L
aL7000000000000000000000065550560277L
aS'94ed0732-fbcc-11e3-8cf7-ccd29b2fe4f6'
p138
aI01
aI01
aS'5f0eea22-f7e9-11e3-8475-000c29e250a1'
p139
aa(lp140
L7000000000000000000000065550560277L
aL7000000000000000000000065550760277L
aS'94ed1aec-fbcc-11e3-8cf7-ccd29b2fe4f6'
p141
aI01
aI01
aS'663a5cf6-f7c0-11e3-8e94-5404a6372add'
p142
aa(lp143
L7000000000000000000000065550760277L
aL7000000000000000000000065550960277L
aS'94ed2a28-fbcc-11e3-8cf7-ccd29b2fe4f6'
p144
aI01
aI01
aS'61f40dd6-f7c0-11e3-b620-5404a6372add'
p145
aa(lp146
L7000000000000000000000065550960277L
aL7000000000000000000000065551160277L
aS'94ed3608-fbcc-11e3-8cf7-ccd29b2fe4f6'
p147
aI01
aI01
aS'5d9647a2-f7ef-11e3-b031-c7d12f351c70'
p148
aa(lp149
L7000000000000000000000065551160277L
aL7000000000000000000000065551360277L
aS'94ed4198-fbcc-11e3-8cf7-ccd29b2fe4f6'
p150
aI01
aI01
aS'6309116c-f7c0-11e3-9bf9-5404a6372add'
p151
aa(lp152
L7000000000000000000000065551360277L
aL7000000000000000000000065551560277L
aS'94ed4cce-fbcc-11e3-8cf7-ccd29b2fe4f6'
p153
aI01
aI01
aS'5fd14654-f7c0-11e3-bd92-5404a6372add'
p154
aa(lp155
L7000000000000000000000065551560277L
aL7000000000000000000000065551760277L
aS'94ed5728-fbcc-11e3-8cf7-ccd29b2fe4f6'
p156
aI01
aI01
aS'5d9647a2-f7ef-11e3-b031-c7d12f351c70'
p157
aa(lp158
L7000000000000000000000065551760277L
aL7000000000000000000000065551960277L
aS'94ed6150-fbcc-11e3-8cf7-ccd29b2fe4f6'
p159
aI01
aI01
aS'60cf8398-f7ef-11e3-b031-9be104d90b2b'
p160
aa(lp161
L7000000000000000000000065551960277L
aL7000000000000000000000065552160277L
aS'94ed6c36-fbcc-11e3-8cf7-ccd29b2fe4f6'
p162
aI01
aI01
aS'66d09644-f7c0-11e3-9beb-5404a6372add'
p163
aa(lp164
L7000000000000000000000065552160277L
aL7000000000000000000000065552360277L
aS'94ed76b8-fbcc-11e3-8cf7-ccd29b2fe4f6'
p165
aI01
aI01
aS'2f85c9de-f7c0-11e3-90f6-001cc0bffc9f'
p166
aa(lp167
L7000000000000000000000065552360277L
aL7000000000000000000000065552560277L
aS'94ed8108-fbcc-11e3-8cf7-ccd29b2fe4f6'
p168
aI01
aI01
aS'61f40dd6-f7c0-11e3-b620-5404a6372add'
p169
aa(lp170
L7000000000000000000000065552560277L
aL7000000000000000000000065552760277L
aS'94ed8b44-fbcc-11e3-8cf7-ccd29b2fe4f6'
p171
aI01
aI01
aS'628c92cc-f7c0-11e3-a05e-5404a6372add'
p172
aa(lp173
L7000000000000000000000065552760277L
aL7000000000000000000000065552960277L
aS'94ed9620-fbcc-11e3-8cf7-ccd29b2fe4f6'
p174
aI01
aI01
aS'39db6900-f7ef-11e3-b031-a3b0e3825347'
p175
aa(lp176
L7000000000000000000000065552960277L
aL7000000000000000000000065553160277L
aS'94eda0de-fbcc-11e3-8cf7-ccd29b2fe4f6'
p177
aI01
aI01
aS'2a3cb260-f7ef-11e3-b031-37ac895e792a'
p178
aa(lp179
L7000000000000000000000065553160277L
aL7000000000000000000000065553360277L
aS'94edab74-fbcc-11e3-8cf7-ccd29b2fe4f6'
p180
aI01
aI01
aS'64e24560-f7ef-11e3-b031-6328b648429f'
p181
aa(lp182
L7000000000000000000000065553360277L
aL7000000000000000000000065553560277L
aS'94edb6b4-fbcc-11e3-8cf7-ccd29b2fe4f6'
p183
aI01
aI01
aS'643555fa-f7c0-11e3-be64-5404a6372add'
p184
aa(lp185
L7000000000000000000000065553560277L
aL7000000000000000000000065553760277L
aS'94edc15e-fbcc-11e3-8cf7-ccd29b2fe4f6'
p186
aI01
aI01
aS'6164d760-f7c0-11e3-bdf0-5404a6372add'
p187
aa(lp188
L7000000000000000000000065553760277L
aL7000000000000000000000065553960277L
aS'94edcba4-fbcc-11e3-8cf7-ccd29b2fe4f6'
p189
aI01
aI01
aS'6059fa9e-f7c0-11e3-8c3a-5404a6372add'
p190
aa(lp191
L7000000000000000000000065553960277L
aL7000000000000000000000065554160277L
aS'94edd59a-fbcc-11e3-8cf7-ccd29b2fe4f6'
p192
aI01
aI01
aS'71b4e054-f7ef-11e3-b031-1150fe97b6a5'
p193
aa(lp194
L7000000000000000000000065554160277L
aL7000000000000000000000065554360277L
aS'94ede076-fbcc-11e3-8cf7-ccd29b2fe4f6'
p195
aI01
aI01
aS'65bcb5b2-f7c0-11e3-a574-5404a6372add'
p196
aa(lp197
L7000000000000000000000065554360277L
aL7000000000000000000000065554560277L
aS'94edeabc-fbcc-11e3-8cf7-ccd29b2fe4f6'
p198
aI01
aI01
aS'5df74a4a-f7c0-11e3-94c7-5404a6372add'
p199
aa(lp200
L7000000000000000000000065554560277L
aL7000000000000000000000065554760277L
aS'94edf50c-fbcc-11e3-8cf7-ccd29b2fe4f6'
p201
aI01
aI01
aS'63b15f48-f7c0-11e3-a0b3-5404a6372add'
p202
aa(lp203
L7000000000000000000000065554760277L
aL7000000000000000000000065554960277L
aS'94edff3e-fbcc-11e3-8cf7-ccd29b2fe4f6'
p204
aI01
aI01
aS'6309116c-f7c0-11e3-9bf9-5404a6372add'
p205
aa(lp206
L7000000000000000000000065554960277L
aL7000000000000000000000065555160277L
aS'94ee0a06-fbcc-11e3-8cf7-ccd29b2fe4f6'
p207
aI01
aI01
aS'64b23c28-f7c0-11e3-8272-5404a6372add'
p208
aa(lp209
L7000000000000000000000065555160277L
aL7000000000000000000000065555360277L
aS'94ee1442-fbcc-11e3-8cf7-ccd29b2fe4f6'
p210
aI01
aI01
aS'60fc5d3e-f7c0-11e3-bcc6-5404a6372add'
p211
aa(lp212
L7000000000000000000000065555360277L
aL7000000000000000000000065555560277L
aS'94ee1e4c-fbcc-11e3-8cf7-ccd29b2fe4f6'
p213
aI01
aI01
aS'65285926-f7c0-11e3-91f4-5404a6372add'
p214
aa(lp215
L7000000000000000000000065555560277L
aL7000000000000000000000065555760277L
aS'94ee28c4-fbcc-11e3-8cf7-ccd29b2fe4f6'
p216
aI01
aI01
aS'663a5cf6-f7c0-11e3-8e94-5404a6372add'
p217
aa(lp218
L7000000000000000000000065555760277L
aL7000000000000000000000065555960277L
aS'94ee33aa-fbcc-11e3-8cf7-ccd29b2fe4f6'
p219
aI01
aI01
aS'5f071938-f7c0-11e3-ab3a-5404a6372add'
p220
aa(lp221
L7000000000000000000000065555960277L
aL7000000000000000000000065556160277L
aS'94ee3e18-fbcc-11e3-8cf7-ccd29b2fe4f6'
p222
aI01
aI01
aS'5fd14654-f7c0-11e3-bd92-5404a6372add'
p223
aa(lp224
L7000000000000000000000065556160277L
aL7000000000000000000000065556360277L
aS'94ee484a-fbcc-11e3-8cf7-ccd29b2fe4f6'
p225
aI01
aI01
aS'2f85c9de-f7c0-11e3-90f6-001cc0bffc9f'
p226
aa(lp227
L7000000000000000000000065556360277L
aL7000000000000000000000065556560277L
aS'94ee5326-fbcc-11e3-8cf7-ccd29b2fe4f6'
p228
aI01
aI01
aS'3150c5a2-f7c0-11e3-b225-001cc0bffc9f'
p229
aa(lp230
L7000000000000000000000065556560277L
aL7000000000000000000000065556760277L
aS'94ee5dc6-fbcc-11e3-8cf7-ccd29b2fe4f6'
p231
aI01
aI01
aS'0409a7bc-f7ed-11e3-8c97-bcaec562e169'
p232
aa(lp233
L7000000000000000000000065556760277L
aL7000000000000000000000065556960277L
aS'94ee67f8-fbcc-11e3-8cf7-ccd29b2fe4f6'
p234
aI01
aI01
aS'5f0eea22-f7e9-11e3-8475-000c29e250a1'
p235
aa(lp236
L7000000000000000000000065556960277L
aL7000000000000000000000065557160277L
aS'94ee7248-fbcc-11e3-8cf7-ccd29b2fe4f6'
p237
aI01
aI01
aS'60037132-f7e9-11e3-b323-000c29e250a1'
p238
aa(lp239
L7000000000000000000000065557160277L
aL7000000000000000000000065557360277L
aS'94ee7dba-fbcc-11e3-8cf7-ccd29b2fe4f6'
p240
aI01
aI01
aS'60db2ab4-f7e9-11e3-9436-000c29e250a1'
p241
aa(lp242
L7000000000000000000000065557360277L
aL7000000000000000000000065557560277L
aS'94ee883c-fbcc-11e3-8cf7-ccd29b2fe4f6'
p243
aI01
aI01
aS'5dc4b5fc-f7e9-11e3-ab38-000c29e250a1'
p244
aa(lp245
L7000000000000000000000065557560277L
aL7000000000000000000000065557760277L
aS'94ee925a-fbcc-11e3-8cf7-ccd29b2fe4f6'
p246
aI01
aI01
aS'81ac6054-f7ef-11e3-b031-15fb80904113'
p247
aa(lp248
L7000000000000000000000065557760277L
aL7000000000000000000000065557960277L
aS'94eebd20-fbcc-11e3-8cf7-ccd29b2fe4f6'
p249
aI01
aI01
aS'74e81f02-f7ef-11e3-b031-57b3b5f7965f'
p250
aa(lp251
L7000000000000000000000065557960277L
aL7000000000000000000000065558160277L
aS'94eed29c-fbcc-11e3-8cf7-ccd29b2fe4f6'
p252
aI01
aI01
aS'491601e8-f7c0-11e3-9652-00e053135587'
p253
aa(lp254
L7000000000000000000000065558160277L
aL7000000000000000000000065558360277L
aS'94eee066-fbcc-11e3-8cf7-ccd29b2fe4f6'
p255
aI01
aI01
aS'439a1ff6-f7c0-11e3-bb9f-00e053135587'
p256
aa(lp257
L7000000000000000000000065558360277L
aL7000000000000000000000065558560277L
aS'94eefbb4-fbcc-11e3-8cf7-ccd29b2fe4f6'
p258
aI01
aI01
aS'49a8a4a8-f7c0-11e3-b4e4-00e053135587'
p259
aa(lp260
L7000000000000000000000065558560277L
aL7000000000000000000000065558760277L
aS'94ef0a32-fbcc-11e3-8cf7-ccd29b2fe4f6'
p261
aI01
aI01
aS'4ad4d022-f7c0-11e3-be8c-00e053135587'
p262
aa(lp263
L7000000000000000000000065558760277L
aL7000000000000000000000065558960277L
aS'94ef3dfe-fbcc-11e3-8cf7-ccd29b2fe4f6'
p264
aI01
aI01
aS'47579420-f7c0-11e3-be54-00e053135587'
p265
aa(lp266
L7000000000000000000000065558960277L
aL7000000000000000000000065559160277L
aS'94ef9452-fbcc-11e3-8cf7-ccd29b2fe4f6'
p267
aI01
aI01
aS'462c5856-f7c0-11e3-935f-00e053135587'
p268
aa(lp269
L7000000000000000000000065559160277L
aL7000000000000000000000065559360277L
aS'94efc6e8-fbcc-11e3-8cf7-ccd29b2fe4f6'
p270
aI01
aI01
aS'47cc1bec-f7c0-11e3-9f29-00e053135587'
p271
aa(lp272
L7000000000000000000000065559360277L
aL7000000000000000000000065559560277L
aS'94efdc0a-fbcc-11e3-8cf7-ccd29b2fe4f6'
p273
aI01
aI01
aS'5d9647a2-f7ef-11e3-b031-c7d12f351c70'
p274
aa(lp275
L7000000000000000000000065559560277L
aL7000000000000000000000065559760277L
aS'94efec0e-fbcc-11e3-8cf7-ccd29b2fe4f6'
p276
aI01
aI01
aS'0409a7bc-f7ed-11e3-8c97-bcaec562e169'
p277
aa(lp278
L7000000000000000000000065559760277L
aL7000000000000000000000065559960277L
aS'94effa3c-fbcc-11e3-8cf7-ccd29b2fe4f6'
p279
aI01
aI01
aS'61f40dd6-f7c0-11e3-b620-5404a6372add'
p280
aa(lp281
L7000000000000000000000065559960277L
aL7000000000000000000000065560160277L
aS'94f00608-fbcc-11e3-8cf7-ccd29b2fe4f6'
p282
aI01
aI01
aS'65bcb5b2-f7c0-11e3-a574-5404a6372add'
p283
aa(lp284
L7000000000000000000000065560160277L
aL7000000000000000000000065560360277L
aS'94f01288-fbcc-11e3-8cf7-ccd29b2fe4f6'
p285
aI01
aI01
aS'66d09644-f7c0-11e3-9beb-5404a6372add'
p286
aa(lp287
L7000000000000000000000065560360277L
aL7000000000000000000000065560560277L
aS'94f0208e-fbcc-11e3-8cf7-ccd29b2fe4f6'
p288
aI01
aI01
aS'6309116c-f7c0-11e3-9bf9-5404a6372add'
p289
aa(lp290
L7000000000000000000000065560560277L
aL7000000000000000000000065560760277L
aS'94f032fe-fbcc-11e3-8cf7-ccd29b2fe4f6'
p291
aI01
aI01
aS'643555fa-f7c0-11e3-be64-5404a6372add'
p292
aa(lp293
L7000000000000000000000065560760277L
aL7000000000000000000000065560960277L
aS'94f05d6a-fbcc-11e3-8cf7-ccd29b2fe4f6'
p294
aI01
aI01
aS'5f071938-f7c0-11e3-ab3a-5404a6372add'
p295
aa(lp296
L7000000000000000000000065560960277L
aL7000000000000000000000065561160277L
aS'94f06f1c-fbcc-11e3-8cf7-ccd29b2fe4f6'
p297
aI01
aI01
aS'39db6900-f7ef-11e3-b031-a3b0e3825347'
p298
aa(lp299
L7000000000000000000000065561160277L
aL7000000000000000000000065561360277L
aS'94f07ec6-fbcc-11e3-8cf7-ccd29b2fe4f6'
p300
aI01
aI01
aS'2a3cb260-f7ef-11e3-b031-37ac895e792a'
p301
aa(lp302
L7000000000000000000000065561360277L
aL7000000000000000000000065561560277L
aS'94f08eb6-fbcc-11e3-8cf7-ccd29b2fe4f6'
p303
aI01
aI01
aS'628c92cc-f7c0-11e3-a05e-5404a6372add'
p304
aa(lp305
L7000000000000000000000065561560277L
aL7000000000000000000000065561760277L
aS'94f0e50a-fbcc-11e3-8cf7-ccd29b2fe4f6'
p306
aI01
aI01
aS'5df74a4a-f7c0-11e3-94c7-5404a6372add'
p307
aa(lp308
L7000000000000000000000065561760277L
aL7000000000000000000000065561960277L
aS'94f0f91e-fbcc-11e3-8cf7-ccd29b2fe4f6'
p309
aI01
aI01
aS'663a5cf6-f7c0-11e3-8e94-5404a6372add'
p310
aa(lp311
L7000000000000000000000065561960277L
aL7000000000000000000000065562160277L
aS'94f105bc-fbcc-11e3-8cf7-ccd29b2fe4f6'
p312
aI01
aI01
aS'5dc4b5fc-f7e9-11e3-ab38-000c29e250a1'
p313
aa(lp314
L7000000000000000000000065562160277L
aL7000000000000000000000065562360277L
aS'94f1111a-fbcc-11e3-8cf7-ccd29b2fe4f6'
p315
aI01
aI01
aS'63b15f48-f7c0-11e3-a0b3-5404a6372add'
p316
aa(lp317
L7000000000000000000000065562360277L
aL7000000000000000000000065562560277L
aS'94f11c96-fbcc-11e3-8cf7-ccd29b2fe4f6'
p318
aI01
aI01
aS'64b23c28-f7c0-11e3-8272-5404a6372add'
p319
aa(lp320
L7000000000000000000000065562560277L
aL7000000000000000000000065562760277L
aS'94f127d6-fbcc-11e3-8cf7-ccd29b2fe4f6'
p321
aI01
aI01
aS'5f0eea22-f7e9-11e3-8475-000c29e250a1'
p322
aa(lp323
L7000000000000000000000065562760277L
aL7000000000000000000000065562960277L
aS'94f136ae-fbcc-11e3-8cf7-ccd29b2fe4f6'
p324
aI01
aI01
aS'60cf8398-f7ef-11e3-b031-9be104d90b2b'
p325
aa(lp326
L7000000000000000000000065562960277L
aL7000000000000000000000065563160277L
aS'94f1439c-fbcc-11e3-8cf7-ccd29b2fe4f6'
p327
aI01
aI01
aS'5fd14654-f7c0-11e3-bd92-5404a6372add'
p328
aa(lp329
L7000000000000000000000065563160277L
aL7000000000000000000000065563360277L
aS'94f17308-fbcc-11e3-8cf7-ccd29b2fe4f6'
p330
aI01
aI01
aS'2f85c9de-f7c0-11e3-90f6-001cc0bffc9f'
p331
aa(lp332
L7000000000000000000000065563360277L
aL7000000000000000000000065563560277L
aS'94f18956-fbcc-11e3-8cf7-ccd29b2fe4f6'
p333
aI01
aI01
aS'60db2ab4-f7e9-11e3-9436-000c29e250a1'
p334
aa(lp335
L7000000000000000000000065563560277L
aL7000000000000000000000065563760277L
aS'94f1bfde-fbcc-11e3-8cf7-ccd29b2fe4f6'
p336
aI01
aI01
aS'6164d760-f7c0-11e3-bdf0-5404a6372add'
p337
aa(lp338
L7000000000000000000000065563760277L
aL7000000000000000000000065563960277L
aS'94f1ce5c-fbcc-11e3-8cf7-ccd29b2fe4f6'
p339
aI01
aI01
aS'4870730e-f7c0-11e3-8173-00e053135587'
p340
aa(lp341
L7000000000000000000000065563960277L
aL7000000000000000000000065564160277L
aS'94f1d94c-fbcc-11e3-8cf7-ccd29b2fe4f6'
p342
aI01
aI01
aS'3150c5a2-f7c0-11e3-b225-001cc0bffc9f'
p343
aa(lp344
L7000000000000000000000065564160277L
aL7000000000000000000000065564360277L
aS'94f1e39c-fbcc-11e3-8cf7-ccd29b2fe4f6'
p345
aI01
aI01
aS'65285926-f7c0-11e3-91f4-5404a6372add'
p346
aa(lp347
L7000000000000000000000065564360277L
aL7000000000000000000000065564560277L
aS'94f1ecfc-fbcc-11e3-8cf7-ccd29b2fe4f6'
p348
aI01
aI01
aS'60fc5d3e-f7c0-11e3-bcc6-5404a6372add'
p349
aa(lp350
L7000000000000000000000065564560277L
aL7000000000000000000000065564760277L
aS'94f1f648-fbcc-11e3-8cf7-ccd29b2fe4f6'
p351
aI01
aI01
aS'6059fa9e-f7c0-11e3-8c3a-5404a6372add'
p352
aa(lp353
L7000000000000000000000065564760277L
aL7000000000000000000000065564960277L
aS'94f1ff76-fbcc-11e3-8cf7-ccd29b2fe4f6'
p354
aI01
aI01
aS'60037132-f7e9-11e3-b323-000c29e250a1'
p355
aa(lp356
L7000000000000000000000065564960277L
aL7000000000000000000000065565160277L
aS'94f2089a-fbcc-11e3-8cf7-ccd29b2fe4f6'
p357
aI01
aI01
aS'81ac6054-f7ef-11e3-b031-15fb80904113'
p358
aa(lp359
L7000000000000000000000065565160277L
aL7000000000000000000000065565360277L
aS'94f211dc-fbcc-11e3-8cf7-ccd29b2fe4f6'
p360
aI01
aI01
aS'64e24560-f7ef-11e3-b031-6328b648429f'
p361
aa(lp362
L7000000000000000000000065565360277L
aL7000000000000000000000065565560277L
aS'94f21ac4-fbcc-11e3-8cf7-ccd29b2fe4f6'
p363
aI01
aI01
aS'71b4e054-f7ef-11e3-b031-1150fe97b6a5'
p364
aa(lp365
L7000000000000000000000065565560277L
aL7000000000000000000000065565760277L
aS'94f223e8-fbcc-11e3-8cf7-ccd29b2fe4f6'
p366
aI01
aI01
aS'5d9647a2-f7ef-11e3-b031-c7d12f351c70'
p367
aa(lp368
L7000000000000000000000065565760277L
aL7000000000000000000000065565960277L
aS'94f22cda-fbcc-11e3-8cf7-ccd29b2fe4f6'
p369
aI01
aI01
aS'74e81f02-f7ef-11e3-b031-57b3b5f7965f'
p370
aa(lp371
L7000000000000000000000065565960277L
aL7000000000000000000000065566160277L
aS'94f235f4-fbcc-11e3-8cf7-ccd29b2fe4f6'
p372
aI01
aI01
aS'5d9647a2-f7ef-11e3-b031-c7d12f351c70'
p373
aa(lp374
L7000000000000000000000065566160277L
aL7000000000000000000000065566360277L
aS'94f23efa-fbcc-11e3-8cf7-ccd29b2fe4f6'
p375
aI01
aI01
aS'6059fa9e-f7c0-11e3-8c3a-5404a6372add'
p376
aa(lp377
L7000000000000000000000065566360277L
aL7000000000000000000000065566560277L
aS'94f247ec-fbcc-11e3-8cf7-ccd29b2fe4f6'
p378
aI01
aI01
aS'74e81f02-f7ef-11e3-b031-57b3b5f7965f'
p379
aa(lp380
L7000000000000000000000065566560277L
aL7000000000000000000000065566760277L
aS'94f2511a-fbcc-11e3-8cf7-ccd29b2fe4f6'
p381
aI01
aI01
aS'64e24560-f7ef-11e3-b031-6328b648429f'
p382
aa(lp383
L7000000000000000000000065566760277L
aL7000000000000000000000065566960277L
aS'94f25a70-fbcc-11e3-8cf7-ccd29b2fe4f6'
p384
aI01
aI01
aS'0409a7bc-f7ed-11e3-8c97-bcaec562e169'
p385
aa(lp386
L7000000000000000000000065566960277L
aL7000000000000000000000065567160277L
aS'94f2634e-fbcc-11e3-8cf7-ccd29b2fe4f6'
p387
aI01
aI01
aS'81ac6054-f7ef-11e3-b031-15fb80904113'
p388
aa(lp389
L7000000000000000000000065567160277L
aL7000000000000000000000065567360277L
aS'94f26c7c-fbcc-11e3-8cf7-ccd29b2fe4f6'
p390
aI01
aI01
aS'39db6900-f7ef-11e3-b031-a3b0e3825347'
p391
aa(lp392
L7000000000000000000000065567360277L
aL7000000000000000000000065567560277L
aS'94f28f5e-fbcc-11e3-8cf7-ccd29b2fe4f6'
p393
aI01
aI01
aS'64e24560-f7ef-11e3-b031-6328b648429f'
p394
aa(lp395
L7000000000000000000000065567560277L
aL7000000000000000000000065567760277L
aS'94f2a188-fbcc-11e3-8cf7-ccd29b2fe4f6'
p396
aI01
aI01
aS'74e81f02-f7ef-11e3-b031-57b3b5f7965f'
p397
aa(lp398
L7000000000000000000000065567760277L
aL7000000000000000000000065567960277L
aS'94f2b9ac-fbcc-11e3-8cf7-ccd29b2fe4f6'
p399
aI01
aI01
aS'4870730e-f7c0-11e3-8173-00e053135587'
p400
aa(lp401
L7000000000000000000000065567960277L
aL7000000000000000000000065568160277L
aS'94f2cb04-fbcc-11e3-8cf7-ccd29b2fe4f6'
p402
aI01
aI01
aS'491601e8-f7c0-11e3-9652-00e053135587'
p403
aa(lp404
L7000000000000000000000065568160277L
aL7000000000000000000000065568360277L
aS'94f2d842-fbcc-11e3-8cf7-ccd29b2fe4f6'
p405
aI01
aI01
aS'5fd14654-f7c0-11e3-bd92-5404a6372add'
p406
aa(lp407
L7000000000000000000000065568360277L
aL7000000000000000000000065568560277L
aS'94f36b2c-fbcc-11e3-8cf7-ccd29b2fe4f6'
p408
aI01
aI01
aS'65bcb5b2-f7c0-11e3-a574-5404a6372add'
p409
aa(lp410
L7000000000000000000000065568560277L
aL7000000000000000000000065568760277L
aS'94f39d40-fbcc-11e3-8cf7-ccd29b2fe4f6'
p411
aI01
aI01
aS'66d09644-f7c0-11e3-9beb-5404a6372add'
p412
aa(lp413
L7000000000000000000000065568760277L
aL7000000000000000000000065568960277L
aS'94f3c40a-fbcc-11e3-8cf7-ccd29b2fe4f6'
p414
aI01
aI01
aS'60cf8398-f7ef-11e3-b031-9be104d90b2b'
p415
aa(lp416
L7000000000000000000000065568960277L
aL7000000000000000000000065569160277L
aS'94f3d4f4-fbcc-11e3-8cf7-ccd29b2fe4f6'
p417
aI01
aI01
aS'3150c5a2-f7c0-11e3-b225-001cc0bffc9f'
p418
aa(lp419
L7000000000000000000000065569160277L
aL7000000000000000000000065569360277L
aS'94f3e3fe-fbcc-11e3-8cf7-ccd29b2fe4f6'
p420
aI01
aI01
aS'60db2ab4-f7e9-11e3-9436-000c29e250a1'
p421
aa(lp422
L7000000000000000000000065569360277L
aL7000000000000000000000065569560277L
aS'94f3f1e6-fbcc-11e3-8cf7-ccd29b2fe4f6'
p423
aI01
aI00
aNaa(lp424
L7000000000000000000000065569560277L
aL7000000000000000000000065569760277L
aS'94f3fe52-fbcc-11e3-8cf7-ccd29b2fe4f6'
p425
aI01
aI00
aNaa(lp426
L7000000000000000000000065569760277L
aL7000000000000000000000065569960277L
aS'94f40b40-fbcc-11e3-8cf7-ccd29b2fe4f6'
p427
aI01
aI01
aS'2f85c9de-f7c0-11e3-90f6-001cc0bffc9f'
p428
aa(lp429
L7000000000000000000000065569960277L
aL7000000000000000000000065570160277L
aS'94f41a36-fbcc-11e3-8cf7-ccd29b2fe4f6'
p430
aI01
aI01
aS'74e81f02-f7ef-11e3-b031-57b3b5f7965f'
p431
aa(lp432
L7000000000000000000000065570160277L
aL7000000000000000000000065570360277L
aS'94f429e0-fbcc-11e3-8cf7-ccd29b2fe4f6'
p433
aI01
aI00
aNaa(lp434
L7000000000000000000000065570360277L
aL7000000000000000000000065570560277L
aS'94f4391c-fbcc-11e3-8cf7-ccd29b2fe4f6'
p435
aI01
aI00
aNaa(lp436
L7000000000000000000000065570560277L
aL7000000000000000000000065570760277L
aS'94f448a8-fbcc-11e3-8cf7-ccd29b2fe4f6'
p437
aI01
aI00
aNaa(lp438
L7000000000000000000000065570760277L
aL7000000000000000000000065570960277L
aS'94f4580c-fbcc-11e3-8cf7-ccd29b2fe4f6'
p439
aI01
aI00
aNaa(lp440
L7000000000000000000000065570960277L
aL7000000000000000000000065571160277L
aS'94f46734-fbcc-11e3-8cf7-ccd29b2fe4f6'
p441
aI01
aI00
aNaa(lp442
L7000000000000000000000065571160277L
aL7000000000000000000000065571360277L
aS'94f4780a-fbcc-11e3-8cf7-ccd29b2fe4f6'
p443
aI01
aI00
aNaa(lp444
L7000000000000000000000065571360277L
aL7000000000000000000000065571560277L
aS'94f484b2-fbcc-11e3-8cf7-ccd29b2fe4f6'
p445
aI01
aI00
aNaa(lp446
L7000000000000000000000065571560277L
aL7000000000000000000000065571760277L
aS'94f48fde-fbcc-11e3-8cf7-ccd29b2fe4f6'
p447
aI01
aI01
aS'64b23c28-f7c0-11e3-8272-5404a6372add'
p448
aa(lp449
L7000000000000000000000065571760277L
aL7000000000000000000000065571960277L
aS'94f49dbc-fbcc-11e3-8cf7-ccd29b2fe4f6'
p450
aI01
aI01
aS'6164d760-f7c0-11e3-bdf0-5404a6372add'
p451
aa(lp452
L7000000000000000000000065571960277L
aL7000000000000000000000065572160277L
aS'94f4f230-fbcc-11e3-8cf7-ccd29b2fe4f6'
p453
aI01
aI01
aS'0409a7bc-f7ed-11e3-8c97-bcaec562e169'
p454
aa(lp455
L7000000000000000000000065572160277L
aL7000000000000000000000065572360277L
aS'94f500a4-fbcc-11e3-8cf7-ccd29b2fe4f6'
p456
aI01
aI01
aS'663a5cf6-f7c0-11e3-8e94-5404a6372add'
p457
aa(lp458
L7000000000000000000000065572360277L
aL7000000000000000000000065572560277L
aS'94f50cf2-fbcc-11e3-8cf7-ccd29b2fe4f6'
p459
aI01
aI00
aNaa(lp460
L7000000000000000000000065572560277L
aL7000000000000000000000065572760277L
aS'94f51814-fbcc-11e3-8cf7-ccd29b2fe4f6'
p461
aI01
aI00
aNaa(lp462
L7000000000000000000000065572760277L
aL7000000000000000000000065572960277L
aS'94f52296-fbcc-11e3-8cf7-ccd29b2fe4f6'
p463
aI01
aI00
aNaa(lp464
L7000000000000000000000065572960277L
aL7000000000000000000000065573160277L
aS'94f52cc8-fbcc-11e3-8cf7-ccd29b2fe4f6'
p465
aI01
aI00
aNaa(lp466
L7000000000000000000000065573160277L
aL7000000000000000000000065573360277L
aS'94f537ae-fbcc-11e3-8cf7-ccd29b2fe4f6'
p467
aI01
aI00
aNaa(lp468
L7000000000000000000000065573360277L
aL7000000000000000000000065573560277L
aS'94f5424e-fbcc-11e3-8cf7-ccd29b2fe4f6'
p469
aI01
aI00
aNaa(lp470
L7000000000000000000000065573560277L
aL7000000000000000000000065573760277L
aS'94f54c80-fbcc-11e3-8cf7-ccd29b2fe4f6'
p471
aI01
aI00
aNaa(lp472
L7000000000000000000000065573760277L
aL7000000000000000000000065573960277L
aS'94f55702-fbcc-11e3-8cf7-ccd29b2fe4f6'
p473
aI01
aI00
aNaa(lp474
L7000000000000000000000065573960277L
aL7000000000000000000000065574160277L
aS'94f561a2-fbcc-11e3-8cf7-ccd29b2fe4f6'
p475
aI01
aI00
aNaa(lp476
L7000000000000000000000065574160277L
aL7000000000000000000000065574360277L
aS'94f56bde-fbcc-11e3-8cf7-ccd29b2fe4f6'
p477
aI01
aI00
aNaa(lp478
L7000000000000000000000065574360277L
aL7000000000000000000000065574560277L
aS'94f575de-fbcc-11e3-8cf7-ccd29b2fe4f6'
p479
aI01
aI00
aNaa(lp480
L7000000000000000000000065574560277L
aL7000000000000000000000065574760277L
aS'94f5807e-fbcc-11e3-8cf7-ccd29b2fe4f6'
p481
aI01
aI00
aNaa(lp482
L7000000000000000000000065574760277L
aL7000000000000000000000065574960277L
aS'94f58aec-fbcc-11e3-8cf7-ccd29b2fe4f6'
p483
aI01
aI00
aNaa(lp484
L7000000000000000000000065574960277L
aL7000000000000000000000065575160277L
aS'94f594f6-fbcc-11e3-8cf7-ccd29b2fe4f6'
p485
aI01
aI00
aNaa(lp486
L7000000000000000000000065575160277L
aL7000000000000000000000065575360277L
aS'94f59ef6-fbcc-11e3-8cf7-ccd29b2fe4f6'
p487
aI01
aI00
aNaa(lp488
L7000000000000000000000065575360277L
aL7000000000000000000000065575560277L
aS'94f5a95a-fbcc-11e3-8cf7-ccd29b2fe4f6'
p489
aI01
aI00
aNaa(lp490
L7000000000000000000000065575560277L
aL7000000000000000000000065575760277L
aS'94f5b3dc-fbcc-11e3-8cf7-ccd29b2fe4f6'
p491
aI01
aI00
aNaa(lp492
L7000000000000000000000065575760277L
aL7000000000000000000000065575960277L
aS'94f5bde6-fbcc-11e3-8cf7-ccd29b2fe4f6'
p493
aI01
aI00
aNaa(lp494
L7000000000000000000000065575960277L
aL7000000000000000000000065576160277L
aS'94f5c818-fbcc-11e3-8cf7-ccd29b2fe4f6'
p495
aI01
aI00
aNaa(lp496
L7000000000000000000000065576160277L
aL7000000000000000000000065576360277L
aS'94f5d3f8-fbcc-11e3-8cf7-ccd29b2fe4f6'
p497
aI01
aI00
aNaa(lp498
L7000000000000000000000065576360277L
aL7000000000000000000000065576560277L
aS'94f5de5c-fbcc-11e3-8cf7-ccd29b2fe4f6'
p499
aI01
aI00
aNaa(lp500
L7000000000000000000000065576560277L
aL7000000000000000000000065576760277L
aS'94f5e852-fbcc-11e3-8cf7-ccd29b2fe4f6'
p501
aI01
aI00
aNaa(lp502
L7000000000000000000000065576760277L
aL7000000000000000000000065576960277L
aS'94f5f338-fbcc-11e3-8cf7-ccd29b2fe4f6'
p503
aI01
aI01
aS'65bcb5b2-f7c0-11e3-a574-5404a6372add'
p504
aa(lp505
L7000000000000000000000065576960277L
aL7000000000000000000000065577160277L
aS'94f5fe1e-fbcc-11e3-8cf7-ccd29b2fe4f6'
p506
aI01
aI01
aS'61f40dd6-f7c0-11e3-b620-5404a6372add'
p507
aa(lp508
L7000000000000000000000065577160277L
aL7000000000000000000000065577360277L
aS'94f60896-fbcc-11e3-8cf7-ccd29b2fe4f6'
p509
aI01
aI01
aS'63b15f48-f7c0-11e3-a0b3-5404a6372add'
p510
aa(lp511
L7000000000000000000000065577360277L
aL7000000000000000000000065577560277L
aS'94f612b4-fbcc-11e3-8cf7-ccd29b2fe4f6'
p512
aI01
aI01
aS'462c5856-f7c0-11e3-935f-00e053135587'
p513
aa(lp514
L7000000000000000000000065577560277L
aL7000000000000000000000065577760277L
aS'94f64e0a-fbcc-11e3-8cf7-ccd29b2fe4f6'
p515
aI01
aI01
aS'628c92cc-f7c0-11e3-a05e-5404a6372add'
p516
aa(lp517
L7000000000000000000000065577760277L
aL7000000000000000000000065577960277L
aS'94f68140-fbcc-11e3-8cf7-ccd29b2fe4f6'
p518
aI01
aI01
aS'5f0eea22-f7e9-11e3-8475-000c29e250a1'
p519
aa(lp520
L7000000000000000000000065577960277L
aL7000000000000000000000065578160277L
aS'94f69f40-fbcc-11e3-8cf7-ccd29b2fe4f6'
p521
aI01
aI01
aS'65285926-f7c0-11e3-91f4-5404a6372add'
p522
aa(lp523
L7000000000000000000000065578160277L
aL7000000000000000000000065578360277L
aS'94f6b746-fbcc-11e3-8cf7-ccd29b2fe4f6'
p524
aI01
aI01
aS'5df74a4a-f7c0-11e3-94c7-5404a6372add'
p525
aa(lp526
L7000000000000000000000065578360277L
aL7000000000000000000000065578560277L
aS'94f6ca1a-fbcc-11e3-8cf7-ccd29b2fe4f6'
p527
aI01
aI01
aS'60037132-f7e9-11e3-b323-000c29e250a1'
p528
aa(lp529
L7000000000000000000000065578560277L
aL7000000000000000000000065578760277L
aS'94f6d776-fbcc-11e3-8cf7-ccd29b2fe4f6'
p530
aI01
aI01
aS'66d09644-f7c0-11e3-9beb-5404a6372add'
p531
aa(lp532
L7000000000000000000000065578760277L
aL7000000000000000000000065578960277L
aS'94f71b00-fbcc-11e3-8cf7-ccd29b2fe4f6'
p533
aI01
aI01
aS'49a8a4a8-f7c0-11e3-b4e4-00e053135587'
p534
aa(lp535
L7000000000000000000000065578960277L
aL7000000000000000000000065579160277L
aS'94f77a96-fbcc-11e3-8cf7-ccd29b2fe4f6'
p536
aI01
aI01
aS'5f071938-f7c0-11e3-ab3a-5404a6372add'
p537
aa(lp538
L7000000000000000000000065579160277L
aL7000000000000000000000065579360277L
aS'94f7a246-fbcc-11e3-8cf7-ccd29b2fe4f6'
p539
aI01
aI01
aS'4870730e-f7c0-11e3-8173-00e053135587'
p540
aa(lp541
L7000000000000000000000065579360277L
aL7000000000000000000000065579560277L
aS'94f7b3c6-fbcc-11e3-8cf7-ccd29b2fe4f6'
p542
aI01
aI01
aS'6059fa9e-f7c0-11e3-8c3a-5404a6372add'
p543
aa(lp544
L7000000000000000000000065579560277L
aL7000000000000000000000065579760277L
aS'94f7c276-fbcc-11e3-8cf7-ccd29b2fe4f6'
p545
aI01
aI01
aS'5dc4b5fc-f7e9-11e3-ab38-000c29e250a1'
p546
aa(lp547
L7000000000000000000000065579760277L
aL7000000000000000000000065579960277L
aS'94f7f84a-fbcc-11e3-8cf7-ccd29b2fe4f6'
p548
aI01
aI01
aS'47579420-f7c0-11e3-be54-00e053135587'
p549
aa(lp550
L7000000000000000000000065579960277L
aL7000000000000000000000065580160277L
aS'94f80d44-fbcc-11e3-8cf7-ccd29b2fe4f6'
p551
aI01
aI01
aS'47cc1bec-f7c0-11e3-9f29-00e053135587'
p552
aa(lp553
L7000000000000000000000065580160277L
aL7000000000000000000000065580360277L
aS'94f81d98-fbcc-11e3-8cf7-ccd29b2fe4f6'
p554
aI01
aI01
aS'6309116c-f7c0-11e3-9bf9-5404a6372add'
p555
aa(lp556
L7000000000000000000000065580360277L
aL7000000000000000000000065580560277L
aS'94f82d6a-fbcc-11e3-8cf7-ccd29b2fe4f6'
p557
aI01
aI01
aS'60db2ab4-f7e9-11e3-9436-000c29e250a1'
p558
aa(lp559
L7000000000000000000000065580560277L
aL7000000000000000000000065580760277L
aS'94f83cba-fbcc-11e3-8cf7-ccd29b2fe4f6'
p560
aI01
aI01
aS'491601e8-f7c0-11e3-9652-00e053135587'
p561
aa(lp562
L7000000000000000000000065580760277L
aL7000000000000000000000065580960277L
aS'94f84c64-fbcc-11e3-8cf7-ccd29b2fe4f6'
p563
aI01
aI01
aS'439a1ff6-f7c0-11e3-bb9f-00e053135587'
p564
aa(lp565
L7000000000000000000000065580960277L
aL7000000000000000000000065581160277L
aS'94f85ba0-fbcc-11e3-8cf7-ccd29b2fe4f6'
p566
aI01
aI01
aS'4ad4d022-f7c0-11e3-be8c-00e053135587'
p567
aa(lp568
L7000000000000000000000065581160277L
aL7000000000000000000000065581360277L
aS'94f86ab4-fbcc-11e3-8cf7-ccd29b2fe4f6'
p569
aI01
aI01
aS'643555fa-f7c0-11e3-be64-5404a6372add'
p570
aa(lp571
L7000000000000000000000065581360277L
aL7000000000000000000000065581560277L
aS'94f8b5d2-fbcc-11e3-8cf7-ccd29b2fe4f6'
p572
aI01
aI01
aS'5fd14654-f7c0-11e3-bd92-5404a6372add'
p573
aa(lp574
L7000000000000000000000065581560277L
aL7000000000000000000000065581760277L
aS'94f8c5fe-fbcc-11e3-8cf7-ccd29b2fe4f6'
p575
aI01
aI01
aS'60fc5d3e-f7c0-11e3-bcc6-5404a6372add'
p576
aa(lp577
L7000000000000000000000065581760277L
aL7000000000000000000000065581960277L
aS'94f8ee58-fbcc-11e3-8cf7-ccd29b2fe4f6'
p578
aI01
aI01
aS'71b4e054-f7ef-11e3-b031-1150fe97b6a5'
p579
aa(lp580
L7000000000000000000000065581960277L
aL7000000000000000000000065582160277L
aS'94f8ffba-fbcc-11e3-8cf7-ccd29b2fe4f6'
p581
aI01
aI01
aS'81ac6054-f7ef-11e3-b031-15fb80904113'
p582
aa(lp583
L7000000000000000000000065582160277L
aL7000000000000000000000065582360277L
aS'94f90c30-fbcc-11e3-8cf7-ccd29b2fe4f6'
p584
aI01
aI01
aS'39db6900-f7ef-11e3-b031-a3b0e3825347'
p585
aa(lp586
L7000000000000000000000065582360277L
aL7000000000000000000000065582560277L
aS'94f9187e-fbcc-11e3-8cf7-ccd29b2fe4f6'
p587
aI01
aI01
aS'2a3cb260-f7ef-11e3-b031-37ac895e792a'
p588
aa(lp589
L7000000000000000000000065582560277L
aL7000000000000000000000065582760277L
aS'94f92350-fbcc-11e3-8cf7-ccd29b2fe4f6'
p590
aI01
aI01
aS'64e24560-f7ef-11e3-b031-6328b648429f'
p591
aa(lp592
L7000000000000000000000065582760277L
aL7000000000000000000000065582960277L
aS'94f92d8c-fbcc-11e3-8cf7-ccd29b2fe4f6'
p593
aI01
aI01
aS'5d9647a2-f7ef-11e3-b031-c7d12f351c70'
p594
aa(lp595
L7000000000000000000000065582960277L
aL7000000000000000000000065583160277L
aS'94f938b8-fbcc-11e3-8cf7-ccd29b2fe4f6'
p596
aI01
aI01
aS'663a5cf6-f7c0-11e3-8e94-5404a6372add'
p597
aa(lp598
L7000000000000000000000065583160277L
aL7000000000000000000000065583360277L
aS'94f94344-fbcc-11e3-8cf7-ccd29b2fe4f6'
p599
aI01
aI01
aS'64b23c28-f7c0-11e3-8272-5404a6372add'
p600
aa(lp601
L7000000000000000000000065583360277L
aL7000000000000000000000065583560277L
aS'94f95032-fbcc-11e3-8cf7-ccd29b2fe4f6'
p602
aI01
aI01
aS'3150c5a2-f7c0-11e3-b225-001cc0bffc9f'
p603
aa(lp604
L7000000000000000000000065583560277L
aL7000000000000000000000065583760277L
aS'94f95c30-fbcc-11e3-8cf7-ccd29b2fe4f6'
p605
aI01
aI01
aS'2f85c9de-f7c0-11e3-90f6-001cc0bffc9f'
p606
aa(lp607
L7000000000000000000000065583760277L
aL7000000000000000000000065583960277L
aS'94f967a2-fbcc-11e3-8cf7-ccd29b2fe4f6'
p608
aI01
aI01
aS'0409a7bc-f7ed-11e3-8c97-bcaec562e169'
p609
aa(lp610
L7000000000000000000000065583960277L
aL7000000000000000000000065584160277L
aS'94f97224-fbcc-11e3-8cf7-ccd29b2fe4f6'
p611
aI01
aI01
aS'74e81f02-f7ef-11e3-b031-57b3b5f7965f'
p612
aa(lp613
L7000000000000000000000065584160277L
aL7000000000000000000000065584360277L
aS'94f97c74-fbcc-11e3-8cf7-ccd29b2fe4f6'
p614
aI01
aI01
aS'81ac6054-f7ef-11e3-b031-15fb80904113'
p615
aa(lp616
L7000000000000000000000065584360277L
aL7000000000000000000000065584560277L
aS'94f987aa-fbcc-11e3-8cf7-ccd29b2fe4f6'
p617
aI01
aI01
aS'71b4e054-f7ef-11e3-b031-1150fe97b6a5'
p618
aa(lp619
L7000000000000000000000065584560277L
aL7000000000000000000000065584760277L
aS'94f99268-fbcc-11e3-8cf7-ccd29b2fe4f6'
p620
aI01
aI01
aS'5d9647a2-f7ef-11e3-b031-c7d12f351c70'
p621
aa(lp622
L7000000000000000000000065584760277L
aL7000000000000000000000065584960277L
aS'94f99cea-fbcc-11e3-8cf7-ccd29b2fe4f6'
p623
aI01
aI01
aS'60cf8398-f7ef-11e3-b031-9be104d90b2b'
p624
aa(lp625
L7000000000000000000000065584960277L
aL7000000000000000000000065585160277L
aS'94f9a7d0-fbcc-11e3-8cf7-ccd29b2fe4f6'
p626
aI01
aI01
aS'64e24560-f7ef-11e3-b031-6328b648429f'
p627
aa(lp628
L7000000000000000000000065585160277L
aL7000000000000000000000065585360277L
aS'94f9b2b6-fbcc-11e3-8cf7-ccd29b2fe4f6'
p629
aI01
aI01
aS'39db6900-f7ef-11e3-b031-a3b0e3825347'
p630
aa(lp631
L7000000000000000000000065585360277L
aL7000000000000000000000065585560277L
aS'94f9bcd4-fbcc-11e3-8cf7-ccd29b2fe4f6'
p632
aI01
aI01
aS'6164d760-f7c0-11e3-bdf0-5404a6372add'
p633
aa(lp634
L7000000000000000000000065585560277L
aL7000000000000000000000065585760277L
aS'94f9c6b6-fbcc-11e3-8cf7-ccd29b2fe4f6'
p635
aI01
aI01
aS'2a3cb260-f7ef-11e3-b031-37ac895e792a'
p636
aa(lp637
L7000000000000000000000065585760277L
aL7000000000000000000000065585960277L
aS'94f9d1b0-fbcc-11e3-8cf7-ccd29b2fe4f6'
p638
aI01
aI01
aS'61f40dd6-f7c0-11e3-b620-5404a6372add'
p639
aa(lp640
L7000000000000000000000065585960277L
aL7000000000000000000000065586160277L
aS'94f9dc78-fbcc-11e3-8cf7-ccd29b2fe4f6'
p641
aI01
aI01
aS'643555fa-f7c0-11e3-be64-5404a6372add'
p642
aa(lp643
L7000000000000000000000065586160277L
aL7000000000000000000000065586360277L
aS'94f9e6dc-fbcc-11e3-8cf7-ccd29b2fe4f6'
p644
aI01
aI01
aS'5f071938-f7c0-11e3-ab3a-5404a6372add'
p645
aa(lp646
L7000000000000000000000065586360277L
aL7000000000000000000000065586560277L
aS'94f9f0b4-fbcc-11e3-8cf7-ccd29b2fe4f6'
p647
aI01
aI01
aS'6059fa9e-f7c0-11e3-8c3a-5404a6372add'
p648
aa(lp649
L7000000000000000000000065586560277L
aL7000000000000000000000065586760277L
aS'94f9fb5e-fbcc-11e3-8cf7-ccd29b2fe4f6'
p650
aI01
aI01
aS'65bcb5b2-f7c0-11e3-a574-5404a6372add'
p651
aa(lp652
L7000000000000000000000065586760277L
aL7000000000000000000000065586960277L
aS'94fa059a-fbcc-11e3-8cf7-ccd29b2fe4f6'
p653
aI01
aI01
aS'5dc4b5fc-f7e9-11e3-ab38-000c29e250a1'
p654
aa(lp655
L7000000000000000000000065586960277L
aL7000000000000000000000065587160277L
aS'94fa0fa4-fbcc-11e3-8cf7-ccd29b2fe4f6'
p656
aI01
aI01
aS'65285926-f7c0-11e3-91f4-5404a6372add'
p657
aa(lp658
L7000000000000000000000065587160277L
aL7000000000000000000000065587360277L
aS'94fa19f4-fbcc-11e3-8cf7-ccd29b2fe4f6'
p659
aI01
aI01
aS'66d09644-f7c0-11e3-9beb-5404a6372add'
p660
aa(lp661
L7000000000000000000000065587360277L
aL7000000000000000000000065587560277L
aS'94fa2502-fbcc-11e3-8cf7-ccd29b2fe4f6'
p662
aI01
aI01
aS'63b15f48-f7c0-11e3-a0b3-5404a6372add'
p663
aa(lp664
L7000000000000000000000065587560277L
aL7000000000000000000000065587760277L
aS'94fa2f20-fbcc-11e3-8cf7-ccd29b2fe4f6'
p665
aI01
aI01
aS'5fd14654-f7c0-11e3-bd92-5404a6372add'
p666
aa(lp667
L7000000000000000000000065587760277L
aL7000000000000000000000065587960277L
aS'94fa3916-fbcc-11e3-8cf7-ccd29b2fe4f6'
p668
aI01
aI01
aS'628c92cc-f7c0-11e3-a05e-5404a6372add'
p669
aa(lp670
L7000000000000000000000065587960277L
aL7000000000000000000000065588160277L
aS'94fa43b6-fbcc-11e3-8cf7-ccd29b2fe4f6'
p671
aI01
aI01
aS'5f0eea22-f7e9-11e3-8475-000c29e250a1'
p672
aa(lp673
L7000000000000000000000065588160277L
aL7000000000000000000000065588360277L
aS'94fa4ff0-fbcc-11e3-8cf7-ccd29b2fe4f6'
p674
aI01
aI01
aS'60db2ab4-f7e9-11e3-9436-000c29e250a1'
p675
aa(lp676
L7000000000000000000000065588360277L
aL7000000000000000000000065588560277L
aS'94fa5aae-fbcc-11e3-8cf7-ccd29b2fe4f6'
p677
aI01
aI01
aS'5df74a4a-f7c0-11e3-94c7-5404a6372add'
p678
aa(lp679
L7000000000000000000000065588560277L
aL7000000000000000000000065588760277L
aS'94fa64fe-fbcc-11e3-8cf7-ccd29b2fe4f6'
p680
aI01
aI01
aS'6309116c-f7c0-11e3-9bf9-5404a6372add'
p681
aa(lp682
L7000000000000000000000065588760277L
aL7000000000000000000000065588960277L
aS'94fa711a-fbcc-11e3-8cf7-ccd29b2fe4f6'
p683
aI01
aI01
aS'60fc5d3e-f7c0-11e3-bcc6-5404a6372add'
p684
aa(lp685
L7000000000000000000000065588960277L
aL7000000000000000000000065589160277L
aS'94fa7e30-fbcc-11e3-8cf7-ccd29b2fe4f6'
p686
aI01
aI01
aS'60037132-f7e9-11e3-b323-000c29e250a1'
p687
aa(lp688
L7000000000000000000000065589160277L
aL7000000000000000000000065589360277L
aS'94fa8948-fbcc-11e3-8cf7-ccd29b2fe4f6'
p689
aI01
aI01
aS'0409a7bc-f7ed-11e3-8c97-bcaec562e169'
p690
aa(lp691
L7000000000000000000000065589360277L
aL7000000000000000000000065589560277L
aS'94fa94b0-fbcc-11e3-8cf7-ccd29b2fe4f6'
p692
aI01
aI01
aS'663a5cf6-f7c0-11e3-8e94-5404a6372add'
p693
aa(lp694
L7000000000000000000000065589560277L
aL7000000000000000000000065589760277L
aS'94fa9f32-fbcc-11e3-8cf7-ccd29b2fe4f6'
p695
aI01
aI01
aS'6164d760-f7c0-11e3-bdf0-5404a6372add'
p696
aa(lp697
L7000000000000000000000065589760277L
aL7000000000000000000000065589960277L
aS'94faa91e-fbcc-11e3-8cf7-ccd29b2fe4f6'
p698
aI01
aI01
aS'64b23c28-f7c0-11e3-8272-5404a6372add'
p699
aa(lp700
L7000000000000000000000065589960277L
aL7000000000000000000000065590160277L
aS'94fab350-fbcc-11e3-8cf7-ccd29b2fe4f6'
p701
aI01
aI01
aS'2f85c9de-f7c0-11e3-90f6-001cc0bffc9f'
p702
aa(lp703
L7000000000000000000000065590160277L
aL7000000000000000000000065590360277L
aS'94faeb86-fbcc-11e3-8cf7-ccd29b2fe4f6'
p704
aI01
aI01
aS'3150c5a2-f7c0-11e3-b225-001cc0bffc9f'
p705
aa(lp706
L7000000000000000000000065590360277L
aL7000000000000000000000065590560277L
aS'94fb1048-fbcc-11e3-8cf7-ccd29b2fe4f6'
p707
aI01
aI01
aS'71b4e054-f7ef-11e3-b031-1150fe97b6a5'
p708
aa(lp709
L7000000000000000000000065590560277L
aL7000000000000000000000065590760277L
aS'94fb355a-fbcc-11e3-8cf7-ccd29b2fe4f6'
p710
aI01
aI01
aS'74e81f02-f7ef-11e3-b031-57b3b5f7965f'
p711
aa(lp712
L7000000000000000000000065590760277L
aL7000000000000000000000065590960277L
aS'94fb44e6-fbcc-11e3-8cf7-ccd29b2fe4f6'
p713
aI01
aI01
aS'64e24560-f7ef-11e3-b031-6328b648429f'
p714
aa(lp715
L7000000000000000000000065590960277L
aL7000000000000000000000065591160277L
aS'94fb5fd0-fbcc-11e3-8cf7-ccd29b2fe4f6'
p716
aI01
aI01
aS'5d9647a2-f7ef-11e3-b031-c7d12f351c70'
p717
aa(lp718
L7000000000000000000000065591160277L
aL7000000000000000000000065591360277L
aS'94fb6f02-fbcc-11e3-8cf7-ccd29b2fe4f6'
p719
aI01
aI01
aS'81ac6054-f7ef-11e3-b031-15fb80904113'
p720
aa(lp721
L7000000000000000000000065591360277L
aL7000000000000000000000065591560277L
aS'94fbafe4-fbcc-11e3-8cf7-ccd29b2fe4f6'
p722
aI01
aI01
aS'39db6900-f7ef-11e3-b031-a3b0e3825347'
p723
aa(lp724
L7000000000000000000000065591560277L
aL7000000000000000000000065591760277L
aS'94fc0f34-fbcc-11e3-8cf7-ccd29b2fe4f6'
p725
aI01
aI01
aS'60cf8398-f7ef-11e3-b031-9be104d90b2b'
p726
aa(lp727
L7000000000000000000000065591760277L
aL7000000000000000000000065591960277L
aS'94fc37d4-fbcc-11e3-8cf7-ccd29b2fe4f6'
p728
aI01
aI01
aS'2a3cb260-f7ef-11e3-b031-37ac895e792a'
p729
aa(lp730
L7000000000000000000000065591960277L
aL7000000000000000000000065592160277L
aS'94fc4a12-fbcc-11e3-8cf7-ccd29b2fe4f6'
p731
aI01
aI01
aS'0409a7bc-f7ed-11e3-8c97-bcaec562e169'
p732
aa(lp733
L7000000000000000000000065592160277L
aL7000000000000000000000065592360277L
aS'94fc5ca0-fbcc-11e3-8cf7-ccd29b2fe4f6'
p734
aI01
aI01
aS'643555fa-f7c0-11e3-be64-5404a6372add'
p735
aa(lp736
L7000000000000000000000065592360277L
aL7000000000000000000000065592560277L
aS'94fc82b6-fbcc-11e3-8cf7-ccd29b2fe4f6'
p737
aI01
aI01
aS'462c5856-f7c0-11e3-935f-00e053135587'
p738
aa(lp739
L7000000000000000000000065592560277L
aL7000000000000000000000065592760277L
aS'94fc95f8-fbcc-11e3-8cf7-ccd29b2fe4f6'
p740
aI01
aI01
aS'47cc1bec-f7c0-11e3-9f29-00e053135587'
p741
aa(lp742
L7000000000000000000000065592760277L
aL7000000000000000000000065592960277L
aS'94fca476-fbcc-11e3-8cf7-ccd29b2fe4f6'
p743
aI01
aI01
aS'491601e8-f7c0-11e3-9652-00e053135587'
p744
aa(lp745
L7000000000000000000000065592960277L
aL7000000000000000000000065593160277L
aS'94fcb3b2-fbcc-11e3-8cf7-ccd29b2fe4f6'
p746
aI01
aI01
aS'5f071938-f7c0-11e3-ab3a-5404a6372add'
p747
aa(lp748
L7000000000000000000000065593160277L
aL7000000000000000000000065593360277L
aS'94fcc302-fbcc-11e3-8cf7-ccd29b2fe4f6'
p749
aI01
aI01
aS'61f40dd6-f7c0-11e3-b620-5404a6372add'
p750
aa(lp751
L7000000000000000000000065593360277L
aL7000000000000000000000065593560277L
aS'94fcd248-fbcc-11e3-8cf7-ccd29b2fe4f6'
p752
aI01
aI01
aS'47579420-f7c0-11e3-be54-00e053135587'
p753
aa(lp754
L7000000000000000000000065593560277L
aL7000000000000000000000065593760277L
aS'94fce1de-fbcc-11e3-8cf7-ccd29b2fe4f6'
p755
aI01
aI01
aS'4ad4d022-f7c0-11e3-be8c-00e053135587'
p756
aa(lp757
L7000000000000000000000065593760277L
aL7000000000000000000000065593960277L
aS'94fcf052-fbcc-11e3-8cf7-ccd29b2fe4f6'
p758
aI01
aI01
aS'3150c5a2-f7c0-11e3-b225-001cc0bffc9f'
p759
aa(lp760
L7000000000000000000000065593960277L
aL7000000000000000000000065594160277L
aS'94fcff3e-fbcc-11e3-8cf7-ccd29b2fe4f6'
p761
aI01
aI01
aS'439a1ff6-f7c0-11e3-bb9f-00e053135587'
p762
aa(lp763
L7000000000000000000000065594160277L
aL7000000000000000000000065594360277L
aS'94fd4c6e-fbcc-11e3-8cf7-ccd29b2fe4f6'
p764
aI01
aI01
aS'4870730e-f7c0-11e3-8173-00e053135587'
p765
aa(lp766
L7000000000000000000000065594360277L
aL7000000000000000000000065594560277L
aS'94fd5f60-fbcc-11e3-8cf7-ccd29b2fe4f6'
p767
aI01
aI01
aS'2f85c9de-f7c0-11e3-90f6-001cc0bffc9f'
p768
aa(lp769
L7000000000000000000000065594560277L
aL7000000000000000000000065594760277L
aS'94fd6b9a-fbcc-11e3-8cf7-ccd29b2fe4f6'
p770
aI01
aI01
aS'49a8a4a8-f7c0-11e3-b4e4-00e053135587'
p771
aa(lp772
L7000000000000000000000065594760277L
aL7000000000000000000000065594960277L
aS'94fd76d0-fbcc-11e3-8cf7-ccd29b2fe4f6'
p773
aI01
aI01
aS'6059fa9e-f7c0-11e3-8c3a-5404a6372add'
p774
aa(lp775
L7000000000000000000000065594960277L
aL7000000000000000000000065595160277L
aS'94fd8292-fbcc-11e3-8cf7-ccd29b2fe4f6'
p776
aI01
aI01
aS'628c92cc-f7c0-11e3-a05e-5404a6372add'
p777
aa(lp778
L7000000000000000000000065595160277L
aL7000000000000000000000065595360277L
aS'94fd8d5a-fbcc-11e3-8cf7-ccd29b2fe4f6'
p779
aI01
aI01
aS'6309116c-f7c0-11e3-9bf9-5404a6372add'
p780
aa(lp781
L7000000000000000000000065595360277L
aL7000000000000000000000065595560277L
aS'94fd97e6-fbcc-11e3-8cf7-ccd29b2fe4f6'
p782
aI01
aI01
aS'5dc4b5fc-f7e9-11e3-ab38-000c29e250a1'
p783
aa(lp784
L7000000000000000000000065595560277L
aL7000000000000000000000065595760277L
aS'94fda31c-fbcc-11e3-8cf7-ccd29b2fe4f6'
p785
aI01
aI01
aS'60fc5d3e-f7c0-11e3-bcc6-5404a6372add'
p786
aa(lp787
L7000000000000000000000065595760277L
aL7000000000000000000000065595960277L
aS'94fdadc6-fbcc-11e3-8cf7-ccd29b2fe4f6'
p788
aI01
aI01
aS'5fd14654-f7c0-11e3-bd92-5404a6372add'
p789
aa(lp790
L7000000000000000000000065595960277L
aL7000000000000000000000065596160277L
aS'94fdb820-fbcc-11e3-8cf7-ccd29b2fe4f6'
p791
aI01
aI01
aS'60db2ab4-f7e9-11e3-9436-000c29e250a1'
p792
aa(lp793
L7000000000000000000000065596160277L
aL7000000000000000000000065596360277L
aS'94fdc22a-fbcc-11e3-8cf7-ccd29b2fe4f6'
p794
aI01
aI01
aS'65bcb5b2-f7c0-11e3-a574-5404a6372add'
p795
aa(lp796
L7000000000000000000000065596360277L
aL7000000000000000000000065596560277L
aS'94fdccf2-fbcc-11e3-8cf7-ccd29b2fe4f6'
p797
aI01
aI01
aS'65285926-f7c0-11e3-91f4-5404a6372add'
p798
aa(lp799
L7000000000000000000000065596560277L
aL7000000000000000000000065596760277L
aS'94fdd774-fbcc-11e3-8cf7-ccd29b2fe4f6'
p800
aI01
aI01
aS'63b15f48-f7c0-11e3-a0b3-5404a6372add'
p801
aa(lp802
L7000000000000000000000065596760277L
aL7000000000000000000000065596960277L
aS'94fdfdb2-fbcc-11e3-8cf7-ccd29b2fe4f6'
p803
aI01
aI01
aS'71b4e054-f7ef-11e3-b031-1150fe97b6a5'
p804
aa(lp805
L7000000000000000000000065596960277L
aL7000000000000000000000065597160277L
aS'94fe0c9e-fbcc-11e3-8cf7-ccd29b2fe4f6'
p806
aI01
aI01
aS'5f0eea22-f7e9-11e3-8475-000c29e250a1'
p807
aa(lp808
L7000000000000000000000065597160277L
aL7000000000000000000000065597360277L
aS'94fe1914-fbcc-11e3-8cf7-ccd29b2fe4f6'
p809
aI01
aI01
aS'74e81f02-f7ef-11e3-b031-57b3b5f7965f'
p810
aa(lp811
L7000000000000000000000065597360277L
aL7000000000000000000000065597560277L
aS'94fe2404-fbcc-11e3-8cf7-ccd29b2fe4f6'
p812
aI01
aI01
aS'5d9647a2-f7ef-11e3-b031-c7d12f351c70'
p813
aa(lp814
L7000000000000000000000065597560277L
aL7000000000000000000000065597760277L
aS'94fe2e9a-fbcc-11e3-8cf7-ccd29b2fe4f6'
p815
aI01
aI01
aS'81ac6054-f7ef-11e3-b031-15fb80904113'
p816
aa(lp817
L7000000000000000000000065597760277L
aL7000000000000000000000065597960277L
aS'94fe3958-fbcc-11e3-8cf7-ccd29b2fe4f6'
p818
aI01
aI01
aS'39db6900-f7ef-11e3-b031-a3b0e3825347'
p819
aa(lp820
L7000000000000000000000065597960277L
aL7000000000000000000000065598160277L
aS'94fe4448-fbcc-11e3-8cf7-ccd29b2fe4f6'
p821
aI01
aI01
aS'60cf8398-f7ef-11e3-b031-9be104d90b2b'
p822
aa(lp823
L7000000000000000000000065598160277L
aL7000000000000000000000065598360277L
aS'94fe4e66-fbcc-11e3-8cf7-ccd29b2fe4f6'
p824
aI01
aI01
aS'66d09644-f7c0-11e3-9beb-5404a6372add'
p825
aa(lp826
L7000000000000000000000065598360277L
aL7000000000000000000000065598560277L
aS'94fe5870-fbcc-11e3-8cf7-ccd29b2fe4f6'
p827
aI01
aI01
aS'2a3cb260-f7ef-11e3-b031-37ac895e792a'
p828
aa(lp829
L7000000000000000000000065598560277L
aL7000000000000000000000065598760277L
aS'94fe6306-fbcc-11e3-8cf7-ccd29b2fe4f6'
p830
aI01
aI01
aS'5df74a4a-f7c0-11e3-94c7-5404a6372add'
p831
aa(lp832
L7000000000000000000000065598760277L
aL7000000000000000000000065598960277L
aS'94fe6dec-fbcc-11e3-8cf7-ccd29b2fe4f6'
p833
aI01
aI01
aS'663a5cf6-f7c0-11e3-8e94-5404a6372add'
p834
aa(lp835
L7000000000000000000000065598960277L
aL7000000000000000000000065599160277L
aS'94fe7828-fbcc-11e3-8cf7-ccd29b2fe4f6'
p836
aI01
aI01
aS'64e24560-f7ef-11e3-b031-6328b648429f'
p837
aa(lp838
L7000000000000000000000065599160277L
aL7000000000000000000000065599360277L
aS'94fe8296-fbcc-11e3-8cf7-ccd29b2fe4f6'
p839
aI01
aI01
aS'60037132-f7e9-11e3-b323-000c29e250a1'
p840
aa(lp841
L7000000000000000000000065599360277L
aL7000000000000000000000065599560277L
aS'94fe8dc2-fbcc-11e3-8cf7-ccd29b2fe4f6'
p842
aI01
aI01
aS'6164d760-f7c0-11e3-bdf0-5404a6372add'
p843
aa(lp844
L7000000000000000000000065599560277L
aL7000000000000000000000065599760277L
aS'94fe9826-fbcc-11e3-8cf7-ccd29b2fe4f6'
p845
aI01
aI01
aS'0409a7bc-f7ed-11e3-8c97-bcaec562e169'
p846
aa(lp847
L7000000000000000000000065599760277L
aL7000000000000000000000065599960277L
aS'94fea208-fbcc-11e3-8cf7-ccd29b2fe4f6'
p848
aI01
aI01
aS'64b23c28-f7c0-11e3-8272-5404a6372add'
p849
aa(lp850
L7000000000000000000000065599960277L
aL7000000000000000000000065600160277L
aS'94feacd0-fbcc-11e3-8cf7-ccd29b2fe4f6'
p851
aI01
aI01
aS'643555fa-f7c0-11e3-be64-5404a6372add'
p852
aa(lp853
L7000000000000000000000065600160277L
aL7000000000000000000000065600360277L
aS'94feb928-fbcc-11e3-8cf7-ccd29b2fe4f6'
p854
aI01
aI01
aS'5d9647a2-f7ef-11e3-b031-c7d12f351c70'
p855
aa(lp856
L7000000000000000000000065600360277L
aL7000000000000000000000065600560277L
aS'94fec45e-fbcc-11e3-8cf7-ccd29b2fe4f6'
p857
aI01
aI01
aS'71b4e054-f7ef-11e3-b031-1150fe97b6a5'
p858
aa(lp859
L7000000000000000000000065600560277L
aL7000000000000000000000065600760277L
aS'94fece9a-fbcc-11e3-8cf7-ccd29b2fe4f6'
p860
aI01
aI01
aS'74e81f02-f7ef-11e3-b031-57b3b5f7965f'
p861
aa(lp862
L7000000000000000000000065600760277L
aL7000000000000000000000065600960277L
aS'94feda16-fbcc-11e3-8cf7-ccd29b2fe4f6'
p863
aI01
aI01
aS'39db6900-f7ef-11e3-b031-a3b0e3825347'
p864
aa(lp865
L7000000000000000000000065600960277L
aL7000000000000000000000065601160277L
aS'94fee4ca-fbcc-11e3-8cf7-ccd29b2fe4f6'
p866
aI01
aI01
aS'60cf8398-f7ef-11e3-b031-9be104d90b2b'
p867
aa(lp868
L7000000000000000000000065601160277L
aL7000000000000000000000065601360277L
aS'94feeefc-fbcc-11e3-8cf7-ccd29b2fe4f6'
p869
aI01
aI01
aS'64e24560-f7ef-11e3-b031-6328b648429f'
p870
aa(lp871
L7000000000000000000000065601360277L
aL7000000000000000000000065601560277L
aS'94fef8fc-fbcc-11e3-8cf7-ccd29b2fe4f6'
p872
aI01
aI01
aS'0409a7bc-f7ed-11e3-8c97-bcaec562e169'
p873
aa(lp874
L7000000000000000000000065601560277L
aL7000000000000000000000065601760277L
aS'94ff03ce-fbcc-11e3-8cf7-ccd29b2fe4f6'
p875
aI01
aI01
aS'81ac6054-f7ef-11e3-b031-15fb80904113'
p876
aa(lp877
L7000000000000000000000065601760277L
aL7000000000000000000000065601960277L
aS'94ff0e64-fbcc-11e3-8cf7-ccd29b2fe4f6'
p878
aI01
aI01
aS'65bcb5b2-f7c0-11e3-a574-5404a6372add'
p879
aa(lp880
L7000000000000000000000065601960277L
aL7000000000000000000000065602160277L
aS'94ff18fa-fbcc-11e3-8cf7-ccd29b2fe4f6'
p881
aI01
aI01
aS'2f85c9de-f7c0-11e3-90f6-001cc0bffc9f'
p882
aa(lp883
L7000000000000000000000065602160277L
aL7000000000000000000000065602360277L
aS'94ff23e0-fbcc-11e3-8cf7-ccd29b2fe4f6'
p884
aI01
aI01
aS'2a3cb260-f7ef-11e3-b031-37ac895e792a'
p885
aa(lp886
L7000000000000000000000065602360277L
aL7000000000000000000000065602560277L
aS'94ff2e44-fbcc-11e3-8cf7-ccd29b2fe4f6'
p887
aI01
aI01
aS'3150c5a2-f7c0-11e3-b225-001cc0bffc9f'
p888
aa(lp889
L7000000000000000000000065602560277L
aL7000000000000000000000065602760277L
aS'94ff381c-fbcc-11e3-8cf7-ccd29b2fe4f6'
p890
aI01
aI01
aS'63b15f48-f7c0-11e3-a0b3-5404a6372add'
p891
aa(lp892
L7000000000000000000000065602760277L
aL7000000000000000000000065602960277L
aS'94ff4244-fbcc-11e3-8cf7-ccd29b2fe4f6'
p893
aI01
aI01
aS'643555fa-f7c0-11e3-be64-5404a6372add'
p894
aa(lp895
L7000000000000000000000065602960277L
aL7000000000000000000000065603160277L
aS'94ff4d02-fbcc-11e3-8cf7-ccd29b2fe4f6'
p896
aI01
aI01
aS'628c92cc-f7c0-11e3-a05e-5404a6372add'
p897
aa(lp898
L7000000000000000000000065603160277L
aL7000000000000000000000065603360277L
aS'94ff7552-fbcc-11e3-8cf7-ccd29b2fe4f6'
p899
aI01
aI01
aS'60db2ab4-f7e9-11e3-9436-000c29e250a1'
p900
aa(lp901
L7000000000000000000000065603360277L
aL7000000000000000000000065603560277L
aS'94ff8236-fbcc-11e3-8cf7-ccd29b2fe4f6'
p902
aI01
aI01
aS'65285926-f7c0-11e3-91f4-5404a6372add'
p903
aa(lp904
L7000000000000000000000065603560277L
aL7000000000000000000000065603760277L
aS'94ffacac-fbcc-11e3-8cf7-ccd29b2fe4f6'
p905
aI01
aI01
aS'5f071938-f7c0-11e3-ab3a-5404a6372add'
p906
aa(lp907
L7000000000000000000000065603760277L
aL7000000000000000000000065603960277L
aS'94ffbeea-fbcc-11e3-8cf7-ccd29b2fe4f6'
p908
aI01
aI01
aS'6309116c-f7c0-11e3-9bf9-5404a6372add'
p909
aa(lp910
L7000000000000000000000065603960277L
aL7000000000000000000000065604160277L
aS'94fff928-fbcc-11e3-8cf7-ccd29b2fe4f6'
p911
aI01
aI01
aS'6059fa9e-f7c0-11e3-8c3a-5404a6372add'
p912
aa(lp913
L7000000000000000000000065604160277L
aL7000000000000000000000065604360277L
aS'950008fa-fbcc-11e3-8cf7-ccd29b2fe4f6'
p914
aI01
aI01
aS'66d09644-f7c0-11e3-9beb-5404a6372add'
p915
aa(lp916
L7000000000000000000000065604360277L
aL7000000000000000000000065604560277L
aS'950023ee-fbcc-11e3-8cf7-ccd29b2fe4f6'
p917
aI01
aI01
aS'5f0eea22-f7e9-11e3-8475-000c29e250a1'
p918
aa(lp919
L7000000000000000000000065604560277L
aL7000000000000000000000065604760277L
aS'95003280-fbcc-11e3-8cf7-ccd29b2fe4f6'
p920
aI01
aI01
aS'5dc4b5fc-f7e9-11e3-ab38-000c29e250a1'
p921
aa(lp922
L7000000000000000000000065604760277L
aL7000000000000000000000065604960277L
aS'950073e4-fbcc-11e3-8cf7-ccd29b2fe4f6'
p923
aI01
aI01
aS'61f40dd6-f7c0-11e3-b620-5404a6372add'
p924
aa(lp925
L7000000000000000000000065604960277L
aL7000000000000000000000065605160277L
aS'9500d460-fbcc-11e3-8cf7-ccd29b2fe4f6'
p926
aI01
aI01
aS'0409a7bc-f7ed-11e3-8c97-bcaec562e169'
p927
aa(lp928
L7000000000000000000000065605160277L
aL7000000000000000000000065605360277L
aS'9501082c-fbcc-11e3-8cf7-ccd29b2fe4f6'
p929
aI01
aI01
aS'663a5cf6-f7c0-11e3-8e94-5404a6372add'
p930
aa(lp931
L7000000000000000000000065605360277L
aL7000000000000000000000065605560277L
aS'95011a60-fbcc-11e3-8cf7-ccd29b2fe4f6'
p932
aI01
aI01
aS'60fc5d3e-f7c0-11e3-bcc6-5404a6372add'
p933
aa(lp934
L7000000000000000000000065605560277L
aL7000000000000000000000065605760277L
aS'9501292e-fbcc-11e3-8cf7-ccd29b2fe4f6'
p935
aI01
aI01
aS'64b23c28-f7c0-11e3-8272-5404a6372add'
p936
aa(lp937
L7000000000000000000000065605760277L
aL7000000000000000000000065605960277L
aS'950134d2-fbcc-11e3-8cf7-ccd29b2fe4f6'
p938
aI01
aI01
aS'6164d760-f7c0-11e3-bdf0-5404a6372add'
p939
aa(lp940
L7000000000000000000000065605960277L
aL7000000000000000000000065606160277L
aS'9501424c-fbcc-11e3-8cf7-ccd29b2fe4f6'
p941
aI01
aI01
aS'5fd14654-f7c0-11e3-bd92-5404a6372add'
p942
aa(lp943
L7000000000000000000000065606160277L
aL7000000000000000000000065606360277L
aS'950150ac-fbcc-11e3-8cf7-ccd29b2fe4f6'
p944
aI01
aI01
aS'5df74a4a-f7c0-11e3-94c7-5404a6372add'
p945
aa(lp946
L7000000000000000000000065606360277L
aL7000000000000000000000065606560277L
aS'95016042-fbcc-11e3-8cf7-ccd29b2fe4f6'
p947
aI01
aI01
aS'60037132-f7e9-11e3-b323-000c29e250a1'
p948
aa(lp949
L7000000000000000000000065606560277L
aL7000000000000000000000065606760277L
aS'95017000-fbcc-11e3-8cf7-ccd29b2fe4f6'
p950
aI01
aI01
aS'5d9647a2-f7ef-11e3-b031-c7d12f351c70'
p951
aa(lp952
L7000000000000000000000065606760277L
aL7000000000000000000000065606960277L
aS'95017ee2-fbcc-11e3-8cf7-ccd29b2fe4f6'
p953
aI01
aI01
aS'64e24560-f7ef-11e3-b031-6328b648429f'
p954
aa(lp955
L7000000000000000000000065606960277L
aL7000000000000000000000065607160277L
aS'95018e14-fbcc-11e3-8cf7-ccd29b2fe4f6'
p956
aI01
aI01
aS'39db6900-f7ef-11e3-b031-a3b0e3825347'
p957
aa(lp958
L7000000000000000000000065607160277L
aL7000000000000000000000065607360277L
aS'9501edfa-fbcc-11e3-8cf7-ccd29b2fe4f6'
p959
aI01
aI01
aS'60cf8398-f7ef-11e3-b031-9be104d90b2b'
p960
aa(lp961
L7000000000000000000000065607360277L
aL7000000000000000000000065607560277L
aS'9501fe1c-fbcc-11e3-8cf7-ccd29b2fe4f6'
p962
aI01
aI01
aS'74e81f02-f7ef-11e3-b031-57b3b5f7965f'
p963
aa(lp964
L7000000000000000000000065607560277L
aL7000000000000000000000065607760277L
aS'950209f2-fbcc-11e3-8cf7-ccd29b2fe4f6'
p965
aI01
aI01
aS'81ac6054-f7ef-11e3-b031-15fb80904113'
p966
aa(lp967
L7000000000000000000000065607760277L
aL7000000000000000000000065607960277L
aS'95021492-fbcc-11e3-8cf7-ccd29b2fe4f6'
p968
aI01
aI01
aS'71b4e054-f7ef-11e3-b031-1150fe97b6a5'
p969
aa(lp970
L7000000000000000000000065607960277L
aL7000000000000000000000065608160277L
aS'95021fbe-fbcc-11e3-8cf7-ccd29b2fe4f6'
p971
aI01
aI01
aS'0409a7bc-f7ed-11e3-8c97-bcaec562e169'
p972
aa(lp973
L7000000000000000000000065608160277L
aL7000000000000000000000065608360277L
aS'95022a9a-fbcc-11e3-8cf7-ccd29b2fe4f6'
p974
aI01
aI01
aS'65bcb5b2-f7c0-11e3-a574-5404a6372add'
p975
aa(lp976
L7000000000000000000000065608360277L
aL7000000000000000000000065608560277L
aS'950234ea-fbcc-11e3-8cf7-ccd29b2fe4f6'
p977
aI01
aI01
aS'2a3cb260-f7ef-11e3-b031-37ac895e792a'
p978
aa(lp979
L7000000000000000000000065608560277L
aL7000000000000000000000065608760277L
aS'95023f80-fbcc-11e3-8cf7-ccd29b2fe4f6'
p980
aI01
aI01
aS'5d9647a2-f7ef-11e3-b031-c7d12f351c70'
p981
aa(lp982
L7000000000000000000000065608760277L
aL7000000000000000000000065608960277L
aS'95024a84-fbcc-11e3-8cf7-ccd29b2fe4f6'
p983
aI01
aI01
aS'74e81f02-f7ef-11e3-b031-57b3b5f7965f'
p984
aa(lp985
L7000000000000000000000065608960277L
aL7000000000000000000000065609160277L
aS'95025506-fbcc-11e3-8cf7-ccd29b2fe4f6'
p986
aI01
aI01
aS'64e24560-f7ef-11e3-b031-6328b648429f'
p987
aa(lp988
L7000000000000000000000065609160277L
aL7000000000000000000000065609360277L
aS'95025efc-fbcc-11e3-8cf7-ccd29b2fe4f6'
p989
aI01
aI01
aS'462c5856-f7c0-11e3-935f-00e053135587'
p990
aa(lp991
L7000000000000000000000065609360277L
aL7000000000000000000000065609560277L
aS'95026942-fbcc-11e3-8cf7-ccd29b2fe4f6'
p992
aI01
aI01
aS'71b4e054-f7ef-11e3-b031-1150fe97b6a5'
p993
aa(lp994
L7000000000000000000000065609560277L
aL7000000000000000000000065609760277L
aS'95027dec-fbcc-11e3-8cf7-ccd29b2fe4f6'
p995
aI01
aI01
aS'3150c5a2-f7c0-11e3-b225-001cc0bffc9f'
p996
aa(lp997
L7000000000000000000000065609760277L
aL7000000000000000000000065609960277L
aS'95028d28-fbcc-11e3-8cf7-ccd29b2fe4f6'
p998
aI01
aI01
aS'81ac6054-f7ef-11e3-b031-15fb80904113'
p999
aa(lp1000
L7000000000000000000000065609960277L
aL7000000000000000000000065610160277L
aS'95029b74-fbcc-11e3-8cf7-ccd29b2fe4f6'
p1001
aI01
aI01
aS'60cf8398-f7ef-11e3-b031-9be104d90b2b'
p1002
aa(lp1003
L7000000000000000000000065610160277L
aL7000000000000000000000065610360277L
aS'9502a6b4-fbcc-11e3-8cf7-ccd29b2fe4f6'
p1004
aI01
aI01
aS'39db6900-f7ef-11e3-b031-a3b0e3825347'
p1005
aa(lp1006
L7000000000000000000000065610360277L
aL7000000000000000000000065610560277L
aS'9502b12c-fbcc-11e3-8cf7-ccd29b2fe4f6'
p1007
aI01
aI01
aS'2f85c9de-f7c0-11e3-90f6-001cc0bffc9f'
p1008
aa(lp1009
L7000000000000000000000065610560277L
aL7000000000000000000000065610760277L
aS'9502bc76-fbcc-11e3-8cf7-ccd29b2fe4f6'
p1010
aI01
aI01
aS'491601e8-f7c0-11e3-9652-00e053135587'
p1011
aa(lp1012
L7000000000000000000000065610760277L
aL7000000000000000000000065610960277L
aS'9502c798-fbcc-11e3-8cf7-ccd29b2fe4f6'
p1013
aI01
aI01
aS'47cc1bec-f7c0-11e3-9f29-00e053135587'
p1014
aa(lp1015
L7000000000000000000000065610960277L
aL7000000000000000000000065611160277L
aS'9502d206-fbcc-11e3-8cf7-ccd29b2fe4f6'
p1016
aI01
aI01
aS'47579420-f7c0-11e3-be54-00e053135587'
p1017
aa(lp1018
L7000000000000000000000065611160277L
aL7000000000000000000000065611360277L
aS'9502dc56-fbcc-11e3-8cf7-ccd29b2fe4f6'
p1019
aI01
aI01
aS'6059fa9e-f7c0-11e3-8c3a-5404a6372add'
p1020
aa(lp1021
L7000000000000000000000065611360277L
aL7000000000000000000000065611560277L
aS'9502e89a-fbcc-11e3-8cf7-ccd29b2fe4f6'
p1022
aI01
aI01
aS'4ad4d022-f7c0-11e3-be8c-00e053135587'
p1023
aa(lp1024
L7000000000000000000000065611560277L
aL7000000000000000000000065611760277L
aS'9502f5e2-fbcc-11e3-8cf7-ccd29b2fe4f6'
p1025
aI01
aI01
aS'439a1ff6-f7c0-11e3-bb9f-00e053135587'
p1026
aa(lp1027
L7000000000000000000000065611760277L
aL7000000000000000000000065611960277L
aS'9503014a-fbcc-11e3-8cf7-ccd29b2fe4f6'
p1028
aI01
aI01
aS'63b15f48-f7c0-11e3-a0b3-5404a6372add'
p1029
aa(lp1030
L7000000000000000000000065611960277L
aL7000000000000000000000065612160277L
aS'95030cf8-fbcc-11e3-8cf7-ccd29b2fe4f6'
p1031
aI01
aI01
aS'4870730e-f7c0-11e3-8173-00e053135587'
p1032
aa(lp1033
L7000000000000000000000065612160277L
aL7000000000000000000000065612360277L
aS'950317de-fbcc-11e3-8cf7-ccd29b2fe4f6'
p1034
aI01
aI01
aS'643555fa-f7c0-11e3-be64-5404a6372add'
p1035
aa(lp1036
L7000000000000000000000065612360277L
aL7000000000000000000000065612560277L
aS'9503240e-fbcc-11e3-8cf7-ccd29b2fe4f6'
p1037
aI01
aI01
aS'66d09644-f7c0-11e3-9beb-5404a6372add'
p1038
aa(lp1039
L7000000000000000000000065612560277L
aL7000000000000000000000065612760277L
aS'95032f94-fbcc-11e3-8cf7-ccd29b2fe4f6'
p1040
aI01
aI01
aS'49a8a4a8-f7c0-11e3-b4e4-00e053135587'
p1041
aa(lp1042
L7000000000000000000000065612760277L
aL7000000000000000000000065612960277L
aS'95033ac0-fbcc-11e3-8cf7-ccd29b2fe4f6'
p1043
aI01
aI01
aS'6164d760-f7c0-11e3-bdf0-5404a6372add'
p1044
aa(lp1045
L7000000000000000000000065612960277L
aL7000000000000000000000065613160277L
aS'950347e0-fbcc-11e3-8cf7-ccd29b2fe4f6'
p1046
aI01
aI01
aS'5f071938-f7c0-11e3-ab3a-5404a6372add'
p1047
aa(lp1048
L7000000000000000000000065613160277L
aL7000000000000000000000065613360277L
aS'95035406-fbcc-11e3-8cf7-ccd29b2fe4f6'
p1049
aI01
aI01
aS'5f0eea22-f7e9-11e3-8475-000c29e250a1'
p1050
aa(lp1051
L7000000000000000000000065613360277L
aL7000000000000000000000065613560277L
aS'95036022-fbcc-11e3-8cf7-ccd29b2fe4f6'
p1052
aI01
aI01
aS'66d09644-f7c0-11e3-9beb-5404a6372add'
p1053
aa(lp1054
L7000000000000000000000065613560277L
aL7000000000000000000000065613760277L
aS'95036aea-fbcc-11e3-8cf7-ccd29b2fe4f6'
p1055
aI01
aI01
aS'0409a7bc-f7ed-11e3-8c97-bcaec562e169'
p1056
aa(lp1057
L7000000000000000000000065613760277L
aL7000000000000000000000065613960277L
aS'9503751c-fbcc-11e3-8cf7-ccd29b2fe4f6'
p1058
aI01
aI01
aS'643555fa-f7c0-11e3-be64-5404a6372add'
p1059
aa(lp1060
L7000000000000000000000065613960277L
aL7000000000000000000000065614160277L
aS'9503803e-fbcc-11e3-8cf7-ccd29b2fe4f6'
p1061
aI01
aI01
aS'5dc4b5fc-f7e9-11e3-ab38-000c29e250a1'
p1062
aa(lp1063
L7000000000000000000000065614160277L
aL7000000000000000000000065614360277L
aS'95038afc-fbcc-11e3-8cf7-ccd29b2fe4f6'
p1064
aI01
aI01
aS'65285926-f7c0-11e3-91f4-5404a6372add'
p1065
aa(lp1066
L7000000000000000000000065614360277L
aL7000000000000000000000065614560277L
aS'95039542-fbcc-11e3-8cf7-ccd29b2fe4f6'
p1067
aI01
aI01
aS'5df74a4a-f7c0-11e3-94c7-5404a6372add'
p1068
aa(lp1069
L7000000000000000000000065614560277L
aL7000000000000000000000065614760277L
aS'95039f7e-fbcc-11e3-8cf7-ccd29b2fe4f6'
p1070
aI01
aI01
aS'6059fa9e-f7c0-11e3-8c3a-5404a6372add'
p1071
aa(lp1072
L7000000000000000000000065614760277L
aL7000000000000000000000065614960277L
aS'9503aabe-fbcc-11e3-8cf7-ccd29b2fe4f6'
p1073
aI01
aI01
aS'5fd14654-f7c0-11e3-bd92-5404a6372add'
p1074
aa(lp1075
L7000000000000000000000065614960277L
aL7000000000000000000000065615160277L
aS'9503b568-fbcc-11e3-8cf7-ccd29b2fe4f6'
p1076
aI01
aI01
aS'663a5cf6-f7c0-11e3-8e94-5404a6372add'
p1077
aa(lp1078
L7000000000000000000000065615160277L
aL7000000000000000000000065615360277L
aS'9503bfc2-fbcc-11e3-8cf7-ccd29b2fe4f6'
p1079
aI01
aI01
aS'2f85c9de-f7c0-11e3-90f6-001cc0bffc9f'
p1080
aa(lp1081
L7000000000000000000000065615360277L
aL7000000000000000000000065615560277L
aS'9503ca6c-fbcc-11e3-8cf7-ccd29b2fe4f6'
p1082
aI01
aI01
aS'61f40dd6-f7c0-11e3-b620-5404a6372add'
p1083
aa(lp1084
L7000000000000000000000065615560277L
aL7000000000000000000000065615760277L
aS'9503d52a-fbcc-11e3-8cf7-ccd29b2fe4f6'
p1085
aI01
aI01
aS'64b23c28-f7c0-11e3-8272-5404a6372add'
p1086
aa(lp1087
L7000000000000000000000065615760277L
aL7000000000000000000000065615960277L
aS'950407d4-fbcc-11e3-8cf7-ccd29b2fe4f6'
p1088
aI01
aI01
aS'64e24560-f7ef-11e3-b031-6328b648429f'
p1089
aa(lp1090
L7000000000000000000000065615960277L
aL7000000000000000000000065616160277L
aS'95041a8a-fbcc-11e3-8cf7-ccd29b2fe4f6'
p1091
aI01
aI01
aS'65bcb5b2-f7c0-11e3-a574-5404a6372add'
p1092
aa(lp1093
L7000000000000000000000065616160277L
aL7000000000000000000000065616360277L
aS'95042746-fbcc-11e3-8cf7-ccd29b2fe4f6'
p1094
aI01
aI01
aS'628c92cc-f7c0-11e3-a05e-5404a6372add'
p1095
aa(lp1096
L7000000000000000000000065616360277L
aL7000000000000000000000065616560277L
aS'9504504a-fbcc-11e3-8cf7-ccd29b2fe4f6'
p1097
aI01
aI01
aS'63b15f48-f7c0-11e3-a0b3-5404a6372add'
p1098
aa(lp1099
L7000000000000000000000065616560277L
aL7000000000000000000000065616760277L
aS'9504631e-fbcc-11e3-8cf7-ccd29b2fe4f6'
p1100
aI01
aI01
aS'60db2ab4-f7e9-11e3-9436-000c29e250a1'
p1101
aa(lp1102
L7000000000000000000000065616760277L
aL7000000000000000000000065616960277L
aS'95049f14-fbcc-11e3-8cf7-ccd29b2fe4f6'
p1103
aI01
aI01
aS'6309116c-f7c0-11e3-9bf9-5404a6372add'
p1104
aa(lp1105
L7000000000000000000000065616960277L
aL7000000000000000000000065617160277L
aS'9504aedc-fbcc-11e3-8cf7-ccd29b2fe4f6'
p1106
aI01
aI01
aS'60fc5d3e-f7c0-11e3-bcc6-5404a6372add'
p1107
aa(lp1108
L7000000000000000000000065617160277L
aL7000000000000000000000065617360277L
aS'9504ca2a-fbcc-11e3-8cf7-ccd29b2fe4f6'
p1109
aI01
aI01
aS'3150c5a2-f7c0-11e3-b225-001cc0bffc9f'
p1110
aa(lp1111
L7000000000000000000000065617360277L
aL7000000000000000000000065617560277L
aS'9504d84e-fbcc-11e3-8cf7-ccd29b2fe4f6'
p1112
aI01
aI01
aS'60037132-f7e9-11e3-b323-000c29e250a1'
p1113
aa(lp1114
L7000000000000000000000065617560277L
aL7000000000000000000000065617760277L
aS'950519bc-fbcc-11e3-8cf7-ccd29b2fe4f6'
p1115
aI01
aI01
aS'71b4e054-f7ef-11e3-b031-1150fe97b6a5'
p1116
aa(lp1117
L7000000000000000000000065617760277L
aL7000000000000000000000065617960277L
aS'95057a24-fbcc-11e3-8cf7-ccd29b2fe4f6'
p1118
aI01
aI01
aS'74e81f02-f7ef-11e3-b031-57b3b5f7965f'
p1119
aa(lp1120
L7000000000000000000000065617960277L
aL7000000000000000000000065618160277L
aS'9505ad6e-fbcc-11e3-8cf7-ccd29b2fe4f6'
p1121
aI01
aI01
aS'81ac6054-f7ef-11e3-b031-15fb80904113'
p1122
aa(lp1123
L7000000000000000000000065618160277L
aL7000000000000000000000065618360277L
aS'9505beb2-fbcc-11e3-8cf7-ccd29b2fe4f6'
p1124
aI01
aI01
aS'39db6900-f7ef-11e3-b031-a3b0e3825347'
p1125
aa(lp1126
L7000000000000000000000065618360277L
aL7000000000000000000000065618560277L
aS'9505ccc2-fbcc-11e3-8cf7-ccd29b2fe4f6'
p1127
aI01
aI01
aS'60cf8398-f7ef-11e3-b031-9be104d90b2b'
p1128
aa(lp1129
L7000000000000000000000065618560277L
aL7000000000000000000000065618760277L
aS'9505d960-fbcc-11e3-8cf7-ccd29b2fe4f6'
p1130
aI01
aI01
aS'2a3cb260-f7ef-11e3-b031-37ac895e792a'
p1131
aa(lp1132
L7000000000000000000000065618760277L
aL7000000000000000000000065618960277L
aS'9505e7a2-fbcc-11e3-8cf7-ccd29b2fe4f6'
p1133
aI01
aI01
aS'5d9647a2-f7ef-11e3-b031-c7d12f351c70'
p1134
aa(lp1135
L7000000000000000000000065618960277L
aL7000000000000000000000065619160277L
aS'9505f724-fbcc-11e3-8cf7-ccd29b2fe4f6'
p1136
aI01
aI01
aS'0409a7bc-f7ed-11e3-8c97-bcaec562e169'
p1137
aa(lp1138
L7000000000000000000000065619160277L
aL7000000000000000000000065619360277L
aS'950606a6-fbcc-11e3-8cf7-ccd29b2fe4f6'
p1139
aI01
aI01
aS'2f85c9de-f7c0-11e3-90f6-001cc0bffc9f'
p1140
aa(lp1141
L7000000000000000000000065619360277L
aL7000000000000000000000065619560277L
aS'950615c4-fbcc-11e3-8cf7-ccd29b2fe4f6'
p1142
aI01
aI01
aS'3150c5a2-f7c0-11e3-b225-001cc0bffc9f'
p1143
aa(lp1144
L7000000000000000000000065619560277L
aL7000000000000000000000065619760277L
aS'95062514-fbcc-11e3-8cf7-ccd29b2fe4f6'
p1145
aI01
aI01
aS'81ac6054-f7ef-11e3-b031-15fb80904113'
p1146
aa(lp1147
L7000000000000000000000065619760277L
aL7000000000000000000000065619960277L
aS'95067dca-fbcc-11e3-8cf7-ccd29b2fe4f6'
p1148
aI01
aI01
aS'64e24560-f7ef-11e3-b031-6328b648429f'
p1149
aa(lp1150
L7000000000000000000000065619960277L
aL7000000000000000000000065620160277L
aS'95069530-fbcc-11e3-8cf7-ccd29b2fe4f6'
p1151
aI01
aI01
aS'39db6900-f7ef-11e3-b031-a3b0e3825347'
p1152
aa(lp1153
L7000000000000000000000065620160277L
aL7000000000000000000000065620360277L
aS'9506a354-fbcc-11e3-8cf7-ccd29b2fe4f6'
p1154
aI01
aI01
aS'71b4e054-f7ef-11e3-b031-1150fe97b6a5'
p1155
aa(lp1156
L7000000000000000000000065620360277L
aL7000000000000000000000065620560277L
aS'9506aeee-fbcc-11e3-8cf7-ccd29b2fe4f6'
p1157
aI01
aI01
aS'74e81f02-f7ef-11e3-b031-57b3b5f7965f'
p1158
aa(lp1159
L7000000000000000000000065620560277L
aL7000000000000000000000065620760277L
aS'9506ba2e-fbcc-11e3-8cf7-ccd29b2fe4f6'
p1160
aI01
aI01
aS'2a3cb260-f7ef-11e3-b031-37ac895e792a'
p1161
aa(lp1162
L7000000000000000000000065620760277L
aL7000000000000000000000065620960277L
aS'9506c5e6-fbcc-11e3-8cf7-ccd29b2fe4f6'
p1163
aI01
aI01
aS'5d9647a2-f7ef-11e3-b031-c7d12f351c70'
p1164
aa(lp1165
L7000000000000000000000065620960277L
aL7000000000000000000000065621160277L
aS'9506d018-fbcc-11e3-8cf7-ccd29b2fe4f6'
p1166
aI01
aI01
aS'60cf8398-f7ef-11e3-b031-9be104d90b2b'
p1167
aa(lp1168
L7000000000000000000000065621160277L
aL7000000000000000000000065621360277L
aS'9506da2c-fbcc-11e3-8cf7-ccd29b2fe4f6'
p1169
aI01
aI01
aS'66d09644-f7c0-11e3-9beb-5404a6372add'
p1170
aa(lp1171
L7000000000000000000000065621360277L
aL7000000000000000000000065621560277L
aS'9506e4a4-fbcc-11e3-8cf7-ccd29b2fe4f6'
p1172
aI01
aI01
aS'6164d760-f7c0-11e3-bdf0-5404a6372add'
p1173
aa(lp1174
L7000000000000000000000065621560277L
aL7000000000000000000000065621760277L
aS'9506ef62-fbcc-11e3-8cf7-ccd29b2fe4f6'
p1175
aI01
aI01
aS'5f071938-f7c0-11e3-ab3a-5404a6372add'
p1176
aa(lp1177
L7000000000000000000000065621760277L
aL7000000000000000000000065621960277L
aS'9506f98a-fbcc-11e3-8cf7-ccd29b2fe4f6'
p1178
aI01
aI01
aS'5df74a4a-f7c0-11e3-94c7-5404a6372add'
p1179
aa(lp1180
L7000000000000000000000065621960277L
aL7000000000000000000000065622160277L
aS'9507039e-fbcc-11e3-8cf7-ccd29b2fe4f6'
p1181
aI01
aI01
aS'65285926-f7c0-11e3-91f4-5404a6372add'
p1182
aa(lp1183
L7000000000000000000000065622160277L
aL7000000000000000000000065622360277L
aS'95071afa-fbcc-11e3-8cf7-ccd29b2fe4f6'
p1184
aI01
aI01
aS'60037132-f7e9-11e3-b323-000c29e250a1'
p1185
aa(lp1186
L7000000000000000000000065622360277L
aL7000000000000000000000065622560277L
aS'95072702-fbcc-11e3-8cf7-ccd29b2fe4f6'
p1187
aI01
aI01
aS'60fc5d3e-f7c0-11e3-bcc6-5404a6372add'
p1188
aa(lp1189
L7000000000000000000000065622560277L
aL7000000000000000000000065622760277L
aS'9507327e-fbcc-11e3-8cf7-ccd29b2fe4f6'
p1190
aI01
aI01
aS'5f0eea22-f7e9-11e3-8475-000c29e250a1'
p1191
aa(lp1192
L7000000000000000000000065622760277L
aL7000000000000000000000065622960277L
aS'95073df0-fbcc-11e3-8cf7-ccd29b2fe4f6'
p1193
aI01
aI01
aS'643555fa-f7c0-11e3-be64-5404a6372add'
p1194
aa(lp1195
L7000000000000000000000065622960277L
aL7000000000000000000000065623160277L
aS'950748a4-fbcc-11e3-8cf7-ccd29b2fe4f6'
p1196
aI01
aI01
aS'5dc4b5fc-f7e9-11e3-ab38-000c29e250a1'
p1197
aa(lp1198
L7000000000000000000000065623160277L
aL7000000000000000000000065623360277L
aS'95075326-fbcc-11e3-8cf7-ccd29b2fe4f6'
p1199
aI01
aI01
aS'663a5cf6-f7c0-11e3-8e94-5404a6372add'
p1200
aa(lp1201
L7000000000000000000000065623360277L
aL7000000000000000000000065623560277L
aS'95075e34-fbcc-11e3-8cf7-ccd29b2fe4f6'
p1202
aI01
aI01
aS'60db2ab4-f7e9-11e3-9436-000c29e250a1'
p1203
aa(lp1204
L7000000000000000000000065623560277L
aL7000000000000000000000065623760277L
aS'95076938-fbcc-11e3-8cf7-ccd29b2fe4f6'
p1205
aI01
aI01
aS'5fd14654-f7c0-11e3-bd92-5404a6372add'
p1206
aa(lp1207
L7000000000000000000000065623760277L
aL7000000000000000000000065623960277L
aS'95077374-fbcc-11e3-8cf7-ccd29b2fe4f6'
p1208
aI01
aI01
aS'6059fa9e-f7c0-11e3-8c3a-5404a6372add'
p1209
aa(lp1210
L7000000000000000000000065623960277L
aL7000000000000000000000065624160277L
aS'95077db0-fbcc-11e3-8cf7-ccd29b2fe4f6'
p1211
aI01
aI01
aS'61f40dd6-f7c0-11e3-b620-5404a6372add'
p1212
aa(lp1213
L7000000000000000000000065624160277L
aL7000000000000000000000065624360277L
aS'950788a0-fbcc-11e3-8cf7-ccd29b2fe4f6'
p1214
aI01
aI01
aS'63b15f48-f7c0-11e3-a0b3-5404a6372add'
p1215
aa(lp1216
L7000000000000000000000065624360277L
aL7000000000000000000000065624560277L
aS'950792f0-fbcc-11e3-8cf7-ccd29b2fe4f6'
p1217
aI01
aI01
aS'628c92cc-f7c0-11e3-a05e-5404a6372add'
p1218
aa(lp1219
L7000000000000000000000065624560277L
aL7000000000000000000000065624760277L
aS'95079cfa-fbcc-11e3-8cf7-ccd29b2fe4f6'
p1220
aI01
aI01
aS'6309116c-f7c0-11e3-9bf9-5404a6372add'
p1221
aa(lp1222
L7000000000000000000000065624760277L
aL7000000000000000000000065624960277L
aS'9507a74a-fbcc-11e3-8cf7-ccd29b2fe4f6'
p1223
aI01
aI01
aS'64b23c28-f7c0-11e3-8272-5404a6372add'
p1224
aa(lp1225
L7000000000000000000000065624960277L
aL7000000000000000000000065625160277L
aS'9507b1fe-fbcc-11e3-8cf7-ccd29b2fe4f6'
p1226
aI01
aI01
aS'65bcb5b2-f7c0-11e3-a574-5404a6372add'
p1227
aa(lp1228
L7000000000000000000000065625160277L
aL7000000000000000000000065625360277L
aS'9507bc26-fbcc-11e3-8cf7-ccd29b2fe4f6'
p1229
aI01
aI01
aS'0409a7bc-f7ed-11e3-8c97-bcaec562e169'
p1230
aa(lp1231
L7000000000000000000000065625360277L
aL7000000000000000000000065625560277L
aS'9507c658-fbcc-11e3-8cf7-ccd29b2fe4f6'
p1232
aI01
aI01
aS'2f85c9de-f7c0-11e3-90f6-001cc0bffc9f'
p1233
aa(lp1234
L7000000000000000000000065625560277L
aL7000000000000000000000065625760277L
aS'9507d166-fbcc-11e3-8cf7-ccd29b2fe4f6'
p1235
aI01
aI01
aS'3150c5a2-f7c0-11e3-b225-001cc0bffc9f'
p1236
aa(lp1237
L7000000000000000000000065625760277L
aL7000000000000000000000065625960277L
aS'9507dbb6-fbcc-11e3-8cf7-ccd29b2fe4f6'
p1238
aI01
aI01
aS'74e81f02-f7ef-11e3-b031-57b3b5f7965f'
p1239
aa(lp1240
L7000000000000000000000065625960277L
aL7000000000000000000000065626160277L
aS'9507e5b6-fbcc-11e3-8cf7-ccd29b2fe4f6'
p1241
aI01
aI01
aS'81ac6054-f7ef-11e3-b031-15fb80904113'
p1242
aa(lp1243
L7000000000000000000000065626160277L
aL7000000000000000000000065626360277L
aS'9507ef8e-fbcc-11e3-8cf7-ccd29b2fe4f6'
p1244
aI01
aI01
aS'71b4e054-f7ef-11e3-b031-1150fe97b6a5'
p1245
aa(lp1246
L7000000000000000000000065626360277L
aL7000000000000000000000065626560277L
aS'9507fa9c-fbcc-11e3-8cf7-ccd29b2fe4f6'
p1247
aI01
aI01
aS'64e24560-f7ef-11e3-b031-6328b648429f'
p1248
aa(lp1249
L7000000000000000000000065626560277L
aL7000000000000000000000065626760277L
aS'95080500-fbcc-11e3-8cf7-ccd29b2fe4f6'
p1250
aI01
aI01
aS'2a3cb260-f7ef-11e3-b031-37ac895e792a'
p1251
aa(lp1252
L7000000000000000000000065626760277L
aL7000000000000000000000065626960277L
aS'95080f3c-fbcc-11e3-8cf7-ccd29b2fe4f6'
p1253
aI01
aI01
aS'5d9647a2-f7ef-11e3-b031-c7d12f351c70'
p1254
aa(lp1255
L7000000000000000000000065626960277L
aL7000000000000000000000065627160277L
aS'9508195a-fbcc-11e3-8cf7-ccd29b2fe4f6'
p1256
aI01
aI01
aS'60cf8398-f7ef-11e3-b031-9be104d90b2b'
p1257
aa(lp1258
L7000000000000000000000065627160277L
aL7000000000000000000000065627360277L
aS'9508240e-fbcc-11e3-8cf7-ccd29b2fe4f6'
p1259
aI01
aI01
aS'39db6900-f7ef-11e3-b031-a3b0e3825347'
p1260
aa(lp1261
L7000000000000000000000065627360277L
aL7000000000000000000000065627560277L
aS'95082e36-fbcc-11e3-8cf7-ccd29b2fe4f6'
p1262
aI01
aI01
aS'66d09644-f7c0-11e3-9beb-5404a6372add'
p1263
aa(lp1264
L7000000000000000000000065627560277L
aL7000000000000000000000065627760277L
aS'95083868-fbcc-11e3-8cf7-ccd29b2fe4f6'
p1265
aI01
aI01
aS'462c5856-f7c0-11e3-935f-00e053135587'
p1266
aa(lp1267
L7000000000000000000000065627760277L
aL7000000000000000000000065627960277L
aS'95084376-fbcc-11e3-8cf7-ccd29b2fe4f6'
p1268
aI01
aI01
aS'4ad4d022-f7c0-11e3-be8c-00e053135587'
p1269
aa(lp1270
L7000000000000000000000065627960277L
aL7000000000000000000000065628160277L
aS'95084e66-fbcc-11e3-8cf7-ccd29b2fe4f6'
p1271
aI01
aI00
aNaa(lp1272
L7000000000000000000000065628160277L
aL7000000000000000000000065628360277L
aS'950858ac-fbcc-11e3-8cf7-ccd29b2fe4f6'
p1273
aI01
aI01
aS'4870730e-f7c0-11e3-8173-00e053135587'
p1274
aa(lp1275
L7000000000000000000000065628360277L
aL7000000000000000000000065628560277L
aS'950862a2-fbcc-11e3-8cf7-ccd29b2fe4f6'
p1276
aI01
aI01
aS'439a1ff6-f7c0-11e3-bb9f-00e053135587'
p1277
aa(lp1278
L7000000000000000000000065628560277L
aL7000000000000000000000065628760277L
aS'95086d4c-fbcc-11e3-8cf7-ccd29b2fe4f6'
p1279
aI01
aI01
aS'47cc1bec-f7c0-11e3-9f29-00e053135587'
p1280
aa(lp1281
L7000000000000000000000065628760277L
aL7000000000000000000000065628960277L
aS'95088e6c-fbcc-11e3-8cf7-ccd29b2fe4f6'
p1282
aI01
aI01
aS'49a8a4a8-f7c0-11e3-b4e4-00e053135587'
p1283
aa(lp1284
L7000000000000000000000065628960277L
aL7000000000000000000000065629160277L
aS'9508a0d2-fbcc-11e3-8cf7-ccd29b2fe4f6'
p1285
aI01
aI01
aS'491601e8-f7c0-11e3-9652-00e053135587'
p1286
aa(lp1287
L7000000000000000000000065629160277L
aL7000000000000000000000065629360277L
aS'9508ad70-fbcc-11e3-8cf7-ccd29b2fe4f6'
p1288
aI01
aI01
aS'47579420-f7c0-11e3-be54-00e053135587'
p1289
aa(lp1290
L7000000000000000000000065629360277L
aL7000000000000000000000065629560277L
aS'9508b946-fbcc-11e3-8cf7-ccd29b2fe4f6'
p1291
aI01
aI01
aS'60037132-f7e9-11e3-b323-000c29e250a1'
p1292
aa(lp1293
L7000000000000000000000065629560277L
aL7000000000000000000000065629760277L
aS'9508c472-fbcc-11e3-8cf7-ccd29b2fe4f6'
p1294
aI01
aI01
aS'5df74a4a-f7c0-11e3-94c7-5404a6372add'
p1295
aa(lp1296
L7000000000000000000000065629760277L
aL7000000000000000000000065629960277L
aS'9508ced6-fbcc-11e3-8cf7-ccd29b2fe4f6'
p1297
aI01
aI01
aS'0409a7bc-f7ed-11e3-8c97-bcaec562e169'
p1298
aa(lp1299
L7000000000000000000000065629960277L
aL7000000000000000000000065630160277L
aS'9508d91c-fbcc-11e3-8cf7-ccd29b2fe4f6'
p1300
aI01
aI01
aS'6164d760-f7c0-11e3-bdf0-5404a6372add'
p1301
aa(lp1302
L7000000000000000000000065630160277L
aL7000000000000000000000065630360277L
aS'950905b8-fbcc-11e3-8cf7-ccd29b2fe4f6'
p1303
aI01
aI01
aS'5dc4b5fc-f7e9-11e3-ab38-000c29e250a1'
p1304
aa(lp1305
L7000000000000000000000065630360277L
aL7000000000000000000000065630560277L
aS'95093f42-fbcc-11e3-8cf7-ccd29b2fe4f6'
p1306
aI01
aI01
aS'5f071938-f7c0-11e3-ab3a-5404a6372add'
p1307
aa(lp1308
L7000000000000000000000065630560277L
aL7000000000000000000000065630760277L
aS'9509531a-fbcc-11e3-8cf7-ccd29b2fe4f6'
p1309
aI01
aI01
aS'65285926-f7c0-11e3-91f4-5404a6372add'
p1310
aa(lp1311
L7000000000000000000000065630760277L
aL7000000000000000000000065630960277L
aS'95096c9c-fbcc-11e3-8cf7-ccd29b2fe4f6'
p1312
aI01
aI01
aS'64b23c28-f7c0-11e3-8272-5404a6372add'
p1313
aa(lp1314
L7000000000000000000000065630960277L
aL7000000000000000000000065631160277L
aS'95097d40-fbcc-11e3-8cf7-ccd29b2fe4f6'
p1315
aI01
aI01
aS'663a5cf6-f7c0-11e3-8e94-5404a6372add'
p1316
aa(lp1317
L7000000000000000000000065631160277L
aL7000000000000000000000065631360277L
aS'95098a7e-fbcc-11e3-8cf7-ccd29b2fe4f6'
p1318
aI01
aI01
aS'60db2ab4-f7e9-11e3-9436-000c29e250a1'
p1319
aa(lp1320
L7000000000000000000000065631360277L
aL7000000000000000000000065631560277L
aS'9509ff36-fbcc-11e3-8cf7-ccd29b2fe4f6'
p1321
aI01
aI01
aS'5f0eea22-f7e9-11e3-8475-000c29e250a1'
p1322
aa(lp1323
L7000000000000000000000065631560277L
aL7000000000000000000000065631760277L
aS'950a1106-fbcc-11e3-8cf7-ccd29b2fe4f6'
p1324
aI01
aI01
aS'61f40dd6-f7c0-11e3-b620-5404a6372add'
p1325
aa(lp1326
L7000000000000000000000065631760277L
aL7000000000000000000000065631960277L
aS'950a62a0-fbcc-11e3-8cf7-ccd29b2fe4f6'
p1327
aI01
aI01
aS'643555fa-f7c0-11e3-be64-5404a6372add'
p1328
aa(lp1329
L7000000000000000000000065631960277L
aL7000000000000000000000065632160277L
aS'950a9176-fbcc-11e3-8cf7-ccd29b2fe4f6'
p1330
aI01
aI01
aS'60fc5d3e-f7c0-11e3-bcc6-5404a6372add'
p1331
aa(lp1332
L7000000000000000000000065632160277L
aL7000000000000000000000065632360277L
aS'950aa7ce-fbcc-11e3-8cf7-ccd29b2fe4f6'
p1333
aI01
aI01
aS'6309116c-f7c0-11e3-9bf9-5404a6372add'
p1334
aa(lp1335
L7000000000000000000000065632360277L
aL7000000000000000000000065632560277L
aS'950ab7fa-fbcc-11e3-8cf7-ccd29b2fe4f6'
p1336
aI01
aI01
aS'5fd14654-f7c0-11e3-bd92-5404a6372add'
p1337
aa(lp1338
L7000000000000000000000065632560277L
aL7000000000000000000000065632760277L
aS'950ac4de-fbcc-11e3-8cf7-ccd29b2fe4f6'
p1339
aI01
aI01
aS'6059fa9e-f7c0-11e3-8c3a-5404a6372add'
p1340
aa(lp1341
L7000000000000000000000065632760277L
aL7000000000000000000000065632960277L
aS'950ad2c6-fbcc-11e3-8cf7-ccd29b2fe4f6'
p1342
aI01
aI01
aS'65bcb5b2-f7c0-11e3-a574-5404a6372add'
p1343
aa(lp1344
L7000000000000000000000065632960277L
aL7000000000000000000000065633160277L
aS'950ae1a8-fbcc-11e3-8cf7-ccd29b2fe4f6'
p1345
aI01
aI01
aS'628c92cc-f7c0-11e3-a05e-5404a6372add'
p1346
aa(lp1347
L7000000000000000000000065633160277L
aL7000000000000000000000065633360277L
aS'950af0f8-fbcc-11e3-8cf7-ccd29b2fe4f6'
p1348
aI01
aI01
aS'63b15f48-f7c0-11e3-a0b3-5404a6372add'
p1349
aa(lp1350
L7000000000000000000000065633360277L
aL7000000000000000000000065633560277L
aS'950b002a-fbcc-11e3-8cf7-ccd29b2fe4f6'
p1351
aI01
aI01
aS'2f85c9de-f7c0-11e3-90f6-001cc0bffc9f'
p1352
aa(lp1353
L7000000000000000000000065633560277L
aL7000000000000000000000065633760277L
aS'950b0f02-fbcc-11e3-8cf7-ccd29b2fe4f6'
p1354
aI01
aI01
aS'3150c5a2-f7c0-11e3-b225-001cc0bffc9f'
p1355
aa(lp1356
L7000000000000000000000065633760277L
aL7000000000000000000000065633960277L
aS'950b1e3e-fbcc-11e3-8cf7-ccd29b2fe4f6'
p1357
aI01
aI01
aS'81ac6054-f7ef-11e3-b031-15fb80904113'
p1358
aa(lp1359
L7000000000000000000000065633960277L
aL7000000000000000000000065634160277L
aS'950b8ab8-fbcc-11e3-8cf7-ccd29b2fe4f6'
p1360
aI01
aI01
aS'74e81f02-f7ef-11e3-b031-57b3b5f7965f'
p1361
aa(lp1362
L7000000000000000000000065634160277L
aL7000000000000000000000065634360277L
aS'950babf6-fbcc-11e3-8cf7-ccd29b2fe4f6'
p1363
aI01
aI01
aS'71b4e054-f7ef-11e3-b031-1150fe97b6a5'
p1364
aa(lp1365
L7000000000000000000000065634360277L
aL7000000000000000000000065634560277L
aS'950be72e-fbcc-11e3-8cf7-ccd29b2fe4f6'
p1366
aI01
aI01
aS'64e24560-f7ef-11e3-b031-6328b648429f'
p1367
aa(lp1368
L7000000000000000000000065634560277L
aL7000000000000000000000065634760277L
aS'950c37ec-fbcc-11e3-8cf7-ccd29b2fe4f6'
p1369
aI01
aI01
aS'5d9647a2-f7ef-11e3-b031-c7d12f351c70'
p1370
aa(lp1371
L7000000000000000000000065634760277L
aL7000000000000000000000065634960277L
aS'950c58b2-fbcc-11e3-8cf7-ccd29b2fe4f6'
p1372
aI01
aI01
aS'2a3cb260-f7ef-11e3-b031-37ac895e792a'
p1373
aa(lp1374
L7000000000000000000000065634960277L
aL7000000000000000000000065635160277L
aS'950c67bc-fbcc-11e3-8cf7-ccd29b2fe4f6'
p1375
aI01
aI00
aNaa(lp1376
L7000000000000000000000065635160277L
aL7000000000000000000000065635360277L
aS'950c88e6-fbcc-11e3-8cf7-ccd29b2fe4f6'
p1377
aI01
aI01
aS'39db6900-f7ef-11e3-b031-a3b0e3825347'
p1378
aa(lp1379
L7000000000000000000000065635360277L
aL7000000000000000000000065635560277L
aS'950c985e-fbcc-11e3-8cf7-ccd29b2fe4f6'
p1380
aI01
aI01
aS'0409a7bc-f7ed-11e3-8c97-bcaec562e169'
p1381
aa(lp1382
L7000000000000000000000065635560277L
aL7000000000000000000000065635760277L
aS'950ca3e4-fbcc-11e3-8cf7-ccd29b2fe4f6'
p1383
aI01
aI01
aS'66d09644-f7c0-11e3-9beb-5404a6372add'
p1384
aa(lp1385
L7000000000000000000000065635760277L
aL7000000000000000000000065635960277L
aS'950cae98-fbcc-11e3-8cf7-ccd29b2fe4f6'
p1386
aI01
aI01
aS'663a5cf6-f7c0-11e3-8e94-5404a6372add'
p1387
aa(lp1388
L7000000000000000000000065635960277L
aL7000000000000000000000065636160277L
aS'950cb9f6-fbcc-11e3-8cf7-ccd29b2fe4f6'
p1389
aI01
aI01
aS'60037132-f7e9-11e3-b323-000c29e250a1'
p1390
aa(lp1391
L7000000000000000000000065636160277L
aL7000000000000000000000065636360277L
aS'950cc428-fbcc-11e3-8cf7-ccd29b2fe4f6'
p1392
aI01
aI01
aS'6164d760-f7c0-11e3-bdf0-5404a6372add'
p1393
aa(lp1394
L7000000000000000000000065636360277L
aL7000000000000000000000065636560277L
aS'950cce3c-fbcc-11e3-8cf7-ccd29b2fe4f6'
p1395
aI01
aI01
aS'2f85c9de-f7c0-11e3-90f6-001cc0bffc9f'
p1396
aa(lp1397
L7000000000000000000000065636560277L
aL7000000000000000000000065636760277L
aS'950cd8dc-fbcc-11e3-8cf7-ccd29b2fe4f6'
p1398
aI01
aI01
aS'65285926-f7c0-11e3-91f4-5404a6372add'
p1399
aa(lp1400
L7000000000000000000000065636760277L
aL7000000000000000000000065636960277L
aS'950ce3b8-fbcc-11e3-8cf7-ccd29b2fe4f6'
p1401
aI01
aI01
aS'5df74a4a-f7c0-11e3-94c7-5404a6372add'
p1402
aa(lp1403
L7000000000000000000000065636960277L
aL7000000000000000000000065637160277L
aS'950cee3a-fbcc-11e3-8cf7-ccd29b2fe4f6'
p1404
aI01
aI01
aS'60db2ab4-f7e9-11e3-9436-000c29e250a1'
p1405
aa(lp1406
L7000000000000000000000065637160277L
aL7000000000000000000000065637360277L
aS'950cf862-fbcc-11e3-8cf7-ccd29b2fe4f6'
p1407
aI01
aI01
aS'71b4e054-f7ef-11e3-b031-1150fe97b6a5'
p1408
aa(lp1409
L7000000000000000000000065637360277L
aL7000000000000000000000065637560277L
aS'950d0352-fbcc-11e3-8cf7-ccd29b2fe4f6'
p1410
aI01
aI01
aS'3150c5a2-f7c0-11e3-b225-001cc0bffc9f'
p1411
aa(lp1412
L7000000000000000000000065637560277L
aL7000000000000000000000065637760277L
aS'950d0df2-fbcc-11e3-8cf7-ccd29b2fe4f6'
p1413
aI01
aI01
aS'81ac6054-f7ef-11e3-b031-15fb80904113'
p1414
aa(lp1415
L7000000000000000000000065637760277L
aL7000000000000000000000065637960277L
aS'950d2378-fbcc-11e3-8cf7-ccd29b2fe4f6'
p1416
aI01
aI01
aS'74e81f02-f7ef-11e3-b031-57b3b5f7965f'
p1417
aa(lp1418
L7000000000000000000000065637960277L
aL7000000000000000000000065638160277L
aS'950d32fa-fbcc-11e3-8cf7-ccd29b2fe4f6'
p1419
aI01
aI01
aS'5f071938-f7c0-11e3-ab3a-5404a6372add'
p1420
aa(lp1421
L7000000000000000000000065638160277L
aL7000000000000000000000065638360277L
aS'950d3eee-fbcc-11e3-8cf7-ccd29b2fe4f6'
p1422
aI01
aI01
aS'64e24560-f7ef-11e3-b031-6328b648429f'
p1423
aa(lp1424
L7000000000000000000000065638360277L
aL7000000000000000000000065638560277L
aS'950d49de-fbcc-11e3-8cf7-ccd29b2fe4f6'
p1425
aI01
aI01
aS'64b23c28-f7c0-11e3-8272-5404a6372add'
p1426
aa(lp1427
L7000000000000000000000065638560277L
aL7000000000000000000000065638760277L
aS'950d556e-fbcc-11e3-8cf7-ccd29b2fe4f6'
p1428
aI01
aI01
aS'5f0eea22-f7e9-11e3-8475-000c29e250a1'
p1429
aa(lp1430
L7000000000000000000000065638760277L
aL7000000000000000000000065638960277L
aS'950d5fd2-fbcc-11e3-8cf7-ccd29b2fe4f6'
p1431
aI01
aI00
aNaa(lp1432
L7000000000000000000000065638960277L
aL7000000000000000000000065639160277L
aS'950d6a04-fbcc-11e3-8cf7-ccd29b2fe4f6'
p1433
aI01
aI01
aS'643555fa-f7c0-11e3-be64-5404a6372add'
p1434
aa(lp1435
L7000000000000000000000065639160277L
aL7000000000000000000000065639360277L
aS'950d749a-fbcc-11e3-8cf7-ccd29b2fe4f6'
p1436
aI01
aI01
aS'60fc5d3e-f7c0-11e3-bcc6-5404a6372add'
p1437
aa(lp1438
L7000000000000000000000065639360277L
aL7000000000000000000000065639560277L
aS'950d7f4e-fbcc-11e3-8cf7-ccd29b2fe4f6'
p1439
aI01
aI01
aS'39db6900-f7ef-11e3-b031-a3b0e3825347'
p1440
aa(lp1441
L7000000000000000000000065639560277L
aL7000000000000000000000065639760277L
aS'950d896c-fbcc-11e3-8cf7-ccd29b2fe4f6'
p1442
aI01
aI01
aS'63b15f48-f7c0-11e3-a0b3-5404a6372add'
p1443
aa(lp1444
L7000000000000000000000065639760277L
aL7000000000000000000000065639960277L
aS'950d9b78-fbcc-11e3-8cf7-ccd29b2fe4f6'
p1445
aI01
aI01
aS'61f40dd6-f7c0-11e3-b620-5404a6372add'
p1446
aa(lp1447
L7000000000000000000000065639960277L
aL7000000000000000000000065640160277L
aS'950da9b0-fbcc-11e3-8cf7-ccd29b2fe4f6'
p1448
aI01
aI01
aS'60cf8398-f7ef-11e3-b031-9be104d90b2b'
p1449
aa(lp1450
L7000000000000000000000065640160277L
aL7000000000000000000000065640360277L
aS'950db4e6-fbcc-11e3-8cf7-ccd29b2fe4f6'
p1451
aI01
aI01
aS'5dc4b5fc-f7e9-11e3-ab38-000c29e250a1'
p1452
aa(lp1453
L7000000000000000000000065640360277L
aL7000000000000000000000065640560277L
aS'950dbfea-fbcc-11e3-8cf7-ccd29b2fe4f6'
p1454
aI01
aI01
aS'5fd14654-f7c0-11e3-bd92-5404a6372add'
p1455
aa(lp1456
L7000000000000000000000065640560277L
aL7000000000000000000000065640760277L
aS'950dcb2a-fbcc-11e3-8cf7-ccd29b2fe4f6'
p1457
aI01
aI01
aS'2a3cb260-f7ef-11e3-b031-37ac895e792a'
p1458
aa(lp1459
L7000000000000000000000065640760277L
aL7000000000000000000000065640960277L
aS'950dd5de-fbcc-11e3-8cf7-ccd29b2fe4f6'
p1460
aI01
aI01
aS'65bcb5b2-f7c0-11e3-a574-5404a6372add'
p1461
aa(lp1462
L7000000000000000000000065640960277L
aL7000000000000000000000065641160277L
aS'950de006-fbcc-11e3-8cf7-ccd29b2fe4f6'
p1463
aI01
aI01
aS'5d9647a2-f7ef-11e3-b031-c7d12f351c70'
p1464
aa(lp1465
L7000000000000000000000065641160277L
aL7000000000000000000000065641360277L
aS'950deaec-fbcc-11e3-8cf7-ccd29b2fe4f6'
p1466
aI01
aI01
aS'628c92cc-f7c0-11e3-a05e-5404a6372add'
p1467
aa.