(lp1
(lp2
I62000
aI62100
aS'011091e0-8392-11e2-ae7d-000c29b76fa4'
p3
aI01
aI01
aa(lp4
I62100
aI62200
aS'01109cd0-8392-11e2-ae7d-000c29b76fa4'
p5
aI01
aI01
aa(lp6
I62200
aI62300
aS'0110a59a-8392-11e2-ae7d-000c29b76fa4'
p7
aI01
aI01
aa(lp8
I62300
aI62400
aS'0110b74c-8392-11e2-ae7d-000c29b76fa4'
p9
aI01
aI01
aa(lp10
I62400
aI62500
aS'0110c0a2-8392-11e2-ae7d-000c29b76fa4'
p11
aI01
aI01
aa(lp12
I62500
aI62600
aS'0110c926-8392-11e2-ae7d-000c29b76fa4'
p13
aI01
aI01
aa(lp14
I62600
aI62700
aS'0110f0fe-8392-11e2-ae7d-000c29b76fa4'
p15
aI01
aI00
aa(lp16
I62700
aI62800
aS'0110fd74-8392-11e2-ae7d-000c29b76fa4'
p17
aI00
aI00
aa(lp18
I62800
aI62900
aS'011119a8-8392-11e2-ae7d-000c29b76fa4'
p19
aI00
aI00
aa(lp20
I62900
aI63000
aS'011126be-8392-11e2-ae7d-000c29b76fa4'
p21
aI00
aI00
aa.