(lp1
(lp2
L7000000000000000000000006773000000L
aL7000000000000000000000006773010000L
aS'e02b8ee2-8744-11e2-a0a0-000c29e250a1'
p3
aI01
aI01
aS'4beb25da-86bd-11e2-8881-001cc0bffc9f'
p4
aa(lp5
L7000000000000000000000006773010000L
aL7000000000000000000000006773020000L
aS'e02b945a-8744-11e2-a0a0-000c29e250a1'
p6
aI01
aI01
aS'fc94b060-86bb-11e2-acb1-fa163e065d0c'
p7
aa(lp8
L7000000000000000000000006773020000L
aL7000000000000000000000006773030000L
aS'e02b998c-8744-11e2-a0a0-000c29e250a1'
p9
aI01
aI01
aS'ab1cfc00-86bc-11e2-b908-fa163e065d0c'
p10
aa(lp11
L7000000000000000000000006773030000L
aL7000000000000000000000006773040000L
aS'e02ba5f8-8744-11e2-a0a0-000c29e250a1'
p12
aI01
aI01
aS'fb051a5a-86bb-11e2-bf39-fa163e065d0c'
p13
aa(lp14
L7000000000000000000000006773040000L
aL7000000000000000000000006773050000L
aS'e02bab66-8744-11e2-a0a0-000c29e250a1'
p15
aI01
aI01
aS'aa94c808-86bc-11e2-931d-fa163e065d0c'
p16
aa(lp17
L7000000000000000000000006773050000L
aL7000000000000000000000006773060000L
aS'e02bae86-8744-11e2-a0a0-000c29e250a1'
p18
aI01
aI01
aS'fd0107e2-86bb-11e2-80cc-fa163e065d0c'
p19
aa(lp20
L7000000000000000000000006773060000L
aL7000000000000000000000006773070000L
aS'e02bb3ae-8744-11e2-a0a0-000c29e250a1'
p21
aI01
aI01
aS'fc1b6e62-86bb-11e2-98f6-fa163e065d0c'
p22
aa(lp23
L7000000000000000000000006773070000L
aL7000000000000000000000006773080000L
aS'e02bb6a6-8744-11e2-a0a0-000c29e250a1'
p24
aI01
aI01
aS'f9f7009c-86bb-11e2-a0b6-fa163e065d0c'
p25
aa(lp26
L7000000000000000000000006773080000L
aL7000000000000000000000006773090000L
aS'e02bb976-8744-11e2-a0a0-000c29e250a1'
p27
aI01
aI01
aS'fba6e02e-86bb-11e2-a775-fa163e065d0c'
p28
aa(lp29
L7000000000000000000000006773090000L
aL7000000000000000000000006773100000L
aS'e02bbc3c-8744-11e2-a0a0-000c29e250a1'
p30
aI01
aI01
aS'fc94b060-86bb-11e2-acb1-fa163e065d0c'
p31
aa(lp32
L7000000000000000000000006773100000L
aL7000000000000000000000006773110000L
aS'e02bbeda-8744-11e2-a0a0-000c29e250a1'
p33
aI01
aI01
aS'ab1cfc00-86bc-11e2-b908-fa163e065d0c'
p34
aa(lp35
L7000000000000000000000006773110000L
aL7000000000000000000000006773120000L
aS'e02bc1e6-8744-11e2-a0a0-000c29e250a1'
p36
aI01
aI01
aS'fb051a5a-86bb-11e2-bf39-fa163e065d0c'
p37
aa(lp38
L7000000000000000000000006773120000L
aL7000000000000000000000006773130000L
aS'e02bc592-8744-11e2-a0a0-000c29e250a1'
p39
aI01
aI01
aS'aa94c808-86bc-11e2-931d-fa163e065d0c'
p40
aa(lp41
L7000000000000000000000006773130000L
aL7000000000000000000000006773140000L
aS'e02bc97a-8744-11e2-a0a0-000c29e250a1'
p42
aI01
aI01
aS'936be846-86bc-11e2-921f-001cc0bffc9f'
p43
aa(lp44
L7000000000000000000000006773140000L
aL7000000000000000000000006773150000L
aS'e02bcd58-8744-11e2-a0a0-000c29e250a1'
p45
aI01
aI01
aS'fd0107e2-86bb-11e2-80cc-fa163e065d0c'
p46
aa(lp47
L7000000000000000000000006773150000L
aL7000000000000000000000006773160000L
aS'e02bd136-8744-11e2-a0a0-000c29e250a1'
p48
aI01
aI01
aS'fc1b6e62-86bb-11e2-98f6-fa163e065d0c'
p49
aa(lp50
L7000000000000000000000006773160000L
aL7000000000000000000000006773170000L
aS'e02bd79e-8744-11e2-a0a0-000c29e250a1'
p51
aI01
aI01
aS'f9f7009c-86bb-11e2-a0b6-fa163e065d0c'
p52
aa(lp53
L7000000000000000000000006773170000L
aL7000000000000000000000006773180000L
aS'e02be504-8744-11e2-a0a0-000c29e250a1'
p54
aI01
aI01
aS'6be45f5a-86bd-11e2-93ab-001cc0bffc9f'
p55
aa(lp56
L7000000000000000000000006773180000L
aL7000000000000000000000006773190000L
aS'e02bea4a-8744-11e2-a0a0-000c29e250a1'
p57
aI01
aI01
aS'fba6e02e-86bb-11e2-a775-fa163e065d0c'
p58
aa(lp59
L7000000000000000000000006773190000L
aL7000000000000000000000006773200000L
aS'e02bee00-8744-11e2-a0a0-000c29e250a1'
p60
aI01
aI01
aS'fc94b060-86bb-11e2-acb1-fa163e065d0c'
p61
aa(lp62
L7000000000000000000000006773200000L
aL7000000000000000000000006773210000L
aS'e02bf364-8744-11e2-a0a0-000c29e250a1'
p63
aI01
aI01
aS'ab1cfc00-86bc-11e2-b908-fa163e065d0c'
p64
aa(lp65
L7000000000000000000000006773210000L
aL7000000000000000000000006773220000L
aS'e02bf9fe-8744-11e2-a0a0-000c29e250a1'
p66
aI01
aI01
aS'fb051a5a-86bb-11e2-bf39-fa163e065d0c'
p67
aa(lp68
L7000000000000000000000006773220000L
aL7000000000000000000000006773230000L
aS'e02bff4e-8744-11e2-a0a0-000c29e250a1'
p69
aI01
aI00
aNaa(lp70
L7000000000000000000000006773230000L
aL7000000000000000000000006773240000L
aS'e02c041c-8744-11e2-a0a0-000c29e250a1'
p71
aI01
aI01
aS'aa94c808-86bc-11e2-931d-fa163e065d0c'
p72
aa(lp73
L7000000000000000000000006773240000L
aL7000000000000000000000006773250000L
aS'e02c0822-8744-11e2-a0a0-000c29e250a1'
p74
aI01
aI01
aS'fd0107e2-86bb-11e2-80cc-fa163e065d0c'
p75
aa(lp76
L7000000000000000000000006773250000L
aL7000000000000000000000006773260000L
aS'e02c0ca0-8744-11e2-a0a0-000c29e250a1'
p77
aI01
aI01
aS'f9f7009c-86bb-11e2-a0b6-fa163e065d0c'
p78
aa(lp79
L7000000000000000000000006773260000L
aL7000000000000000000000006773270000L
aS'e02c1146-8744-11e2-a0a0-000c29e250a1'
p80
aI01
aI01
aS'fc1b6e62-86bb-11e2-98f6-fa163e065d0c'
p81
aa(lp82
L7000000000000000000000006773270000L
aL7000000000000000000000006773280000L
aS'e02c16be-8744-11e2-a0a0-000c29e250a1'
p83
aI01
aI01
aS'fba6e02e-86bb-11e2-a775-fa163e065d0c'
p84
aa(lp85
L7000000000000000000000006773280000L
aL7000000000000000000000006773290000L
aS'e02c19d4-8744-11e2-a0a0-000c29e250a1'
p86
aI01
aI00
aNaa(lp87
L7000000000000000000000006773290000L
aL7000000000000000000000006773300000L
aS'e02c212c-8744-11e2-a0a0-000c29e250a1'
p88
aI01
aI01
aS'fc94b060-86bb-11e2-acb1-fa163e065d0c'
p89
aa(lp90
L7000000000000000000000006773300000L
aL7000000000000000000000006773310000L
aS'e02c273a-8744-11e2-a0a0-000c29e250a1'
p91
aI01
aI01
aS'ab1cfc00-86bc-11e2-b908-fa163e065d0c'
p92
aa(lp93
L7000000000000000000000006773310000L
aL7000000000000000000000006773320000L
aS'e02c2cee-8744-11e2-a0a0-000c29e250a1'
p94
aI01
aI00
aNaa(lp95
L7000000000000000000000006773320000L
aL7000000000000000000000006773330000L
aS'e02c3428-8744-11e2-a0a0-000c29e250a1'
p96
aI01
aI01
aS'fb051a5a-86bb-11e2-bf39-fa163e065d0c'
p97
aa(lp98
L7000000000000000000000006773330000L
aL7000000000000000000000006773340000L
aS'e02c39d2-8744-11e2-a0a0-000c29e250a1'
p99
aI01
aI01
aS'aa94c808-86bc-11e2-931d-fa163e065d0c'
p100
aa(lp101
L7000000000000000000000006773340000L
aL7000000000000000000000006773350000L
aS'e02c40d0-8744-11e2-a0a0-000c29e250a1'
p102
aI01
aI01
aS'fd0107e2-86bb-11e2-80cc-fa163e065d0c'
p103
aa(lp104
L7000000000000000000000006773350000L
aL7000000000000000000000006773360000L
aS'e02c45ee-8744-11e2-a0a0-000c29e250a1'
p105
aI01
aI00
aNaa(lp106
L7000000000000000000000006773360000L
aL7000000000000000000000006773370000L
aS'e02c4c1a-8744-11e2-a0a0-000c29e250a1'
p107
aI01
aI00
aNaa(lp108
L7000000000000000000000006773370000L
aL7000000000000000000000006773380000L
aS'e02c5192-8744-11e2-a0a0-000c29e250a1'
p109
aI01
aI00
aNaa(lp110
L7000000000000000000000006773380000L
aL7000000000000000000000006773390000L
aS'e02c5570-8744-11e2-a0a0-000c29e250a1'
p111
aI01
aI00
aNaa(lp112
L7000000000000000000000006773390000L
aL7000000000000000000000006773400000L
aS'e02c5958-8744-11e2-a0a0-000c29e250a1'
p113
aI01
aI00
aNaa(lp114
L7000000000000000000000006773400000L
aL7000000000000000000000006773410000L
aS'e02c5d9a-8744-11e2-a0a0-000c29e250a1'
p115
aI01
aI00
aNaa(lp116
L7000000000000000000000006773410000L
aL7000000000000000000000006773420000L
aS'e02c61b4-8744-11e2-a0a0-000c29e250a1'
p117
aI01
aI00
aNaa(lp118
L7000000000000000000000006773420000L
aL7000000000000000000000006773430000L
aS'e02c668c-8744-11e2-a0a0-000c29e250a1'
p119
aI01
aI00
aNaa(lp120
L7000000000000000000000006773430000L
aL7000000000000000000000006773440000L
aS'e02c698e-8744-11e2-a0a0-000c29e250a1'
p121
aI01
aI00
aNaa(lp122
L7000000000000000000000006773440000L
aL7000000000000000000000006773450000L
aS'e02c6cc2-8744-11e2-a0a0-000c29e250a1'
p123
aI01
aI00
aNaa(lp124
L7000000000000000000000006773450000L
aL7000000000000000000000006773460000L
aS'e02c72b2-8744-11e2-a0a0-000c29e250a1'
p125
aI00
aI00
aNaa(lp126
L7000000000000000000000006773460000L
aL7000000000000000000000006773470000L
aS'e02c76ea-8744-11e2-a0a0-000c29e250a1'
p127
aI00
aI00
aNaa(lp128
L7000000000000000000000006773470000L
aL7000000000000000000000006773480000L
aS'e02c7bc2-8744-11e2-a0a0-000c29e250a1'
p129
aI00
aI00
aNaa(lp130
L7000000000000000000000006773480000L
aL7000000000000000000000006773490000L
aS'e02c7fc8-8744-11e2-a0a0-000c29e250a1'
p131
aI00
aI00
aNaa(lp132
L7000000000000000000000006773490000L
aL7000000000000000000000006773500000L
aS'e02c843c-8744-11e2-a0a0-000c29e250a1'
p133
aI00
aI00
aNaa(lp134
L7000000000000000000000006773500000L
aL7000000000000000000000006773510000L
aS'e02c882e-8744-11e2-a0a0-000c29e250a1'
p135
aI00
aI00
aNaa(lp136
L7000000000000000000000006773510000L
aL7000000000000000000000006773520000L
aS'e02c8c7a-8744-11e2-a0a0-000c29e250a1'
p137
aI00
aI00
aNaa(lp138
L7000000000000000000000006773520000L
aL7000000000000000000000006773530000L
aS'e02c8f68-8744-11e2-a0a0-000c29e250a1'
p139
aI00
aI00
aNaa(lp140
L7000000000000000000000006773530000L
aL7000000000000000000000006773540000L
aS'e02c9346-8744-11e2-a0a0-000c29e250a1'
p141
aI00
aI00
aNaa(lp142
L7000000000000000000000006773540000L
aL7000000000000000000000006773550000L
aS'e02c97c4-8744-11e2-a0a0-000c29e250a1'
p143
aI00
aI00
aNaa(lp144
L7000000000000000000000006773550000L
aL7000000000000000000000006773560000L
aS'e02c9d32-8744-11e2-a0a0-000c29e250a1'
p145
aI00
aI00
aNaa(lp146
L7000000000000000000000006773560000L
aL7000000000000000000000006773570000L
aS'e02ca020-8744-11e2-a0a0-000c29e250a1'
p147
aI00
aI00
aNaa(lp148
L7000000000000000000000006773570000L
aL7000000000000000000000006773580000L
aS'e02ca494-8744-11e2-a0a0-000c29e250a1'
p149
aI00
aI00
aNaa(lp150
L7000000000000000000000006773580000L
aL7000000000000000000000006773590000L
aS'e02ca872-8744-11e2-a0a0-000c29e250a1'
p151
aI00
aI00
aNaa(lp152
L7000000000000000000000006773590000L
aL7000000000000000000000006773600000L
aS'e02cad9a-8744-11e2-a0a0-000c29e250a1'
p153
aI00
aI00
aNaa(lp154
L7000000000000000000000006773600000L
aL7000000000000000000000006773610000L
aS'e02cb1aa-8744-11e2-a0a0-000c29e250a1'
p155
aI00
aI00
aNaa(lp156
L7000000000000000000000006773610000L
aL7000000000000000000000006773620000L
aS'e02cb5ec-8744-11e2-a0a0-000c29e250a1'
p157
aI00
aI00
aNaa(lp158
L7000000000000000000000006773620000L
aL7000000000000000000000006773630000L
aS'e02cbad8-8744-11e2-a0a0-000c29e250a1'
p159
aI00
aI00
aNaa(lp160
L7000000000000000000000006773630000L
aL7000000000000000000000006773640000L
aS'e02cbd9e-8744-11e2-a0a0-000c29e250a1'
p161
aI00
aI00
aNaa(lp162
L7000000000000000000000006773640000L
aL7000000000000000000000006773650000L
aS'e02cc0b4-8744-11e2-a0a0-000c29e250a1'
p163
aI00
aI00
aNaa(lp164
L7000000000000000000000006773650000L
aL7000000000000000000000006773660000L
aS'e02cc4a6-8744-11e2-a0a0-000c29e250a1'
p165
aI00
aI00
aNaa(lp166
L7000000000000000000000006773660000L
aL7000000000000000000000006773670000L
aS'e02cc906-8744-11e2-a0a0-000c29e250a1'
p167
aI00
aI00
aNaa(lp168
L7000000000000000000000006773670000L
aL7000000000000000000000006773680000L
aS'e02ccd02-8744-11e2-a0a0-000c29e250a1'
p169
aI00
aI00
aNaa(lp170
L7000000000000000000000006773680000L
aL7000000000000000000000006773690000L
aS'e02ccf8c-8744-11e2-a0a0-000c29e250a1'
p171
aI00
aI00
aNaa(lp172
L7000000000000000000000006773690000L
aL7000000000000000000000006773700000L
aS'e02cd20c-8744-11e2-a0a0-000c29e250a1'
p173
aI00
aI00
aNaa(lp174
L7000000000000000000000006773700000L
aL7000000000000000000000006773710000L
aS'e02cd48c-8744-11e2-a0a0-000c29e250a1'
p175
aI00
aI00
aNaa(lp176
L7000000000000000000000006773710000L
aL7000000000000000000000006773720000L
aS'e02cd702-8744-11e2-a0a0-000c29e250a1'
p177
aI00
aI00
aNaa(lp178
L7000000000000000000000006773720000L
aL7000000000000000000000006773730000L
aS'e02cd9b4-8744-11e2-a0a0-000c29e250a1'
p179
aI00
aI00
aNaa(lp180
L7000000000000000000000006773730000L
aL7000000000000000000000006773740000L
aS'e02cdc3e-8744-11e2-a0a0-000c29e250a1'
p181
aI00
aI00
aNaa(lp182
L7000000000000000000000006773740000L
aL7000000000000000000000006773750000L
aS'e02ce076-8744-11e2-a0a0-000c29e250a1'
p183
aI00
aI00
aNaa(lp184
L7000000000000000000000006773750000L
aL7000000000000000000000006773760000L
aS'e02ce440-8744-11e2-a0a0-000c29e250a1'
p185
aI00
aI00
aNaa(lp186
L7000000000000000000000006773760000L
aL7000000000000000000000006773770000L
aS'e02ce8aa-8744-11e2-a0a0-000c29e250a1'
p187
aI00
aI00
aNaa(lp188
L7000000000000000000000006773770000L
aL7000000000000000000000006773780000L
aS'e02ceb98-8744-11e2-a0a0-000c29e250a1'
p189
aI00
aI00
aNaa(lp190
L7000000000000000000000006773780000L
aL7000000000000000000000006773790000L
aS'e02cee18-8744-11e2-a0a0-000c29e250a1'
p191
aI00
aI00
aNaa(lp192
L7000000000000000000000006773790000L
aL7000000000000000000000006773800000L
aS'e02cf084-8744-11e2-a0a0-000c29e250a1'
p193
aI00
aI00
aNaa(lp194
L7000000000000000000000006773800000L
aL7000000000000000000000006773810000L
aS'e02cf2fa-8744-11e2-a0a0-000c29e250a1'
p195
aI00
aI00
aNaa(lp196
L7000000000000000000000006773810000L
aL7000000000000000000000006773820000L
aS'e02cf566-8744-11e2-a0a0-000c29e250a1'
p197
aI00
aI00
aNaa(lp198
L7000000000000000000000006773820000L
aL7000000000000000000000006773830000L
aS'e02cf7d2-8744-11e2-a0a0-000c29e250a1'
p199
aI00
aI00
aNaa(lp200
L7000000000000000000000006773830000L
aL7000000000000000000000006773840000L
aS'e02cfa34-8744-11e2-a0a0-000c29e250a1'
p201
aI00
aI00
aNaa(lp202
L7000000000000000000000006773840000L
aL7000000000000000000000006773850000L
aS'e02cfe12-8744-11e2-a0a0-000c29e250a1'
p203
aI00
aI00
aNaa(lp204
L7000000000000000000000006773850000L
aL7000000000000000000000006773860000L
aS'e02d027c-8744-11e2-a0a0-000c29e250a1'
p205
aI00
aI00
aNaa(lp206
L7000000000000000000000006773860000L
aL7000000000000000000000006773870000L
aS'e030491e-8744-11e2-a0a0-000c29e250a1'
p207
aI00
aI00
aNaa(lp208
L7000000000000000000000006773870000L
aL7000000000000000000000006773880000L
aS'e0304dba-8744-11e2-a0a0-000c29e250a1'
p209
aI00
aI00
aNaa(lp210
L7000000000000000000000006773880000L
aL7000000000000000000000006773890000L
aS'e030504e-8744-11e2-a0a0-000c29e250a1'
p211
aI00
aI00
aNaa(lp212
L7000000000000000000000006773890000L
aL7000000000000000000000006773900000L
aS'e03052d8-8744-11e2-a0a0-000c29e250a1'
p213
aI00
aI00
aNaa(lp214
L7000000000000000000000006773900000L
aL7000000000000000000000006773910000L
aS'e03055a8-8744-11e2-a0a0-000c29e250a1'
p215
aI00
aI00
aNaa(lp216
L7000000000000000000000006773910000L
aL7000000000000000000000006773920000L
aS'e0305a9e-8744-11e2-a0a0-000c29e250a1'
p217
aI00
aI00
aNaa(lp218
L7000000000000000000000006773920000L
aL7000000000000000000000006773930000L
aS'e030666a-8744-11e2-a0a0-000c29e250a1'
p219
aI00
aI00
aNaa(lp220
L7000000000000000000000006773930000L
aL7000000000000000000000006773940000L
aS'e03069c6-8744-11e2-a0a0-000c29e250a1'
p221
aI00
aI00
aNaa(lp222
L7000000000000000000000006773940000L
aL7000000000000000000000006773950000L
aS'e0306cbe-8744-11e2-a0a0-000c29e250a1'
p223
aI00
aI00
aNaa(lp224
L7000000000000000000000006773950000L
aL7000000000000000000000006773960000L
aS'e0306fd4-8744-11e2-a0a0-000c29e250a1'
p225
aI00
aI00
aNaa(lp226
L7000000000000000000000006773960000L
aL7000000000000000000000006773970000L
aS'e03072c2-8744-11e2-a0a0-000c29e250a1'
p227
aI00
aI00
aNaa(lp228
L7000000000000000000000006773970000L
aL7000000000000000000000006773980000L
aS'e0307fd8-8744-11e2-a0a0-000c29e250a1'
p229
aI00
aI00
aNaa(lp230
L7000000000000000000000006773980000L
aL7000000000000000000000006773990000L
aS'e030871c-8744-11e2-a0a0-000c29e250a1'
p231
aI00
aI00
aNaa(lp232
L7000000000000000000000006773990000L
aL7000000000000000000000006774000000L
aS'e0308bf4-8744-11e2-a0a0-000c29e250a1'
p233
aI00
aI01
aS'5e10baa4-86bd-11e2-b8c0-001cc0bffc9f'
p234
aa.