(lp1
(lp2
I20000001
aI20020001
aS'a1e2fe42-86bb-11e2-be5b-000c29e250a1'
p3
aI01
aI01
aS'a4de6910-86bb-11e2-ae6d-000c29e250a1'
p4
aa(lp5
I20020001
aI20040001
aS'a1e3b42c-86bb-11e2-be5b-000c29e250a1'
p6
aI01
aI01
aS'a4de6910-86bb-11e2-ae6d-000c29e250a1'
p7
aa(lp8
I20040001
aI20060001
aS'a1e408e6-86bb-11e2-be5b-000c29e250a1'
p9
aI01
aI01
aS'a4de6910-86bb-11e2-ae6d-000c29e250a1'
p10
aa(lp11
I20060001
aI20080001
aS'a1e44e5a-86bb-11e2-be5b-000c29e250a1'
p12
aI01
aI01
aS'a4de6910-86bb-11e2-ae6d-000c29e250a1'
p13
aa(lp14
I20080001
aI20100001
aS'a1e4907c-86bb-11e2-be5b-000c29e250a1'
p15
aI01
aI01
aS'a4de6910-86bb-11e2-ae6d-000c29e250a1'
p16
aa(lp17
I20100001
aI20120001
aS'a1e49a36-86bb-11e2-be5b-000c29e250a1'
p18
aI01
aI01
aS'a4de6910-86bb-11e2-ae6d-000c29e250a1'
p19
aa(lp20
I20120001
aI20140001
aS'a1e49e5a-86bb-11e2-be5b-000c29e250a1'
p21
aI01
aI01
aS'a4de6910-86bb-11e2-ae6d-000c29e250a1'
p22
aa(lp23
I20140001
aI20160001
aS'a1e4a238-86bb-11e2-be5b-000c29e250a1'
p24
aI01
aI01
aS'a4de6910-86bb-11e2-ae6d-000c29e250a1'
p25
aa(lp26
I20160001
aI20180001
aS'a1e4a666-86bb-11e2-be5b-000c29e250a1'
p27
aI01
aI01
aS'a4de6910-86bb-11e2-ae6d-000c29e250a1'
p28
aa(lp29
I20180001
aI20200001
aS'a1e4aa94-86bb-11e2-be5b-000c29e250a1'
p30
aI01
aI01
aS'a4de6910-86bb-11e2-ae6d-000c29e250a1'
p31
aa(lp32
I20200001
aI20220001
aS'a1e4ae86-86bb-11e2-be5b-000c29e250a1'
p33
aI01
aI01
aS'a4de6910-86bb-11e2-ae6d-000c29e250a1'
p34
aa(lp35
I20220001
aI20240001
aS'a1e4b278-86bb-11e2-be5b-000c29e250a1'
p36
aI01
aI01
aS'a4de6910-86bb-11e2-ae6d-000c29e250a1'
p37
aa(lp38
I20240001
aI20260001
aS'a1e4b61a-86bb-11e2-be5b-000c29e250a1'
p39
aI01
aI01
aS'a4de6910-86bb-11e2-ae6d-000c29e250a1'
p40
aa(lp41
I20260001
aI20280001
aS'a1e4b9f8-86bb-11e2-be5b-000c29e250a1'
p42
aI01
aI01
aS'a4de6910-86bb-11e2-ae6d-000c29e250a1'
p43
aa(lp44
I20280001
aI20300001
aS'a1e4be12-86bb-11e2-be5b-000c29e250a1'
p45
aI01
aI01
aS'a4de6910-86bb-11e2-ae6d-000c29e250a1'
p46
aa(lp47
I20300001
aI20320001
aS'a1e4c1d2-86bb-11e2-be5b-000c29e250a1'
p48
aI01
aI01
aS'a4de6910-86bb-11e2-ae6d-000c29e250a1'
p49
aa(lp50
I20320001
aI20340001
aS'a1e4c86c-86bb-11e2-be5b-000c29e250a1'
p51
aI01
aI01
aS'a4de6910-86bb-11e2-ae6d-000c29e250a1'
p52
aa(lp53
I20340001
aI20360001
aS'a1e4ccc2-86bb-11e2-be5b-000c29e250a1'
p54
aI01
aI01
aS'a4de6910-86bb-11e2-ae6d-000c29e250a1'
p55
aa(lp56
I20360001
aI20380001
aS'a1e4d1c2-86bb-11e2-be5b-000c29e250a1'
p57
aI01
aI01
aS'a4de6910-86bb-11e2-ae6d-000c29e250a1'
p58
aa(lp59
I20380001
aI20400001
aS'a1e4d5a0-86bb-11e2-be5b-000c29e250a1'
p60
aI01
aI01
aS'a4de6910-86bb-11e2-ae6d-000c29e250a1'
p61
aa(lp62
I20400001
aI20420001
aS'a1e4d960-86bb-11e2-be5b-000c29e250a1'
p63
aI01
aI01
aS'a4de6910-86bb-11e2-ae6d-000c29e250a1'
p64
aa(lp65
I20420001
aI20440001
aS'a1e4dd3e-86bb-11e2-be5b-000c29e250a1'
p66
aI01
aI01
aS'a4de6910-86bb-11e2-ae6d-000c29e250a1'
p67
aa(lp68
I20440001
aI20460001
aS'a1e4e108-86bb-11e2-be5b-000c29e250a1'
p69
aI01
aI01
aS'a4de6910-86bb-11e2-ae6d-000c29e250a1'
p70
aa(lp71
I20460001
aI20480001
aS'a1e4e4f0-86bb-11e2-be5b-000c29e250a1'
p72
aI01
aI01
aS'a4de6910-86bb-11e2-ae6d-000c29e250a1'
p73
aa(lp74
I20480001
aI20500001
aS'a1e4e96e-86bb-11e2-be5b-000c29e250a1'
p75
aI01
aI01
aS'a4de6910-86bb-11e2-ae6d-000c29e250a1'
p76
aa(lp77
I20500001
aI20520001
aS'a1e4ed38-86bb-11e2-be5b-000c29e250a1'
p78
aI01
aI01
aS'a4de6910-86bb-11e2-ae6d-000c29e250a1'
p79
aa(lp80
I20520001
aI20540001
aS'a1e4f116-86bb-11e2-be5b-000c29e250a1'
p81
aI01
aI01
aS'a4de6910-86bb-11e2-ae6d-000c29e250a1'
p82
aa(lp83
I20540001
aI20560001
aS'a1e4f508-86bb-11e2-be5b-000c29e250a1'
p84
aI01
aI01
aS'a4de6910-86bb-11e2-ae6d-000c29e250a1'
p85
aa(lp86
I20560001
aI20580001
aS'a1e4f8aa-86bb-11e2-be5b-000c29e250a1'
p87
aI01
aI01
aS'a4de6910-86bb-11e2-ae6d-000c29e250a1'
p88
aa(lp89
I20580001
aI20600001
aS'a1e4fc7e-86bb-11e2-be5b-000c29e250a1'
p90
aI01
aI01
aS'a4de6910-86bb-11e2-ae6d-000c29e250a1'
p91
aa(lp92
I20600001
aI20620001
aS'a1e5020a-86bb-11e2-be5b-000c29e250a1'
p93
aI01
aI01
aS'a4de6910-86bb-11e2-ae6d-000c29e250a1'
p94
aa(lp95
I20620001
aI20640001
aS'a1e505de-86bb-11e2-be5b-000c29e250a1'
p96
aI01
aI01
aS'a4de6910-86bb-11e2-ae6d-000c29e250a1'
p97
aa(lp98
I20640001
aI20660001
aS'a1e50980-86bb-11e2-be5b-000c29e250a1'
p99
aI01
aI01
aS'a4de6910-86bb-11e2-ae6d-000c29e250a1'
p100
aa(lp101
I20660001
aI20680001
aS'a1e50d4a-86bb-11e2-be5b-000c29e250a1'
p102
aI01
aI01
aS'a4de6910-86bb-11e2-ae6d-000c29e250a1'
p103
aa(lp104
I20680001
aI20700001
aS'a1e510ec-86bb-11e2-be5b-000c29e250a1'
p105
aI01
aI01
aS'a4de6910-86bb-11e2-ae6d-000c29e250a1'
p106
aa(lp107
I20700001
aI20720001
aS'a1e514e8-86bb-11e2-be5b-000c29e250a1'
p108
aI01
aI01
aS'a4de6910-86bb-11e2-ae6d-000c29e250a1'
p109
aa(lp110
I20720001
aI20740001
aS'a1e5181c-86bb-11e2-be5b-000c29e250a1'
p111
aI01
aI01
aS'a4de6910-86bb-11e2-ae6d-000c29e250a1'
p112
aa(lp113
I20740001
aI20760001
aS'a1e51bbe-86bb-11e2-be5b-000c29e250a1'
p114
aI01
aI01
aS'a4de6910-86bb-11e2-ae6d-000c29e250a1'
p115
aa(lp116
I20760001
aI20780001
aS'a1e51f60-86bb-11e2-be5b-000c29e250a1'
p117
aI01
aI01
aS'a4de6910-86bb-11e2-ae6d-000c29e250a1'
p118
aa(lp119
I20780001
aI20800001
aS'a1e52294-86bb-11e2-be5b-000c29e250a1'
p120
aI01
aI01
aS'a4de6910-86bb-11e2-ae6d-000c29e250a1'
p121
aa(lp122
I20800001
aI20820001
aS'a1e5256e-86bb-11e2-be5b-000c29e250a1'
p123
aI01
aI01
aS'a4de6910-86bb-11e2-ae6d-000c29e250a1'
p124
aa(lp125
I20820001
aI20840001
aS'a1e52906-86bb-11e2-be5b-000c29e250a1'
p126
aI01
aI01
aS'a4de6910-86bb-11e2-ae6d-000c29e250a1'
p127
aa(lp128
I20840001
aI20860001
aS'a1e52ca8-86bb-11e2-be5b-000c29e250a1'
p129
aI01
aI00
aNaa(lp130
I20860001
aI20880001
aS'a1e5304a-86bb-11e2-be5b-000c29e250a1'
p131
aI00
aI00
aNaa(lp132
I20880001
aI20900001
aS'a1e533ec-86bb-11e2-be5b-000c29e250a1'
p133
aI00
aI00
aNaa(lp134
I20900001
aI20920001
aS'a1e5378e-86bb-11e2-be5b-000c29e250a1'
p135
aI00
aI00
aNaa(lp136
I20920001
aI20940001
aS'a1e53bee-86bb-11e2-be5b-000c29e250a1'
p137
aI00
aI00
aNaa(lp138
I20940001
aI20960001
aS'a1e53fcc-86bb-11e2-be5b-000c29e250a1'
p139
aI00
aI00
aNaa(lp140
I20960001
aI20980001
aS'a1e54396-86bb-11e2-be5b-000c29e250a1'
p141
aI00
aI00
aNaa(lp142
I20980001
aI21000001
aS'a1e54738-86bb-11e2-be5b-000c29e250a1'
p143
aI00
aI00
aNaa.