(lp1
(lp2
L7000000000000000000000011129000000L
aL7000000000000000000000011129010000L
aS'e9f94830-8a8a-11e2-a613-fa163e3a40ba'
p3
aI01
aI00
aNaa(lp4
L7000000000000000000000011129010000L
aL7000000000000000000000011129020000L
aS'e9f9aa50-8a8a-11e2-a613-fa163e3a40ba'
p5
aI01
aI00
aNaa(lp6
L7000000000000000000000011129020000L
aL7000000000000000000000011129030000L
aS'e9fa2426-8a8a-11e2-a613-fa163e3a40ba'
p7
aI01
aI00
aNaa(lp8
L7000000000000000000000011129030000L
aL7000000000000000000000011129040000L
aS'e9faa798-8a8a-11e2-a613-fa163e3a40ba'
p9
aI01
aI00
aNaa(lp10
L7000000000000000000000011129040000L
aL7000000000000000000000011129050000L
aS'e9fb1ea8-8a8a-11e2-a613-fa163e3a40ba'
p11
aI01
aI00
aNaa(lp12
L7000000000000000000000011129050000L
aL7000000000000000000000011129060000L
aS'e9fb3db6-8a8a-11e2-a613-fa163e3a40ba'
p13
aI01
aI00
aNaa(lp14
L7000000000000000000000011129060000L
aL7000000000000000000000011129070000L
aS'e9fb47e8-8a8a-11e2-a613-fa163e3a40ba'
p15
aI01
aI00
aNaa(lp16
L7000000000000000000000011129070000L
aL7000000000000000000000011129080000L
aS'e9fb4fd6-8a8a-11e2-a613-fa163e3a40ba'
p17
aI01
aI00
aNaa(lp18
L7000000000000000000000011129080000L
aL7000000000000000000000011129090000L
aS'e9fb57d8-8a8a-11e2-a613-fa163e3a40ba'
p19
aI01
aI00
aNaa(lp20
L7000000000000000000000011129090000L
aL7000000000000000000000011129100000L
aS'e9fb6034-8a8a-11e2-a613-fa163e3a40ba'
p21
aI01
aI00
aNaa(lp22
L7000000000000000000000011129100000L
aL7000000000000000000000011129110000L
aS'e9fb68ea-8a8a-11e2-a613-fa163e3a40ba'
p23
aI01
aI00
aNaa(lp24
L7000000000000000000000011129110000L
aL7000000000000000000000011129120000L
aS'e9fb7150-8a8a-11e2-a613-fa163e3a40ba'
p25
aI01
aI00
aNaa(lp26
L7000000000000000000000011129120000L
aL7000000000000000000000011129130000L
aS'e9fb795c-8a8a-11e2-a613-fa163e3a40ba'
p27
aI01
aI00
aNaa(lp28
L7000000000000000000000011129130000L
aL7000000000000000000000011129140000L
aS'e9fb8302-8a8a-11e2-a613-fa163e3a40ba'
p29
aI01
aI00
aNaa(lp30
L7000000000000000000000011129140000L
aL7000000000000000000000011129150000L
aS'e9fb8c12-8a8a-11e2-a613-fa163e3a40ba'
p31
aI01
aI00
aNaa(lp32
L7000000000000000000000011129150000L
aL7000000000000000000000011129160000L
aS'e9fb93c4-8a8a-11e2-a613-fa163e3a40ba'
p33
aI01
aI00
aNaa(lp34
L7000000000000000000000011129160000L
aL7000000000000000000000011129170000L
aS'e9fb9b08-8a8a-11e2-a613-fa163e3a40ba'
p35
aI01
aI00
aNaa(lp36
L7000000000000000000000011129170000L
aL7000000000000000000000011129180000L
aS'e9fba288-8a8a-11e2-a613-fa163e3a40ba'
p37
aI01
aI00
aNaa(lp38
L7000000000000000000000011129180000L
aL7000000000000000000000011129190000L
aS'e9fbaab2-8a8a-11e2-a613-fa163e3a40ba'
p39
aI01
aI00
aNaa(lp40
L7000000000000000000000011129190000L
aL7000000000000000000000011129200000L
aS'e9fbb39a-8a8a-11e2-a613-fa163e3a40ba'
p41
aI01
aI00
aNaa(lp42
L7000000000000000000000011129200000L
aL7000000000000000000000011129210000L
aS'e9fbbc0a-8a8a-11e2-a613-fa163e3a40ba'
p43
aI01
aI00
aNaa(lp44
L7000000000000000000000011129210000L
aL7000000000000000000000011129220000L
aS'e9fbc376-8a8a-11e2-a613-fa163e3a40ba'
p45
aI01
aI00
aNaa(lp46
L7000000000000000000000011129220000L
aL7000000000000000000000011129230000L
aS'e9fbcb0a-8a8a-11e2-a613-fa163e3a40ba'
p47
aI01
aI00
aNaa(lp48
L7000000000000000000000011129230000L
aL7000000000000000000000011129240000L
aS'e9fbd406-8a8a-11e2-a613-fa163e3a40ba'
p49
aI01
aI00
aNaa(lp50
L7000000000000000000000011129240000L
aL7000000000000000000000011129250000L
aS'e9fbdcbc-8a8a-11e2-a613-fa163e3a40ba'
p51
aI01
aI00
aNaa(lp52
L7000000000000000000000011129250000L
aL7000000000000000000000011129260000L
aS'e9fbe5ea-8a8a-11e2-a613-fa163e3a40ba'
p53
aI01
aI00
aNaa(lp54
L7000000000000000000000011129260000L
aL7000000000000000000000011129270000L
aS'e9fbed92-8a8a-11e2-a613-fa163e3a40ba'
p55
aI01
aI00
aNaa(lp56
L7000000000000000000000011129270000L
aL7000000000000000000000011129280000L
aS'e9fbf648-8a8a-11e2-a613-fa163e3a40ba'
p57
aI01
aI00
aNaa(lp58
L7000000000000000000000011129280000L
aL7000000000000000000000011129290000L
aS'e9fbfe0e-8a8a-11e2-a613-fa163e3a40ba'
p59
aI01
aI00
aNaa(lp60
L7000000000000000000000011129290000L
aL7000000000000000000000011129300000L
aS'e9fc06b0-8a8a-11e2-a613-fa163e3a40ba'
p61
aI01
aI00
aNaa(lp62
L7000000000000000000000011129300000L
aL7000000000000000000000011129310000L
aS'e9fc0dea-8a8a-11e2-a613-fa163e3a40ba'
p63
aI01
aI00
aNaa(lp64
L7000000000000000000000011129310000L
aL7000000000000000000000011129320000L
aS'e9fc1682-8a8a-11e2-a613-fa163e3a40ba'
p65
aI01
aI00
aNaa(lp66
L7000000000000000000000011129320000L
aL7000000000000000000000011129330000L
aS'e9fc193e-8a8a-11e2-a613-fa163e3a40ba'
p67
aI01
aI00
aNaa(lp68
L7000000000000000000000011129330000L
aL7000000000000000000000011129340000L
aS'e9fc1c90-8a8a-11e2-a613-fa163e3a40ba'
p69
aI01
aI00
aNaa(lp70
L7000000000000000000000011129340000L
aL7000000000000000000000011129350000L
aS'e9fc1f4c-8a8a-11e2-a613-fa163e3a40ba'
p71
aI01
aI00
aNaa(lp72
L7000000000000000000000011129350000L
aL7000000000000000000000011129360000L
aS'e9fc21ea-8a8a-11e2-a613-fa163e3a40ba'
p73
aI01
aI00
aNaa(lp74
L7000000000000000000000011129360000L
aL7000000000000000000000011129370000L
aS'e9fc251e-8a8a-11e2-a613-fa163e3a40ba'
p75
aI01
aI00
aNaa(lp76
L7000000000000000000000011129370000L
aL7000000000000000000000011129380000L
aS'e9fc2802-8a8a-11e2-a613-fa163e3a40ba'
p77
aI01
aI00
aNaa(lp78
L7000000000000000000000011129380000L
aL7000000000000000000000011129390000L
aS'e9fc2ac8-8a8a-11e2-a613-fa163e3a40ba'
p79
aI01
aI00
aNaa(lp80
L7000000000000000000000011129390000L
aL7000000000000000000000011129400000L
aS'e9fc2d66-8a8a-11e2-a613-fa163e3a40ba'
p81
aI01
aI00
aNaa(lp82
L7000000000000000000000011129400000L
aL7000000000000000000000011129410000L
aS'e9fc3004-8a8a-11e2-a613-fa163e3a40ba'
p83
aI01
aI00
aNaa(lp84
L7000000000000000000000011129410000L
aL7000000000000000000000011129420000L
aS'e9fc32a2-8a8a-11e2-a613-fa163e3a40ba'
p85
aI01
aI00
aNaa(lp86
L7000000000000000000000011129420000L
aL7000000000000000000000011129430000L
aS'e9fc357c-8a8a-11e2-a613-fa163e3a40ba'
p87
aI01
aI00
aNaa(lp88
L7000000000000000000000011129430000L
aL7000000000000000000000011129440000L
aS'e9fc3838-8a8a-11e2-a613-fa163e3a40ba'
p89
aI01
aI00
aNaa(lp90
L7000000000000000000000011129440000L
aL7000000000000000000000011129450000L
aS'e9fc3ad6-8a8a-11e2-a613-fa163e3a40ba'
p91
aI01
aI00
aNaa(lp92
L7000000000000000000000011129450000L
aL7000000000000000000000011129460000L
aS'e9fc3d74-8a8a-11e2-a613-fa163e3a40ba'
p93
aI01
aI00
aNaa(lp94
L7000000000000000000000011129460000L
aL7000000000000000000000011129470000L
aS'e9fc4030-8a8a-11e2-a613-fa163e3a40ba'
p95
aI01
aI00
aNaa(lp96
L7000000000000000000000011129470000L
aL7000000000000000000000011129480000L
aS'e9fc438c-8a8a-11e2-a613-fa163e3a40ba'
p97
aI01
aI00
aNaa(lp98
L7000000000000000000000011129480000L
aL7000000000000000000000011129490000L
aS'e9fc4648-8a8a-11e2-a613-fa163e3a40ba'
p99
aI01
aI00
aNaa(lp100
L7000000000000000000000011129490000L
aL7000000000000000000000011129500000L
aS'e9fc48c8-8a8a-11e2-a613-fa163e3a40ba'
p101
aI01
aI00
aNaa(lp102
L7000000000000000000000011129500000L
aL7000000000000000000000011129510000L
aS'e9fc4bca-8a8a-11e2-a613-fa163e3a40ba'
p103
aI01
aI00
aNaa(lp104
L7000000000000000000000011129510000L
aL7000000000000000000000011129520000L
aS'e9fc4ed6-8a8a-11e2-a613-fa163e3a40ba'
p105
aI01
aI00
aNaa(lp106
L7000000000000000000000011129520000L
aL7000000000000000000000011129530000L
aS'e9fc5188-8a8a-11e2-a613-fa163e3a40ba'
p107
aI01
aI00
aNaa(lp108
L7000000000000000000000011129530000L
aL7000000000000000000000011129540000L
aS'e9fc543a-8a8a-11e2-a613-fa163e3a40ba'
p109
aI01
aI00
aNaa(lp110
L7000000000000000000000011129540000L
aL7000000000000000000000011129550000L
aS'e9fc56ec-8a8a-11e2-a613-fa163e3a40ba'
p111
aI01
aI00
aNaa(lp112
L7000000000000000000000011129550000L
aL7000000000000000000000011129560000L
aS'e9fc59c6-8a8a-11e2-a613-fa163e3a40ba'
p113
aI01
aI00
aNaa(lp114
L7000000000000000000000011129560000L
aL7000000000000000000000011129570000L
aS'e9fc5c78-8a8a-11e2-a613-fa163e3a40ba'
p115
aI01
aI00
aNaa(lp116
L7000000000000000000000011129570000L
aL7000000000000000000000011129580000L
aS'e9fc5f2a-8a8a-11e2-a613-fa163e3a40ba'
p117
aI01
aI00
aNaa(lp118
L7000000000000000000000011129580000L
aL7000000000000000000000011129590000L
aS'e9fc61dc-8a8a-11e2-a613-fa163e3a40ba'
p119
aI01
aI00
aNaa(lp120
L7000000000000000000000011129590000L
aL7000000000000000000000011129600000L
aS'e9fc648e-8a8a-11e2-a613-fa163e3a40ba'
p121
aI01
aI00
aNaa(lp122
L7000000000000000000000011129600000L
aL7000000000000000000000011129610000L
aS'e9fc674a-8a8a-11e2-a613-fa163e3a40ba'
p123
aI01
aI00
aNaa(lp124
L7000000000000000000000011129610000L
aL7000000000000000000000011129620000L
aS'e9fc6a9c-8a8a-11e2-a613-fa163e3a40ba'
p125
aI01
aI00
aNaa(lp126
L7000000000000000000000011129620000L
aL7000000000000000000000011129630000L
aS'e9fc6d62-8a8a-11e2-a613-fa163e3a40ba'
p127
aI01
aI00
aNaa(lp128
L7000000000000000000000011129630000L
aL7000000000000000000000011129640000L
aS'e9fc7050-8a8a-11e2-a613-fa163e3a40ba'
p129
aI01
aI00
aNaa(lp130
L7000000000000000000000011129640000L
aL7000000000000000000000011129650000L
aS'e9fc7384-8a8a-11e2-a613-fa163e3a40ba'
p131
aI01
aI00
aNaa(lp132
L7000000000000000000000011129650000L
aL7000000000000000000000011129660000L
aS'e9fc7668-8a8a-11e2-a613-fa163e3a40ba'
p133
aI01
aI00
aNaa(lp134
L7000000000000000000000011129660000L
aL7000000000000000000000011129670000L
aS'e9fc7924-8a8a-11e2-a613-fa163e3a40ba'
p135
aI01
aI00
aNaa(lp136
L7000000000000000000000011129670000L
aL7000000000000000000000011129680000L
aS'e9fc7bcc-8a8a-11e2-a613-fa163e3a40ba'
p137
aI01
aI00
aNaa(lp138
L7000000000000000000000011129680000L
aL7000000000000000000000011129690000L
aS'e9fc7f0a-8a8a-11e2-a613-fa163e3a40ba'
p139
aI01
aI00
aNaa(lp140
L7000000000000000000000011129690000L
aL7000000000000000000000011129700000L
aS'e9fc81c6-8a8a-11e2-a613-fa163e3a40ba'
p141
aI01
aI00
aNaa(lp142
L7000000000000000000000011129700000L
aL7000000000000000000000011129710000L
aS'e9fc846e-8a8a-11e2-a613-fa163e3a40ba'
p143
aI01
aI00
aNaa(lp144
L7000000000000000000000011129710000L
aL7000000000000000000000011129720000L
aS'e9fc8720-8a8a-11e2-a613-fa163e3a40ba'
p145
aI01
aI00
aNaa(lp146
L7000000000000000000000011129720000L
aL7000000000000000000000011129730000L
aS'e9fc89c8-8a8a-11e2-a613-fa163e3a40ba'
p147
aI01
aI00
aNaa(lp148
L7000000000000000000000011129730000L
aL7000000000000000000000011129740000L
aS'e9fc8c66-8a8a-11e2-a613-fa163e3a40ba'
p149
aI01
aI00
aNaa(lp150
L7000000000000000000000011129740000L
aL7000000000000000000000011129750000L
aS'e9fc8f36-8a8a-11e2-a613-fa163e3a40ba'
p151
aI01
aI00
aNaa(lp152
L7000000000000000000000011129750000L
aL7000000000000000000000011129760000L
aS'e9fc9242-8a8a-11e2-a613-fa163e3a40ba'
p153
aI01
aI00
aNaa(lp154
L7000000000000000000000011129760000L
aL7000000000000000000000011129770000L
aS'e9fc94fe-8a8a-11e2-a613-fa163e3a40ba'
p155
aI01
aI00
aNaa(lp156
L7000000000000000000000011129770000L
aL7000000000000000000000011129780000L
aS'e9fc97b0-8a8a-11e2-a613-fa163e3a40ba'
p157
aI01
aI00
aNaa(lp158
L7000000000000000000000011129780000L
aL7000000000000000000000011129790000L
aS'e9fc9ae4-8a8a-11e2-a613-fa163e3a40ba'
p159
aI01
aI00
aNaa(lp160
L7000000000000000000000011129790000L
aL7000000000000000000000011129800000L
aS'e9fc9d96-8a8a-11e2-a613-fa163e3a40ba'
p161
aI01
aI00
aNaa(lp162
L7000000000000000000000011129800000L
aL7000000000000000000000011129810000L
aS'e9fca048-8a8a-11e2-a613-fa163e3a40ba'
p163
aI01
aI00
aNaa(lp164
L7000000000000000000000011129810000L
aL7000000000000000000000011129820000L
aS'e9fca2fa-8a8a-11e2-a613-fa163e3a40ba'
p165
aI01
aI00
aNaa(lp166
L7000000000000000000000011129820000L
aL7000000000000000000000011129830000L
aS'e9fca5a2-8a8a-11e2-a613-fa163e3a40ba'
p167
aI01
aI00
aNaa(lp168
L7000000000000000000000011129830000L
aL7000000000000000000000011129840000L
aS'e9fca854-8a8a-11e2-a613-fa163e3a40ba'
p169
aI01
aI00
aNaa(lp170
L7000000000000000000000011129840000L
aL7000000000000000000000011129850000L
aS'e9fcab38-8a8a-11e2-a613-fa163e3a40ba'
p171
aI01
aI00
aNaa(lp172
L7000000000000000000000011129850000L
aL7000000000000000000000011129860000L
aS'e9fcae4e-8a8a-11e2-a613-fa163e3a40ba'
p173
aI01
aI00
aNaa(lp174
L7000000000000000000000011129860000L
aL7000000000000000000000011129870000L
aS'e9fcb10a-8a8a-11e2-a613-fa163e3a40ba'
p175
aI01
aI00
aNaa(lp176
L7000000000000000000000011129870000L
aL7000000000000000000000011129880000L
aS'e9fcb3bc-8a8a-11e2-a613-fa163e3a40ba'
p177
aI01
aI00
aNaa(lp178
L7000000000000000000000011129880000L
aL7000000000000000000000011129890000L
aS'e9fcb6f0-8a8a-11e2-a613-fa163e3a40ba'
p179
aI01
aI00
aNaa(lp180
L7000000000000000000000011129890000L
aL7000000000000000000000011129900000L
aS'e9fcb9c0-8a8a-11e2-a613-fa163e3a40ba'
p181
aI01
aI00
aNaa(lp182
L7000000000000000000000011129900000L
aL7000000000000000000000011129910000L
aS'e9fcbc7c-8a8a-11e2-a613-fa163e3a40ba'
p183
aI01
aI00
aNaa(lp184
L7000000000000000000000011129910000L
aL7000000000000000000000011129920000L
aS'e9fcbf1a-8a8a-11e2-a613-fa163e3a40ba'
p185
aI01
aI00
aNaa(lp186
L7000000000000000000000011129920000L
aL7000000000000000000000011129930000L
aS'e9fcc258-8a8a-11e2-a613-fa163e3a40ba'
p187
aI01
aI00
aNaa(lp188
L7000000000000000000000011129930000L
aL7000000000000000000000011129940000L
aS'e9fcc4e2-8a8a-11e2-a613-fa163e3a40ba'
p189
aI01
aI00
aNaa(lp190
L7000000000000000000000011129940000L
aL7000000000000000000000011129950000L
aS'e9fcc794-8a8a-11e2-a613-fa163e3a40ba'
p191
aI01
aI00
aNaa(lp192
L7000000000000000000000011129950000L
aL7000000000000000000000011129960000L
aS'e9fcca46-8a8a-11e2-a613-fa163e3a40ba'
p193
aI01
aI00
aNaa(lp194
L7000000000000000000000011129960000L
aL7000000000000000000000011129970000L
aS'e9fcccda-8a8a-11e2-a613-fa163e3a40ba'
p195
aI01
aI00
aNaa(lp196
L7000000000000000000000011129970000L
aL7000000000000000000000011129980000L
aS'e9fccfa0-8a8a-11e2-a613-fa163e3a40ba'
p197
aI01
aI00
aNaa(lp198
L7000000000000000000000011129980000L
aL7000000000000000000000011129990000L
aS'e9fcd252-8a8a-11e2-a613-fa163e3a40ba'
p199
aI01
aI00
aNaa(lp200
L7000000000000000000000011129990000L
aL7000000000000000000000011130000000L
aS'e9fcd54a-8a8a-11e2-a613-fa163e3a40ba'
p201
aI01
aI00
aNaa.