(lp1
(lp2
L7000000000000000000000030857750000L
aL7000000000000000000000030857770000L
aS'a360263e-923a-11e2-adf3-123140ff4442'
p3
aI01
aI01
aS'6c2efc8c-9017-11e2-a38f-00e07dd5df94'
p4
aa(lp5
L7000000000000000000000030857770000L
aL7000000000000000000000030857790000L
aS'a3602b98-923a-11e2-adf3-123140ff4442'
p6
aI01
aI01
aS'bd3a97c0-9194-11e2-af93-fa163e3a40ba'
p7
aa(lp8
L7000000000000000000000030857790000L
aL7000000000000000000000030857810000L
aS'a3602e7c-923a-11e2-adf3-123140ff4442'
p9
aI01
aI01
aS'bd39c002-9194-11e2-8d20-fa163e3a40ba'
p10
aa(lp11
L7000000000000000000000030857810000L
aL7000000000000000000000030857830000L
aS'a36030f2-923a-11e2-adf3-123140ff4442'
p12
aI01
aI01
aS'3798871c-8b5e-11e2-b9f7-000c29e250a1'
p13
aa(lp14
L7000000000000000000000030857830000L
aL7000000000000000000000030857850000L
aS'a3603548-923a-11e2-adf3-123140ff4442'
p15
aI01
aI01
aS'bd39dc04-9194-11e2-a934-fa163e3a40ba'
p16
aa(lp17
L7000000000000000000000030857850000L
aL7000000000000000000000030857870000L
aS'a360384a-923a-11e2-adf3-123140ff4442'
p18
aI01
aI01
aS'6bc6fd30-9017-11e2-9d7b-00e07dd5df94'
p19
aa(lp20
L7000000000000000000000030857870000L
aL7000000000000000000000030857890000L
aS'a3603ab6-923a-11e2-adf3-123140ff4442'
p21
aI01
aI01
aS'680e0eb0-8d6d-11e2-a7ac-bcaec534d4d2'
p22
aa(lp23
L7000000000000000000000030857890000L
aL7000000000000000000000030857910000L
aS'a3603d0e-923a-11e2-adf3-123140ff4442'
p24
aI01
aI01
aS'bd39dd12-9194-11e2-8b41-fa163e3a40ba'
p25
aa(lp26
L7000000000000000000000030857910000L
aL7000000000000000000000030857930000L
aS'a360401a-923a-11e2-adf3-123140ff4442'
p27
aI01
aI01
aS'3873a39c-8b5e-11e2-b6a8-000c29e250a1'
p28
aa(lp29
L7000000000000000000000030857930000L
aL7000000000000000000000030857950000L
aS'a360474a-923a-11e2-adf3-123140ff4442'
p30
aI01
aI01
aS'bd3a97c0-9194-11e2-af93-fa163e3a40ba'
p31
aa(lp32
L7000000000000000000000030857950000L
aL7000000000000000000000030857970000L
aS'a36049d4-923a-11e2-adf3-123140ff4442'
p33
aI01
aI01
aS'bd39c002-9194-11e2-8d20-fa163e3a40ba'
p34
aa(lp35
L7000000000000000000000030857970000L
aL7000000000000000000000030857990000L
aS'a3604c36-923a-11e2-adf3-123140ff4442'
p36
aI01
aI01
aS'bd39dc04-9194-11e2-a934-fa163e3a40ba'
p37
aa(lp38
L7000000000000000000000030857990000L
aL7000000000000000000000030858010000L
aS'a3604e84-923a-11e2-adf3-123140ff4442'
p39
aI01
aI01
aS'bd39dd12-9194-11e2-8b41-fa163e3a40ba'
p40
aa(lp41
L7000000000000000000000030858010000L
aL7000000000000000000000030858030000L
aS'a36050e6-923a-11e2-adf3-123140ff4442'
p42
aI01
aI01
aS'680e0eb0-8d6d-11e2-a7ac-bcaec534d4d2'
p43
aa(lp44
L7000000000000000000000030858030000L
aL7000000000000000000000030858050000L
aS'a360533e-923a-11e2-adf3-123140ff4442'
p45
aI01
aI01
aS'37fe4110-8b5e-11e2-a3da-000c29e250a1'
p46
aa(lp47
L7000000000000000000000030858050000L
aL7000000000000000000000030858070000L
aS'a360558c-923a-11e2-adf3-123140ff4442'
p48
aI01
aI01
aS'bd3a97c0-9194-11e2-af93-fa163e3a40ba'
p49
aa(lp50
L7000000000000000000000030858070000L
aL7000000000000000000000030858090000L
aS'a36057e4-923a-11e2-adf3-123140ff4442'
p51
aI01
aI01
aS'bd39c002-9194-11e2-8d20-fa163e3a40ba'
p52
aa(lp53
L7000000000000000000000030858090000L
aL7000000000000000000000030858110000L
aS'a3605aaa-923a-11e2-adf3-123140ff4442'
p54
aI01
aI01
aS'6b7917fa-9017-11e2-a13c-00e07dd5df94'
p55
aa(lp56
L7000000000000000000000030858110000L
aL7000000000000000000000030858130000L
aS'a3605d16-923a-11e2-adf3-123140ff4442'
p57
aI01
aI01
aS'bd39dc04-9194-11e2-a934-fa163e3a40ba'
p58
aa(lp59
L7000000000000000000000030858130000L
aL7000000000000000000000030858150000L
aS'a3605f78-923a-11e2-adf3-123140ff4442'
p60
aI01
aI01
aS'bd39dd12-9194-11e2-8b41-fa163e3a40ba'
p61
aa(lp62
L7000000000000000000000030858150000L
aL7000000000000000000000030858170000L
aS'a36061da-923a-11e2-adf3-123140ff4442'
p63
aI01
aI01
aS'371798f0-8b5e-11e2-a36e-000c29e250a1'
p64
aa(lp65
L7000000000000000000000030858170000L
aL7000000000000000000000030858190000L
aS'a360643c-923a-11e2-adf3-123140ff4442'
p66
aI01
aI01
aS'6ce031e6-9017-11e2-baa6-00e07dd5df94'
p67
aa(lp68
L7000000000000000000000030858190000L
aL7000000000000000000000030858210000L
aS'a360668a-923a-11e2-adf3-123140ff4442'
p69
aI01
aI01
aS'680e0eb0-8d6d-11e2-a7ac-bcaec534d4d2'
p70
aa(lp71
L7000000000000000000000030858210000L
aL7000000000000000000000030858230000L
aS'a36068e2-923a-11e2-adf3-123140ff4442'
p72
aI01
aI01
aS'bd39c002-9194-11e2-8d20-fa163e3a40ba'
p73
aa(lp74
L7000000000000000000000030858230000L
aL7000000000000000000000030858250000L
aS'a3606b30-923a-11e2-adf3-123140ff4442'
p75
aI01
aI01
aS'bd3a97c0-9194-11e2-af93-fa163e3a40ba'
p76
aa(lp77
L7000000000000000000000030858250000L
aL7000000000000000000000030858270000L
aS'a3606d88-923a-11e2-adf3-123140ff4442'
p78
aI01
aI01
aS'6c2efc8c-9017-11e2-a38f-00e07dd5df94'
p79
aa(lp80
L7000000000000000000000030858270000L
aL7000000000000000000000030858290000L
aS'a3606fd6-923a-11e2-adf3-123140ff4442'
p81
aI01
aI01
aS'6c8d8022-9017-11e2-8529-00e07dd5df94'
p82
aa(lp83
L7000000000000000000000030858290000L
aL7000000000000000000000030858310000L
aS'a360722e-923a-11e2-adf3-123140ff4442'
p84
aI01
aI01
aS'bd39dc04-9194-11e2-a934-fa163e3a40ba'
p85
aa(lp86
L7000000000000000000000030858310000L
aL7000000000000000000000030858330000L
aS'a360747c-923a-11e2-adf3-123140ff4442'
p87
aI01
aI01
aS'bd39dd12-9194-11e2-8b41-fa163e3a40ba'
p88
aa(lp89
L7000000000000000000000030858330000L
aL7000000000000000000000030858350000L
aS'a36077b0-923a-11e2-adf3-123140ff4442'
p90
aI01
aI01
aS'680e0eb0-8d6d-11e2-a7ac-bcaec534d4d2'
p91
aa(lp92
L7000000000000000000000030858350000L
aL7000000000000000000000030858370000L
aS'a3607a12-923a-11e2-adf3-123140ff4442'
p93
aI01
aI01
aS'bd39c002-9194-11e2-8d20-fa163e3a40ba'
p94
aa(lp95
L7000000000000000000000030858370000L
aL7000000000000000000000030858390000L
aS'a3607c60-923a-11e2-adf3-123140ff4442'
p96
aI01
aI01
aS'bd3a97c0-9194-11e2-af93-fa163e3a40ba'
p97
aa(lp98
L7000000000000000000000030858390000L
aL7000000000000000000000030858410000L
aS'a3607eae-923a-11e2-adf3-123140ff4442'
p99
aI01
aI01
aS'6bc6fd30-9017-11e2-9d7b-00e07dd5df94'
p100
aa(lp101
L7000000000000000000000030858410000L
aL7000000000000000000000030858430000L
aS'a36080fc-923a-11e2-adf3-123140ff4442'
p102
aI01
aI01
aS'bd39dc04-9194-11e2-a934-fa163e3a40ba'
p103
aa(lp104
L7000000000000000000000030858430000L
aL7000000000000000000000030858450000L
aS'a360834a-923a-11e2-adf3-123140ff4442'
p105
aI01
aI01
aS'3798871c-8b5e-11e2-b9f7-000c29e250a1'
p106
aa(lp107
L7000000000000000000000030858450000L
aL7000000000000000000000030858470000L
aS'a36085a2-923a-11e2-adf3-123140ff4442'
p108
aI01
aI01
aS'bd39dd12-9194-11e2-8b41-fa163e3a40ba'
p109
aa(lp110
L7000000000000000000000030858470000L
aL7000000000000000000000030858490000L
aS'a3608804-923a-11e2-adf3-123140ff4442'
p111
aI01
aI01
aS'3873a39c-8b5e-11e2-b6a8-000c29e250a1'
p112
aa(lp113
L7000000000000000000000030858490000L
aL7000000000000000000000030858510000L
aS'a3608a66-923a-11e2-adf3-123140ff4442'
p114
aI01
aI01
aS'bd39c002-9194-11e2-8d20-fa163e3a40ba'
p115
aa(lp116
L7000000000000000000000030858510000L
aL7000000000000000000000030858530000L
aS'a3608cb4-923a-11e2-adf3-123140ff4442'
p117
aI01
aI01
aS'680e0eb0-8d6d-11e2-a7ac-bcaec534d4d2'
p118
aa(lp119
L7000000000000000000000030858530000L
aL7000000000000000000000030858550000L
aS'a3608f16-923a-11e2-adf3-123140ff4442'
p120
aI01
aI01
aS'bd3a97c0-9194-11e2-af93-fa163e3a40ba'
p121
aa(lp122
L7000000000000000000000030858550000L
aL7000000000000000000000030858570000L
aS'a3609164-923a-11e2-adf3-123140ff4442'
p123
aI01
aI01
aS'bd39dc04-9194-11e2-a934-fa163e3a40ba'
p124
aa(lp125
L7000000000000000000000030858570000L
aL7000000000000000000000030858590000L
aS'a36093c6-923a-11e2-adf3-123140ff4442'
p126
aI01
aI01
aS'bd39dd12-9194-11e2-8b41-fa163e3a40ba'
p127
aa(lp128
L7000000000000000000000030858590000L
aL7000000000000000000000030858610000L
aS'a3609614-923a-11e2-adf3-123140ff4442'
p129
aI01
aI01
aS'6b7917fa-9017-11e2-a13c-00e07dd5df94'
p130
aa(lp131
L7000000000000000000000030858610000L
aL7000000000000000000000030858630000L
aS'a3609862-923a-11e2-adf3-123140ff4442'
p132
aI01
aI01
aS'37fe4110-8b5e-11e2-a3da-000c29e250a1'
p133
aa(lp134
L7000000000000000000000030858630000L
aL7000000000000000000000030858650000L
aS'a3609ac4-923a-11e2-adf3-123140ff4442'
p135
aI01
aI01
aS'bd39c002-9194-11e2-8d20-fa163e3a40ba'
p136
aa(lp137
L7000000000000000000000030858650000L
aL7000000000000000000000030858670000L
aS'a3609d30-923a-11e2-adf3-123140ff4442'
p138
aI01
aI01
aS'bd3a97c0-9194-11e2-af93-fa163e3a40ba'
p139
aa(lp140
L7000000000000000000000030858670000L
aL7000000000000000000000030858690000L
aS'a3609f7e-923a-11e2-adf3-123140ff4442'
p141
aI01
aI01
aS'6ce031e6-9017-11e2-baa6-00e07dd5df94'
p142
aa(lp143
L7000000000000000000000030858690000L
aL7000000000000000000000030858710000L
aS'a360a1e0-923a-11e2-adf3-123140ff4442'
p144
aI01
aI01
aS'680e0eb0-8d6d-11e2-a7ac-bcaec534d4d2'
p145
aa(lp146
L7000000000000000000000030858710000L
aL7000000000000000000000030858730000L
aS'a360a42e-923a-11e2-adf3-123140ff4442'
p147
aI01
aI01
aS'bd39dd12-9194-11e2-8b41-fa163e3a40ba'
p148
aa(lp149
L7000000000000000000000030858730000L
aL7000000000000000000000030858750000L
aS'a360a67c-923a-11e2-adf3-123140ff4442'
p150
aI01
aI01
aS'bd39dc04-9194-11e2-a934-fa163e3a40ba'
p151
aa(lp152
L7000000000000000000000030858750000L
aL7000000000000000000000030858770000L
aS'a360a8d4-923a-11e2-adf3-123140ff4442'
p153
aI01
aI01
aS'371798f0-8b5e-11e2-a36e-000c29e250a1'
p154
aa(lp155
L7000000000000000000000030858770000L
aL7000000000000000000000030858790000L
aS'a360ab36-923a-11e2-adf3-123140ff4442'
p156
aI01
aI01
aS'6c2efc8c-9017-11e2-a38f-00e07dd5df94'
p157
aa(lp158
L7000000000000000000000030858790000L
aL7000000000000000000000030858810000L
aS'a360ad84-923a-11e2-adf3-123140ff4442'
p159
aI01
aI01
aS'6c8d8022-9017-11e2-8529-00e07dd5df94'
p160
aa(lp161
L7000000000000000000000030858810000L
aL7000000000000000000000030858830000L
aS'a360afd2-923a-11e2-adf3-123140ff4442'
p162
aI01
aI01
aS'bd39c002-9194-11e2-8d20-fa163e3a40ba'
p163
aa(lp164
L7000000000000000000000030858830000L
aL7000000000000000000000030858850000L
aS'a360b220-923a-11e2-adf3-123140ff4442'
p165
aI01
aI01
aS'bd3a97c0-9194-11e2-af93-fa163e3a40ba'
p166
aa(lp167
L7000000000000000000000030858850000L
aL7000000000000000000000030858870000L
aS'a360b478-923a-11e2-adf3-123140ff4442'
p168
aI01
aI01
aS'680e0eb0-8d6d-11e2-a7ac-bcaec534d4d2'
p169
aa(lp170
L7000000000000000000000030858870000L
aL7000000000000000000000030858890000L
aS'a360bac2-923a-11e2-adf3-123140ff4442'
p171
aI01
aI01
aS'bd39dd12-9194-11e2-8b41-fa163e3a40ba'
p172
aa(lp173
L7000000000000000000000030858890000L
aL7000000000000000000000030858910000L
aS'a360bd60-923a-11e2-adf3-123140ff4442'
p174
aI01
aI01
aS'bd39dc04-9194-11e2-a934-fa163e3a40ba'
p175
aa(lp176
L7000000000000000000000030858910000L
aL7000000000000000000000030858930000L
aS'a360bfc2-923a-11e2-adf3-123140ff4442'
p177
aI01
aI01
aS'3798871c-8b5e-11e2-b9f7-000c29e250a1'
p178
aa(lp179
L7000000000000000000000030858930000L
aL7000000000000000000000030858950000L
aS'a360c21a-923a-11e2-adf3-123140ff4442'
p180
aI01
aI01
aS'bd39c002-9194-11e2-8d20-fa163e3a40ba'
p181
aa(lp182
L7000000000000000000000030858950000L
aL7000000000000000000000030858970000L
aS'a360c490-923a-11e2-adf3-123140ff4442'
p183
aI01
aI01
aS'6b7917fa-9017-11e2-a13c-00e07dd5df94'
p184
aa(lp185
L7000000000000000000000030858970000L
aL7000000000000000000000030858990000L
aS'a360c6f2-923a-11e2-adf3-123140ff4442'
p186
aI01
aI01
aS'6bc6fd30-9017-11e2-9d7b-00e07dd5df94'
p187
aa(lp188
L7000000000000000000000030858990000L
aL7000000000000000000000030859010000L
aS'a360c940-923a-11e2-adf3-123140ff4442'
p189
aI01
aI01
aS'bd3a97c0-9194-11e2-af93-fa163e3a40ba'
p190
aa(lp191
L7000000000000000000000030859010000L
aL7000000000000000000000030859030000L
aS'a360cb98-923a-11e2-adf3-123140ff4442'
p192
aI01
aI01
aS'bd39dd12-9194-11e2-8b41-fa163e3a40ba'
p193
aa(lp194
L7000000000000000000000030859030000L
aL7000000000000000000000030859050000L
aS'a360cde6-923a-11e2-adf3-123140ff4442'
p195
aI01
aI01
aS'bd39dc04-9194-11e2-a934-fa163e3a40ba'
p196
aa(lp197
L7000000000000000000000030859050000L
aL7000000000000000000000030859070000L
aS'a360d034-923a-11e2-adf3-123140ff4442'
p198
aI01
aI01
aS'680e0eb0-8d6d-11e2-a7ac-bcaec534d4d2'
p199
aa(lp200
L7000000000000000000000030859070000L
aL7000000000000000000000030859090000L
aS'a360d282-923a-11e2-adf3-123140ff4442'
p201
aI01
aI01
aS'3873a39c-8b5e-11e2-b6a8-000c29e250a1'
p202
aa(lp203
L7000000000000000000000030859090000L
aL7000000000000000000000030859110000L
aS'a360d4d0-923a-11e2-adf3-123140ff4442'
p204
aI01
aI01
aS'6ce031e6-9017-11e2-baa6-00e07dd5df94'
p205
aa(lp206
L7000000000000000000000030859110000L
aL7000000000000000000000030859130000L
aS'a360d71e-923a-11e2-adf3-123140ff4442'
p207
aI01
aI01
aS'bd39c002-9194-11e2-8d20-fa163e3a40ba'
p208
aa(lp209
L7000000000000000000000030859130000L
aL7000000000000000000000030859150000L
aS'a360d96c-923a-11e2-adf3-123140ff4442'
p210
aI01
aI01
aS'bd3a97c0-9194-11e2-af93-fa163e3a40ba'
p211
aa(lp212
L7000000000000000000000030859150000L
aL7000000000000000000000030859170000L
aS'a360dbba-923a-11e2-adf3-123140ff4442'
p213
aI01
aI01
aS'bd39dd12-9194-11e2-8b41-fa163e3a40ba'
p214
aa(lp215
L7000000000000000000000030859170000L
aL7000000000000000000000030859190000L
aS'a360de08-923a-11e2-adf3-123140ff4442'
p216
aI01
aI01
aS'bd39dc04-9194-11e2-a934-fa163e3a40ba'
p217
aa(lp218
L7000000000000000000000030859190000L
aL7000000000000000000000030859210000L
aS'a360e06a-923a-11e2-adf3-123140ff4442'
p219
aI01
aI00
aNaa(lp220
L7000000000000000000000030859210000L
aL7000000000000000000000030859230000L
aS'a360e2cc-923a-11e2-adf3-123140ff4442'
p221
aI01
aI01
aS'680e0eb0-8d6d-11e2-a7ac-bcaec534d4d2'
p222
aa(lp223
L7000000000000000000000030859230000L
aL7000000000000000000000030859250000L
aS'a360e51a-923a-11e2-adf3-123140ff4442'
p224
aI01
aI00
aNaa(lp225
L7000000000000000000000030859250000L
aL7000000000000000000000030859270000L
aS'a360e768-923a-11e2-adf3-123140ff4442'
p226
aI01
aI00
aNaa(lp227
L7000000000000000000000030859270000L
aL7000000000000000000000030859290000L
aS'a360e9b6-923a-11e2-adf3-123140ff4442'
p228
aI01
aI01
aS'bd39c002-9194-11e2-8d20-fa163e3a40ba'
p229
aa(lp230
L7000000000000000000000030859290000L
aL7000000000000000000000030859310000L
aS'a360ec04-923a-11e2-adf3-123140ff4442'
p231
aI01
aI01
aS'bd3a97c0-9194-11e2-af93-fa163e3a40ba'
p232
aa(lp233
L7000000000000000000000030859310000L
aL7000000000000000000000030859330000L
aS'a360ee5c-923a-11e2-adf3-123140ff4442'
p234
aI01
aI01
aS'bd39dd12-9194-11e2-8b41-fa163e3a40ba'
p235
aa(lp236
L7000000000000000000000030859330000L
aL7000000000000000000000030859350000L
aS'a360f0a0-923a-11e2-adf3-123140ff4442'
p237
aI01
aI00
aNaa(lp238
L7000000000000000000000030859350000L
aL7000000000000000000000030859370000L
aS'a360f2f8-923a-11e2-adf3-123140ff4442'
p239
aI01
aI01
aS'bd39dc04-9194-11e2-a934-fa163e3a40ba'
p240
aa(lp241
L7000000000000000000000030859370000L
aL7000000000000000000000030859390000L
aS'a360f546-923a-11e2-adf3-123140ff4442'
p242
aI01
aI01
aS'680e0eb0-8d6d-11e2-a7ac-bcaec534d4d2'
p243
aa(lp244
L7000000000000000000000030859390000L
aL7000000000000000000000030859410000L
aS'a360f79e-923a-11e2-adf3-123140ff4442'
p245
aI01
aI00
aNaa(lp246
L7000000000000000000000030859410000L
aL7000000000000000000000030859430000L
aS'a360f9ec-923a-11e2-adf3-123140ff4442'
p247
aI01
aI01
aS'bd39c002-9194-11e2-8d20-fa163e3a40ba'
p248
aa(lp249
L7000000000000000000000030859430000L
aL7000000000000000000000030859450000L
aS'a360fc3a-923a-11e2-adf3-123140ff4442'
p250
aI01
aI01
aS'bd39dd12-9194-11e2-8b41-fa163e3a40ba'
p251
aa(lp252
L7000000000000000000000030859450000L
aL7000000000000000000000030859470000L
aS'a360fe88-923a-11e2-adf3-123140ff4442'
p253
aI01
aI01
aS'bd3a97c0-9194-11e2-af93-fa163e3a40ba'
p254
aa(lp255
L7000000000000000000000030859470000L
aL7000000000000000000000030859490000L
aS'a36100d6-923a-11e2-adf3-123140ff4442'
p256
aI01
aI01
aS'bd39dc04-9194-11e2-a934-fa163e3a40ba'
p257
aa(lp258
L7000000000000000000000030859490000L
aL7000000000000000000000030859510000L
aS'a361031a-923a-11e2-adf3-123140ff4442'
p259
aI01
aI00
aNaa(lp260
L7000000000000000000000030859510000L
aL7000000000000000000000030859530000L
aS'a3610572-923a-11e2-adf3-123140ff4442'
p261
aI01
aI00
aNaa(lp262
L7000000000000000000000030859530000L
aL7000000000000000000000030859550000L
aS'a36107c0-923a-11e2-adf3-123140ff4442'
p263
aI01
aI00
aNaa(lp264
L7000000000000000000000030859550000L
aL7000000000000000000000030859570000L
aS'a3610a0e-923a-11e2-adf3-123140ff4442'
p265
aI01
aI00
aNaa(lp266
L7000000000000000000000030859570000L
aL7000000000000000000000030859590000L
aS'a3610c5c-923a-11e2-adf3-123140ff4442'
p267
aI01
aI00
aNaa(lp268
L7000000000000000000000030859590000L
aL7000000000000000000000030859610000L
aS'a3610eaa-923a-11e2-adf3-123140ff4442'
p269
aI01
aI00
aNaa(lp270
L7000000000000000000000030859610000L
aL7000000000000000000000030859630000L
aS'a36110f8-923a-11e2-adf3-123140ff4442'
p271
aI01
aI00
aNaa(lp272
L7000000000000000000000030859630000L
aL7000000000000000000000030859650000L
aS'a3611468-923a-11e2-adf3-123140ff4442'
p273
aI01
aI00
aNaa(lp274
L7000000000000000000000030859650000L
aL7000000000000000000000030859670000L
aS'a36116ca-923a-11e2-adf3-123140ff4442'
p275
aI01
aI00
aNaa(lp276
L7000000000000000000000030859670000L
aL7000000000000000000000030859690000L
aS'a3611922-923a-11e2-adf3-123140ff4442'
p277
aI00
aI00
aNaa(lp278
L7000000000000000000000030859690000L
aL7000000000000000000000030859710000L
aS'a3611b7a-923a-11e2-adf3-123140ff4442'
p279
aI00
aI00
aNaa(lp280
L7000000000000000000000030859710000L
aL7000000000000000000000030859730000L
aS'a3611dc8-923a-11e2-adf3-123140ff4442'
p281
aI00
aI00
aNaa(lp282
L7000000000000000000000030859730000L
aL7000000000000000000000030859750000L
aS'a3612016-923a-11e2-adf3-123140ff4442'
p283
aI00
aI01
aS'6c8d8022-9017-11e2-8529-00e07dd5df94'
p284
aa.