(lp1
(lp2
L7000000000000000000000026040750000L
aL7000000000000000000000026040770000L
aS'93b780ec-901e-11e2-9071-123140ff4442'
p3
aI01
aI01
aS'680e0eb0-8d6d-11e2-a7ac-bcaec534d4d2'
p4
aa(lp5
L7000000000000000000000026040770000L
aL7000000000000000000000026040790000L
aS'93b78678-901e-11e2-9071-123140ff4442'
p6
aI01
aI01
aS'ba9c83c8-901a-11e2-bf2e-fc7516839ab9'
p7
aa(lp8
L7000000000000000000000026040790000L
aL7000000000000000000000026040810000L
aS'93b7895c-901e-11e2-9071-123140ff4442'
p9
aI01
aI01
aS'4e4c590e-901b-11e2-8b28-fa163e3a40ba'
p10
aa(lp11
L7000000000000000000000026040810000L
aL7000000000000000000000026040830000L
aS'93b78c22-901e-11e2-9071-123140ff4442'
p12
aI01
aI01
aS'c49a8418-901c-11e2-890d-fa163e3a40ba'
p13
aa(lp14
L7000000000000000000000026040830000L
aL7000000000000000000000026040850000L
aS'93b78e84-901e-11e2-9071-123140ff4442'
p15
aI01
aI01
aS'6c2efc8c-9017-11e2-a38f-00e07dd5df94'
p16
aa(lp17
L7000000000000000000000026040850000L
aL7000000000000000000000026040870000L
aS'93b790d2-901e-11e2-9071-123140ff4442'
p18
aI01
aI01
aS'c3f093e0-901c-11e2-bcde-fa163e3a40ba'
p19
aa(lp20
L7000000000000000000000026040870000L
aL7000000000000000000000026040890000L
aS'93b79316-901e-11e2-9071-123140ff4442'
p21
aI01
aI01
aS'4db1402c-901b-11e2-86c2-fa163e3a40ba'
p22
aa(lp23
L7000000000000000000000026040890000L
aL7000000000000000000000026040910000L
aS'93b795b4-901e-11e2-9071-123140ff4442'
p24
aI01
aI01
aS'8f84db08-9016-11e2-b822-001cc0bffc9f'
p25
aa(lp26
L7000000000000000000000026040910000L
aL7000000000000000000000026040930000L
aS'93b79816-901e-11e2-9071-123140ff4442'
p27
aI01
aI01
aS'4ee617ec-901b-11e2-ba0e-fa163e3a40ba'
p28
aa(lp29
L7000000000000000000000026040930000L
aL7000000000000000000000026040950000L
aS'93b79a64-901e-11e2-9071-123140ff4442'
p30
aI01
aI01
aS'6c8d8022-9017-11e2-8529-00e07dd5df94'
p31
aa(lp32
L7000000000000000000000026040950000L
aL7000000000000000000000026040970000L
aS'93b79d16-901e-11e2-9071-123140ff4442'
p33
aI01
aI01
aS'4d82f35c-901b-11e2-b5ff-fa163e3a40ba'
p34
aa(lp35
L7000000000000000000000026040970000L
aL7000000000000000000000026040990000L
aS'93b79f64-901e-11e2-9071-123140ff4442'
p36
aI01
aI01
aS'6bc6fd30-9017-11e2-9d7b-00e07dd5df94'
p37
aa(lp38
L7000000000000000000000026040990000L
aL7000000000000000000000026041010000L
aS'93b7a1a8-901e-11e2-9071-123140ff4442'
p39
aI01
aI01
aS'6ce031e6-9017-11e2-baa6-00e07dd5df94'
p40
aa(lp41
L7000000000000000000000026041010000L
aL7000000000000000000000026041030000L
aS'93b7a3f6-901e-11e2-9071-123140ff4442'
p42
aI01
aI01
aS'c4f765a2-901c-11e2-8dcd-fa163e3a40ba'
p43
aa(lp44
L7000000000000000000000026041030000L
aL7000000000000000000000026041050000L
aS'93b7a694-901e-11e2-9071-123140ff4442'
p45
aI01
aI01
aS'680e0eb0-8d6d-11e2-a7ac-bcaec534d4d2'
p46
aa(lp47
L7000000000000000000000026041050000L
aL7000000000000000000000026041070000L
aS'93b7a946-901e-11e2-9071-123140ff4442'
p48
aI01
aI01
aS'37fe4110-8b5e-11e2-a3da-000c29e250a1'
p49
aa(lp50
L7000000000000000000000026041070000L
aL7000000000000000000000026041090000L
aS'93b7abee-901e-11e2-9071-123140ff4442'
p51
aI01
aI01
aS'3873a39c-8b5e-11e2-b6a8-000c29e250a1'
p52
aa(lp53
L7000000000000000000000026041090000L
aL7000000000000000000000026041110000L
aS'93b7aed2-901e-11e2-9071-123140ff4442'
p54
aI01
aI01
aS'8e0b92d0-9016-11e2-9ac6-001cc0bffc9f'
p55
aa(lp56
L7000000000000000000000026041110000L
aL7000000000000000000000026041130000L
aS'93b7b18e-901e-11e2-9071-123140ff4442'
p57
aI01
aI01
aS'3798871c-8b5e-11e2-b9f7-000c29e250a1'
p58
aa(lp59
L7000000000000000000000026041130000L
aL7000000000000000000000026041150000L
aS'93b7b44a-901e-11e2-9071-123140ff4442'
p60
aI01
aI01
aS'8f3c09b4-9016-11e2-9f8d-001cc0bffc9f'
p61
aa(lp62
L7000000000000000000000026041150000L
aL7000000000000000000000026041170000L
aS'93b7b6ac-901e-11e2-9071-123140ff4442'
p63
aI01
aI01
aS'd1086382-901c-11e2-a48a-fa163e3a40ba'
p64
aa(lp65
L7000000000000000000000026041170000L
aL7000000000000000000000026041190000L
aS'93b7ba08-901e-11e2-9071-123140ff4442'
p66
aI01
aI01
aS'4db1402c-901b-11e2-86c2-fa163e3a40ba'
p67
aa(lp68
L7000000000000000000000026041190000L
aL7000000000000000000000026041210000L
aS'93b7bcce-901e-11e2-9071-123140ff4442'
p69
aI01
aI01
aS'4e4c590e-901b-11e2-8b28-fa163e3a40ba'
p70
aa(lp71
L7000000000000000000000026041210000L
aL7000000000000000000000026041230000L
aS'93b7bf94-901e-11e2-9071-123140ff4442'
p72
aI01
aI01
aS'6b7917fa-9017-11e2-a13c-00e07dd5df94'
p73
aa(lp74
L7000000000000000000000026041230000L
aL7000000000000000000000026041250000L
aS'93b7c282-901e-11e2-9071-123140ff4442'
p75
aI01
aI01
aS'c340cb68-901c-11e2-b251-fa163e3a40ba'
p76
aa(lp77
L7000000000000000000000026041250000L
aL7000000000000000000000026041270000L
aS'93b7c548-901e-11e2-9071-123140ff4442'
p78
aI01
aI01
aS'680e0eb0-8d6d-11e2-a7ac-bcaec534d4d2'
p79
aa(lp80
L7000000000000000000000026041270000L
aL7000000000000000000000026041290000L
aS'93b7c80e-901e-11e2-9071-123140ff4442'
p81
aI01
aI01
aS'4ee617ec-901b-11e2-ba0e-fa163e3a40ba'
p82
aa(lp83
L7000000000000000000000026041290000L
aL7000000000000000000000026041310000L
aS'93b7caca-901e-11e2-9071-123140ff4442'
p84
aI01
aI01
aS'8f84db08-9016-11e2-b822-001cc0bffc9f'
p85
aa(lp86
L7000000000000000000000026041310000L
aL7000000000000000000000026041330000L
aS'93b7cd72-901e-11e2-9071-123140ff4442'
p87
aI01
aI01
aS'c45bf5b8-901c-11e2-b5b3-fa163e3a40ba'
p88
aa(lp89
L7000000000000000000000026041330000L
aL7000000000000000000000026041350000L
aS'93b7d01a-901e-11e2-9071-123140ff4442'
p90
aI01
aI01
aS'4d82f35c-901b-11e2-b5ff-fa163e3a40ba'
p91
aa(lp92
L7000000000000000000000026041350000L
aL7000000000000000000000026041370000L
aS'93b7d2c2-901e-11e2-9071-123140ff4442'
p93
aI01
aI01
aS'c49a8418-901c-11e2-890d-fa163e3a40ba'
p94
aa(lp95
L7000000000000000000000026041370000L
aL7000000000000000000000026041390000L
aS'93b7d510-901e-11e2-9071-123140ff4442'
p96
aI01
aI00
aNaa(lp97
L7000000000000000000000026041390000L
aL7000000000000000000000026041410000L
aS'93b7d7ae-901e-11e2-9071-123140ff4442'
p98
aI01
aI00
aNaa(lp99
L7000000000000000000000026041410000L
aL7000000000000000000000026041430000L
aS'93b7da06-901e-11e2-9071-123140ff4442'
p100
aI01
aI00
aNaa(lp101
L7000000000000000000000026041430000L
aL7000000000000000000000026041450000L
aS'93b7dca4-901e-11e2-9071-123140ff4442'
p102
aI01
aI00
aNaa(lp103
L7000000000000000000000026041450000L
aL7000000000000000000000026041470000L
aS'93b7df4c-901e-11e2-9071-123140ff4442'
p104
aI01
aI01
aS'8e0b92d0-9016-11e2-9ac6-001cc0bffc9f'
p105
aa(lp106
L7000000000000000000000026041470000L
aL7000000000000000000000026041490000L
aS'93b7e1fe-901e-11e2-9071-123140ff4442'
p107
aI01
aI00
aNaa(lp108
L7000000000000000000000026041490000L
aL7000000000000000000000026041510000L
aS'93b7e44c-901e-11e2-9071-123140ff4442'
p109
aI01
aI00
aNaa(lp110
L7000000000000000000000026041510000L
aL7000000000000000000000026041530000L
aS'93b7e6ea-901e-11e2-9071-123140ff4442'
p111
aI01
aI00
aNaa(lp112
L7000000000000000000000026041530000L
aL7000000000000000000000026041550000L
aS'93b7e992-901e-11e2-9071-123140ff4442'
p113
aI01
aI01
aS'8f3c09b4-9016-11e2-9f8d-001cc0bffc9f'
p114
aa(lp115
L7000000000000000000000026041550000L
aL7000000000000000000000026041570000L
aS'93b7ec3a-901e-11e2-9071-123140ff4442'
p116
aI01
aI01
aS'680e0eb0-8d6d-11e2-a7ac-bcaec534d4d2'
p117
aa(lp118
L7000000000000000000000026041570000L
aL7000000000000000000000026041590000L
aS'93b7eee2-901e-11e2-9071-123140ff4442'
p119
aI01
aI01
aS'4db1402c-901b-11e2-86c2-fa163e3a40ba'
p120
aa(lp121
L7000000000000000000000026041590000L
aL7000000000000000000000026041610000L
aS'93b7f13a-901e-11e2-9071-123140ff4442'
p122
aI01
aI00
aNaa(lp123
L7000000000000000000000026041610000L
aL7000000000000000000000026041630000L
aS'93b7f3d8-901e-11e2-9071-123140ff4442'
p124
aI01
aI00
aNaa(lp125
L7000000000000000000000026041630000L
aL7000000000000000000000026041650000L
aS'93b7f630-901e-11e2-9071-123140ff4442'
p126
aI01
aI00
aNaa(lp127
L7000000000000000000000026041650000L
aL7000000000000000000000026041670000L
aS'93b7f932-901e-11e2-9071-123140ff4442'
p128
aI01
aI00
aNaa(lp129
L7000000000000000000000026041670000L
aL7000000000000000000000026041690000L
aS'93b7fe78-901e-11e2-9071-123140ff4442'
p130
aI01
aI00
aNaa(lp131
L7000000000000000000000026041690000L
aL7000000000000000000000026041710000L
aS'93b80134-901e-11e2-9071-123140ff4442'
p132
aI01
aI00
aNaa(lp133
L7000000000000000000000026041710000L
aL7000000000000000000000026041730000L
aS'93b80a58-901e-11e2-9071-123140ff4442'
p134
aI01
aI00
aNaa(lp135
L7000000000000000000000026041730000L
aL7000000000000000000000026041750000L
aS'93b80d28-901e-11e2-9071-123140ff4442'
p136
aI01
aI00
aNaa(lp137
L7000000000000000000000026041750000L
aL7000000000000000000000026041770000L
aS'93b80fe4-901e-11e2-9071-123140ff4442'
p138
aI01
aI00
aNaa(lp139
L7000000000000000000000026041770000L
aL7000000000000000000000026041790000L
aS'93b812b4-901e-11e2-9071-123140ff4442'
p140
aI01
aI00
aNaa(lp141
L7000000000000000000000026041790000L
aL7000000000000000000000026041810000L
aS'93b8157a-901e-11e2-9071-123140ff4442'
p142
aI01
aI00
aNaa(lp143
L7000000000000000000000026041810000L
aL7000000000000000000000026041830000L
aS'93b8182c-901e-11e2-9071-123140ff4442'
p144
aI01
aI00
aNaa(lp145
L7000000000000000000000026041830000L
aL7000000000000000000000026041850000L
aS'93b81ad4-901e-11e2-9071-123140ff4442'
p146
aI01
aI00
aNaa(lp147
L7000000000000000000000026041850000L
aL7000000000000000000000026041870000L
aS'93b81d22-901e-11e2-9071-123140ff4442'
p148
aI01
aI00
aNaa(lp149
L7000000000000000000000026041870000L
aL7000000000000000000000026041890000L
aS'93b826f0-901e-11e2-9071-123140ff4442'
p150
aI01
aI00
aNaa(lp151
L7000000000000000000000026041890000L
aL7000000000000000000000026041910000L
aS'93b82a38-901e-11e2-9071-123140ff4442'
p152
aI01
aI00
aNaa(lp153
L7000000000000000000000026041910000L
aL7000000000000000000000026041930000L
aS'93b82c90-901e-11e2-9071-123140ff4442'
p154
aI01
aI00
aNaa(lp155
L7000000000000000000000026041930000L
aL7000000000000000000000026041950000L
aS'93b82f56-901e-11e2-9071-123140ff4442'
p156
aI01
aI00
aNaa(lp157
L7000000000000000000000026041950000L
aL7000000000000000000000026041970000L
aS'93b83208-901e-11e2-9071-123140ff4442'
p158
aI01
aI00
aNaa(lp159
L7000000000000000000000026041970000L
aL7000000000000000000000026041990000L
aS'93b834ba-901e-11e2-9071-123140ff4442'
p160
aI01
aI00
aNaa(lp161
L7000000000000000000000026041990000L
aL7000000000000000000000026042010000L
aS'93b83762-901e-11e2-9071-123140ff4442'
p162
aI01
aI00
aNaa(lp163
L7000000000000000000000026042010000L
aL7000000000000000000000026042030000L
aS'93b83a0a-901e-11e2-9071-123140ff4442'
p164
aI01
aI00
aNaa(lp165
L7000000000000000000000026042030000L
aL7000000000000000000000026042050000L
aS'93b83c58-901e-11e2-9071-123140ff4442'
p166
aI01
aI00
aNaa(lp167
L7000000000000000000000026042050000L
aL7000000000000000000000026042070000L
aS'93b83ef6-901e-11e2-9071-123140ff4442'
p168
aI01
aI00
aNaa(lp169
L7000000000000000000000026042070000L
aL7000000000000000000000026042090000L
aS'93b84180-901e-11e2-9071-123140ff4442'
p170
aI00
aI00
aNaa(lp171
L7000000000000000000000026042090000L
aL7000000000000000000000026042110000L
aS'93b84432-901e-11e2-9071-123140ff4442'
p172
aI00
aI00
aNaa(lp173
L7000000000000000000000026042110000L
aL7000000000000000000000026042130000L
aS'93b846e4-901e-11e2-9071-123140ff4442'
p174
aI00
aI00
aNaa(lp175
L7000000000000000000000026042130000L
aL7000000000000000000000026042150000L
aS'93b8498c-901e-11e2-9071-123140ff4442'
p176
aI00
aI00
aNaa(lp177
L7000000000000000000000026042150000L
aL7000000000000000000000026042170000L
aS'93b84c34-901e-11e2-9071-123140ff4442'
p178
aI00
aI00
aNaa(lp179
L7000000000000000000000026042170000L
aL7000000000000000000000026042190000L
aS'93b84e82-901e-11e2-9071-123140ff4442'
p180
aI00
aI00
aNaa(lp181
L7000000000000000000000026042190000L
aL7000000000000000000000026042210000L
aS'93b850c6-901e-11e2-9071-123140ff4442'
p182
aI00
aI00
aNaa(lp183
L7000000000000000000000026042210000L
aL7000000000000000000000026042230000L
aS'93b85314-901e-11e2-9071-123140ff4442'
p184
aI00
aI00
aNaa(lp185
L7000000000000000000000026042230000L
aL7000000000000000000000026042250000L
aS'93b85558-901e-11e2-9071-123140ff4442'
p186
aI00
aI00
aNaa(lp187
L7000000000000000000000026042250000L
aL7000000000000000000000026042270000L
aS'93b85792-901e-11e2-9071-123140ff4442'
p188
aI00
aI00
aNaa(lp189
L7000000000000000000000026042270000L
aL7000000000000000000000026042290000L
aS'93b859cc-901e-11e2-9071-123140ff4442'
p190
aI00
aI00
aNaa(lp191
L7000000000000000000000026042290000L
aL7000000000000000000000026042310000L
aS'93b85c10-901e-11e2-9071-123140ff4442'
p192
aI00
aI00
aNaa(lp193
L7000000000000000000000026042310000L
aL7000000000000000000000026042330000L
aS'93b85e4a-901e-11e2-9071-123140ff4442'
p194
aI00
aI00
aNaa(lp195
L7000000000000000000000026042330000L
aL7000000000000000000000026042350000L
aS'93b8608e-901e-11e2-9071-123140ff4442'
p196
aI00
aI00
aNaa(lp197
L7000000000000000000000026042350000L
aL7000000000000000000000026042370000L
aS'93b862c8-901e-11e2-9071-123140ff4442'
p198
aI00
aI00
aNaa(lp199
L7000000000000000000000026042370000L
aL7000000000000000000000026042390000L
aS'93b86502-901e-11e2-9071-123140ff4442'
p200
aI00
aI00
aNaa(lp201
L7000000000000000000000026042390000L
aL7000000000000000000000026042410000L
aS'93b86746-901e-11e2-9071-123140ff4442'
p202
aI00
aI00
aNaa(lp203
L7000000000000000000000026042410000L
aL7000000000000000000000026042430000L
aS'93b8698a-901e-11e2-9071-123140ff4442'
p204
aI00
aI00
aNaa(lp205
L7000000000000000000000026042430000L
aL7000000000000000000000026042450000L
aS'93b86c28-901e-11e2-9071-123140ff4442'
p206
aI00
aI00
aNaa(lp207
L7000000000000000000000026042450000L
aL7000000000000000000000026042470000L
aS'93b86e80-901e-11e2-9071-123140ff4442'
p208
aI00
aI00
aNaa(lp209
L7000000000000000000000026042470000L
aL7000000000000000000000026042490000L
aS'93b870c4-901e-11e2-9071-123140ff4442'
p210
aI00
aI00
aNaa(lp211
L7000000000000000000000026042490000L
aL7000000000000000000000026042510000L
aS'93b87344-901e-11e2-9071-123140ff4442'
p212
aI00
aI00
aNaa(lp213
L7000000000000000000000026042510000L
aL7000000000000000000000026042530000L
aS'93b8759c-901e-11e2-9071-123140ff4442'
p214
aI00
aI00
aNaa(lp215
L7000000000000000000000026042530000L
aL7000000000000000000000026042550000L
aS'93b877ea-901e-11e2-9071-123140ff4442'
p216
aI00
aI00
aNaa(lp217
L7000000000000000000000026042550000L
aL7000000000000000000000026042570000L
aS'93b87a38-901e-11e2-9071-123140ff4442'
p218
aI00
aI00
aNaa(lp219
L7000000000000000000000026042570000L
aL7000000000000000000000026042590000L
aS'93b87c86-901e-11e2-9071-123140ff4442'
p220
aI00
aI00
aNaa(lp221
L7000000000000000000000026042590000L
aL7000000000000000000000026042610000L
aS'93b87eca-901e-11e2-9071-123140ff4442'
p222
aI00
aI00
aNaa(lp223
L7000000000000000000000026042610000L
aL7000000000000000000000026042630000L
aS'93b88118-901e-11e2-9071-123140ff4442'
p224
aI00
aI00
aNaa(lp225
L7000000000000000000000026042630000L
aL7000000000000000000000026042650000L
aS'93b88352-901e-11e2-9071-123140ff4442'
p226
aI00
aI00
aNaa(lp227
L7000000000000000000000026042650000L
aL7000000000000000000000026042670000L
aS'93b88596-901e-11e2-9071-123140ff4442'
p228
aI00
aI00
aNaa(lp229
L7000000000000000000000026042670000L
aL7000000000000000000000026042690000L
aS'93b887da-901e-11e2-9071-123140ff4442'
p230
aI00
aI00
aNaa(lp231
L7000000000000000000000026042690000L
aL7000000000000000000000026042710000L
aS'93b88a14-901e-11e2-9071-123140ff4442'
p232
aI00
aI00
aNaa(lp233
L7000000000000000000000026042710000L
aL7000000000000000000000026042730000L
aS'93b88c4e-901e-11e2-9071-123140ff4442'
p234
aI00
aI00
aNaa(lp235
L7000000000000000000000026042730000L
aL7000000000000000000000026042750000L
aS'93b88e92-901e-11e2-9071-123140ff4442'
p236
aI00
aI01
aS'b98573a0-901a-11e2-bffa-fc7516839ab9'
p237
aa.