(lp1
(lp2
L5752090994058710841673151653731520L
aL5752090994058710841673151673731520L
aS'1f792ece-0912-11e4-8fee-ccd29b2fe4f6'
p3
aI01
aI00
aNaa(lp4
L5752090994058710841673151673731520L
aL5752090994058710841673151693731520L
aS'1f794102-0912-11e4-8fee-ccd29b2fe4f6'
p5
aI01
aI01
aS'2299d9c4-07bd-11e4-a63b-5404a6372add'
p6
aa(lp7
L5752090994058710841673151693731520L
aL5752090994058710841673151713731520L
aS'1f794c74-0912-11e4-8fee-ccd29b2fe4f6'
p8
aI01
aI00
aNaa(lp9
L5752090994058710841673151713731520L
aL5752090994058710841673151733731520L
aS'1f7956ba-0912-11e4-8fee-ccd29b2fe4f6'
p10
aI01
aI00
aNaa(lp11
L5752090994058710841673151733731520L
aL5752090994058710841673151753731520L
aS'1f796042-0912-11e4-8fee-ccd29b2fe4f6'
p12
aI01
aI01
aS'2299d9c4-07bd-11e4-a63b-5404a6372add'
p13
aa(lp14
L5752090994058710841673151753731520L
aL5752090994058710841673151773731520L
aS'1f796a06-0912-11e4-8fee-ccd29b2fe4f6'
p15
aI01
aI00
aNaa(lp16
L5752090994058710841673151773731520L
aL5752090994058710841673151793731520L
aS'1f797348-0912-11e4-8fee-ccd29b2fe4f6'
p17
aI00
aI00
aNaa(lp18
L5752090994058710841673151793731520L
aL5752090994058710841673151813731520L
aS'1f797c4e-0912-11e4-8fee-ccd29b2fe4f6'
p19
aI00
aI00
aNaa(lp20
L5752090994058710841673151813731520L
aL5752090994058710841673151833731520L
aS'1f798586-0912-11e4-8fee-ccd29b2fe4f6'
p21
aI00
aI00
aNaa(lp22
L5752090994058710841673151833731520L
aL5752090994058710841673151853731520L
aS'1f798ec8-0912-11e4-8fee-ccd29b2fe4f6'
p23
aI00
aI00
aNaa(lp24
L5752090994058710841673151853731520L
aL5752090994058710841673151873731520L
aS'1f799800-0912-11e4-8fee-ccd29b2fe4f6'
p25
aI00
aI00
aNaa(lp26
L5752090994058710841673151873731520L
aL5752090994058710841673151893731520L
aS'1f79a0d4-0912-11e4-8fee-ccd29b2fe4f6'
p27
aI00
aI00
aNaa(lp28
L5752090994058710841673151893731520L
aL5752090994058710841673151913731520L
aS'1f79a9d0-0912-11e4-8fee-ccd29b2fe4f6'
p29
aI00
aI00
aNaa(lp30
L5752090994058710841673151913731520L
aL5752090994058710841673151933731520L
aS'1f79bbb4-0912-11e4-8fee-ccd29b2fe4f6'
p31
aI00
aI00
aNaa(lp32
L5752090994058710841673151933731520L
aL5752090994058710841673151953731520L
aS'1f7b231e-0912-11e4-8fee-ccd29b2fe4f6'
p33
aI00
aI00
aNaa(lp34
L5752090994058710841673151953731520L
aL5752090994058710841673151973731520L
aS'1f7b3084-0912-11e4-8fee-ccd29b2fe4f6'
p35
aI00
aI00
aNaa(lp36
L5752090994058710841673151973731520L
aL5752090994058710841673151993731520L
aS'1f7b3e08-0912-11e4-8fee-ccd29b2fe4f6'
p37
aI00
aI00
aNaa(lp38
L5752090994058710841673151993731520L
aL5752090994058710841673152013731520L
aS'1f7b492a-0912-11e4-8fee-ccd29b2fe4f6'
p39
aI00
aI00
aNaa(lp40
L5752090994058710841673152013731520L
aL5752090994058710841673152033731520L
aS'1f7b53a2-0912-11e4-8fee-ccd29b2fe4f6'
p41
aI00
aI00
aNaa(lp42
L5752090994058710841673152033731520L
aL5752090994058710841673152053731520L
aS'1f7b6040-0912-11e4-8fee-ccd29b2fe4f6'
p43
aI00
aI00
aNaa(lp44
L5752090994058710841673152053731520L
aL5752090994058710841673152073731520L
aS'1f7b6d56-0912-11e4-8fee-ccd29b2fe4f6'
p45
aI00
aI00
aNaa(lp46
L5752090994058710841673152073731520L
aL5752090994058710841673152093731520L
aS'1f7b781e-0912-11e4-8fee-ccd29b2fe4f6'
p47
aI00
aI00
aNaa(lp48
L5752090994058710841673152093731520L
aL5752090994058710841673152113731520L
aS'1f7b81a6-0912-11e4-8fee-ccd29b2fe4f6'
p49
aI00
aI00
aNaa(lp50
L5752090994058710841673152113731520L
aL5752090994058710841673152133731520L
aS'1f7b8b38-0912-11e4-8fee-ccd29b2fe4f6'
p51
aI00
aI00
aNaa(lp52
L5752090994058710841673152133731520L
aL5752090994058710841673152153731520L
aS'1f7b9498-0912-11e4-8fee-ccd29b2fe4f6'
p53
aI00
aI00
aNaa(lp54
L5752090994058710841673152153731520L
aL5752090994058710841673152173731520L
aS'1f7b9dbc-0912-11e4-8fee-ccd29b2fe4f6'
p55
aI00
aI00
aNaa(lp56
L5752090994058710841673152173731520L
aL5752090994058710841673152193731520L
aS'1f7ba744-0912-11e4-8fee-ccd29b2fe4f6'
p57
aI00
aI00
aNaa(lp58
L5752090994058710841673152193731520L
aL5752090994058710841673152213731520L
aS'1f7bb02c-0912-11e4-8fee-ccd29b2fe4f6'
p59
aI00
aI00
aNaa(lp60
L5752090994058710841673152213731520L
aL5752090994058710841673152233731520L
aS'1f7bb93c-0912-11e4-8fee-ccd29b2fe4f6'
p61
aI00
aI00
aNaa(lp62
L5752090994058710841673152233731520L
aL5752090994058710841673152253731520L
aS'1f7bc238-0912-11e4-8fee-ccd29b2fe4f6'
p63
aI00
aI00
aNaa(lp64
L5752090994058710841673152253731520L
aL5752090994058710841673152273731520L
aS'1f7bcb16-0912-11e4-8fee-ccd29b2fe4f6'
p65
aI00
aI00
aNaa(lp66
L5752090994058710841673152273731520L
aL5752090994058710841673152293731520L
aS'1f7bd41c-0912-11e4-8fee-ccd29b2fe4f6'
p67
aI00
aI00
aNaa(lp68
L5752090994058710841673152293731520L
aL5752090994058710841673152313731520L
aS'1f7bdd22-0912-11e4-8fee-ccd29b2fe4f6'
p69
aI00
aI00
aNaa(lp70
L5752090994058710841673152313731520L
aL5752090994058710841673152333731520L
aS'1f7be61e-0912-11e4-8fee-ccd29b2fe4f6'
p71
aI00
aI00
aNaa(lp72
L5752090994058710841673152333731520L
aL5752090994058710841673152353731520L
aS'1f7beee8-0912-11e4-8fee-ccd29b2fe4f6'
p73
aI00
aI00
aNaa(lp74
L5752090994058710841673152353731520L
aL5752090994058710841673152373731520L
aS'1f7bf7a8-0912-11e4-8fee-ccd29b2fe4f6'
p75
aI00
aI00
aNaa(lp76
L5752090994058710841673152373731520L
aL5752090994058710841673152393731520L
aS'1f7c00a4-0912-11e4-8fee-ccd29b2fe4f6'
p77
aI00
aI00
aNaa(lp78
L5752090994058710841673152393731520L
aL5752090994058710841673152413731520L
aS'1f7c09aa-0912-11e4-8fee-ccd29b2fe4f6'
p79
aI00
aI00
aNaa(lp80
L5752090994058710841673152413731520L
aL5752090994058710841673152433731520L
aS'1f7c1288-0912-11e4-8fee-ccd29b2fe4f6'
p81
aI00
aI00
aNaa(lp82
L5752090994058710841673152433731520L
aL5752090994058710841673152453731520L
aS'1f7c1b3e-0912-11e4-8fee-ccd29b2fe4f6'
p83
aI00
aI00
aNaa(lp84
L5752090994058710841673152453731520L
aL5752090994058710841673152473731520L
aS'1f7c23f4-0912-11e4-8fee-ccd29b2fe4f6'
p85
aI00
aI00
aNaa(lp86
L5752090994058710841673152473731520L
aL5752090994058710841673152493731520L
aS'1f7c2cb4-0912-11e4-8fee-ccd29b2fe4f6'
p87
aI00
aI00
aNaa(lp88
L5752090994058710841673152493731520L
aL5752090994058710841673152513731520L
aS'1f7c3574-0912-11e4-8fee-ccd29b2fe4f6'
p89
aI00
aI00
aNaa(lp90
L5752090994058710841673152513731520L
aL5752090994058710841673152533731520L
aS'1f7c3e34-0912-11e4-8fee-ccd29b2fe4f6'
p91
aI00
aI00
aNaa(lp92
L5752090994058710841673152533731520L
aL5752090994058710841673152553731520L
aS'1f7c46e0-0912-11e4-8fee-ccd29b2fe4f6'
p93
aI00
aI00
aNaa(lp94
L5752090994058710841673152553731520L
aL5752090994058710841673152573731520L
aS'1f7c4f8c-0912-11e4-8fee-ccd29b2fe4f6'
p95
aI00
aI00
aNaa(lp96
L5752090994058710841673152573731520L
aL5752090994058710841673152593731520L
aS'1f7c5824-0912-11e4-8fee-ccd29b2fe4f6'
p97
aI00
aI00
aNaa(lp98
L5752090994058710841673152593731520L
aL5752090994058710841673152613731520L
aS'1f7c60e4-0912-11e4-8fee-ccd29b2fe4f6'
p99
aI00
aI00
aNaa(lp100
L5752090994058710841673152613731520L
aL5752090994058710841673152633731520L
aS'1f7c69a4-0912-11e4-8fee-ccd29b2fe4f6'
p101
aI00
aI00
aNaa(lp102
L5752090994058710841673152633731520L
aL5752090994058710841673152653731520L
aS'1f7c7278-0912-11e4-8fee-ccd29b2fe4f6'
p103
aI00
aI00
aNaa(lp104
L5752090994058710841673152653731520L
aL5752090994058710841673152673731520L
aS'1f7c7b24-0912-11e4-8fee-ccd29b2fe4f6'
p105
aI00
aI00
aNaa(lp106
L5752090994058710841673152673731520L
aL5752090994058710841673152693731520L
aS'1f7c83e4-0912-11e4-8fee-ccd29b2fe4f6'
p107
aI00
aI00
aNaa(lp108
L5752090994058710841673152693731520L
aL5752090994058710841673152713731520L
aS'1f7c8cae-0912-11e4-8fee-ccd29b2fe4f6'
p109
aI00
aI00
aNaa(lp110
L5752090994058710841673152713731520L
aL5752090994058710841673152733731520L
aS'1f7c95b4-0912-11e4-8fee-ccd29b2fe4f6'
p111
aI00
aI00
aNaa(lp112
L5752090994058710841673152733731520L
aL5752090994058710841673152753731520L
aS'1f7c9e60-0912-11e4-8fee-ccd29b2fe4f6'
p113
aI00
aI00
aNaa(lp114
L5752090994058710841673152753731520L
aL5752090994058710841673152773731520L
aS'1f7ca888-0912-11e4-8fee-ccd29b2fe4f6'
p115
aI00
aI00
aNaa(lp116
L5752090994058710841673152773731520L
aL5752090994058710841673152793731520L
aS'1f7cb198-0912-11e4-8fee-ccd29b2fe4f6'
p117
aI00
aI00
aNaa(lp118
L5752090994058710841673152793731520L
aL5752090994058710841673152813731520L
aS'1f7cbb3e-0912-11e4-8fee-ccd29b2fe4f6'
p119
aI00
aI00
aNaa(lp120
L5752090994058710841673152813731520L
aL5752090994058710841673152833731520L
aS'1f7cc822-0912-11e4-8fee-ccd29b2fe4f6'
p121
aI00
aI00
aNaa(lp122
L5752090994058710841673152833731520L
aL5752090994058710841673152853731520L
aS'1f7cd34e-0912-11e4-8fee-ccd29b2fe4f6'
p123
aI00
aI00
aNaa(lp124
L5752090994058710841673152853731520L
aL5752090994058710841673152873731520L
aS'1f7cdd26-0912-11e4-8fee-ccd29b2fe4f6'
p125
aI00
aI00
aNaa(lp126
L5752090994058710841673152873731520L
aL5752090994058710841673152893731520L
aS'1f7ce668-0912-11e4-8fee-ccd29b2fe4f6'
p127
aI00
aI00
aNaa(lp128
L5752090994058710841673152893731520L
aL5752090994058710841673152913731520L
aS'1f7cef82-0912-11e4-8fee-ccd29b2fe4f6'
p129
aI00
aI00
aNaa(lp130
L5752090994058710841673152913731520L
aL5752090994058710841673152933731520L
aS'1f7cf892-0912-11e4-8fee-ccd29b2fe4f6'
p131
aI00
aI00
aNaa(lp132
L5752090994058710841673152933731520L
aL5752090994058710841673152953731520L
aS'1f7d0198-0912-11e4-8fee-ccd29b2fe4f6'
p133
aI00
aI00
aNaa(lp134
L5752090994058710841673152953731520L
aL5752090994058710841673152973731520L
aS'1f7d0a1c-0912-11e4-8fee-ccd29b2fe4f6'
p135
aI00
aI00
aNaa(lp136
L5752090994058710841673152973731520L
aL5752090994058710841673152993731520L
aS'1f7d12dc-0912-11e4-8fee-ccd29b2fe4f6'
p137
aI00
aI00
aNaa(lp138
L5752090994058710841673152993731520L
aL5752090994058710841673153013731520L
aS'1f7d1bc4-0912-11e4-8fee-ccd29b2fe4f6'
p139
aI00
aI00
aNaa(lp140
L5752090994058710841673153013731520L
aL5752090994058710841673153033731520L
aS'1f7d24a2-0912-11e4-8fee-ccd29b2fe4f6'
p141
aI00
aI00
aNaa(lp142
L5752090994058710841673153033731520L
aL5752090994058710841673153053731520L
aS'1f7d2d44-0912-11e4-8fee-ccd29b2fe4f6'
p143
aI00
aI00
aNaa(lp144
L5752090994058710841673153053731520L
aL5752090994058710841673153073731520L
aS'1f7d360e-0912-11e4-8fee-ccd29b2fe4f6'
p145
aI00
aI00
aNaa(lp146
L5752090994058710841673153073731520L
aL5752090994058710841673153093731520L
aS'1f7d3ece-0912-11e4-8fee-ccd29b2fe4f6'
p147
aI00
aI00
aNaa(lp148
L5752090994058710841673153093731520L
aL5752090994058710841673153113731520L
aS'1f7d4784-0912-11e4-8fee-ccd29b2fe4f6'
p149
aI00
aI00
aNaa(lp150
L5752090994058710841673153113731520L
aL5752090994058710841673153133731520L
aS'1f7d5080-0912-11e4-8fee-ccd29b2fe4f6'
p151
aI00
aI00
aNaa(lp152
L5752090994058710841673153133731520L
aL5752090994058710841673153153731520L
aS'1f7d5922-0912-11e4-8fee-ccd29b2fe4f6'
p153
aI00
aI00
aNaa(lp154
L5752090994058710841673153153731520L
aL5752090994058710841673153173731520L
aS'1f7d620a-0912-11e4-8fee-ccd29b2fe4f6'
p155
aI00
aI00
aNaa(lp156
L5752090994058710841673153173731520L
aL5752090994058710841673153193731520L
aS'1f7d6ad4-0912-11e4-8fee-ccd29b2fe4f6'
p157
aI00
aI00
aNaa(lp158
L5752090994058710841673153193731520L
aL5752090994058710841673153213731520L
aS'1f7d73f8-0912-11e4-8fee-ccd29b2fe4f6'
p159
aI00
aI00
aNaa(lp160
L5752090994058710841673153213731520L
aL5752090994058710841673153233731520L
aS'1f7d7cfe-0912-11e4-8fee-ccd29b2fe4f6'
p161
aI00
aI00
aNaa(lp162
L5752090994058710841673153233731520L
aL5752090994058710841673153253731520L
aS'1f7d85be-0912-11e4-8fee-ccd29b2fe4f6'
p163
aI00
aI00
aNaa(lp164
L5752090994058710841673153253731520L
aL5752090994058710841673153273731520L
aS'1f7d8e56-0912-11e4-8fee-ccd29b2fe4f6'
p165
aI00
aI00
aNaa(lp166
L5752090994058710841673153273731520L
aL5752090994058710841673153293731520L
aS'1f7d9702-0912-11e4-8fee-ccd29b2fe4f6'
p167
aI00
aI00
aNaa(lp168
L5752090994058710841673153293731520L
aL5752090994058710841673153313731520L
aS'1f7d9fc2-0912-11e4-8fee-ccd29b2fe4f6'
p169
aI00
aI00
aNaa(lp170
L5752090994058710841673153313731520L
aL5752090994058710841673153333731520L
aS'1f7da878-0912-11e4-8fee-ccd29b2fe4f6'
p171
aI00
aI00
aNaa(lp172
L5752090994058710841673153333731520L
aL5752090994058710841673153353731520L
aS'1f7db1ec-0912-11e4-8fee-ccd29b2fe4f6'
p173
aI00
aI00
aNaa(lp174
L5752090994058710841673153353731520L
aL5752090994058710841673153373731520L
aS'1f7dbf70-0912-11e4-8fee-ccd29b2fe4f6'
p175
aI00
aI00
aNaa(lp176
L5752090994058710841673153373731520L
aL5752090994058710841673153393731520L
aS'1f7dce3e-0912-11e4-8fee-ccd29b2fe4f6'
p177
aI00
aI00
aNaa(lp178
L5752090994058710841673153393731520L
aL5752090994058710841673153413731520L
aS'1f7ddc94-0912-11e4-8fee-ccd29b2fe4f6'
p179
aI00
aI00
aNaa(lp180
L5752090994058710841673153413731520L
aL5752090994058710841673153433731520L
aS'1f7debe4-0912-11e4-8fee-ccd29b2fe4f6'
p181
aI00
aI00
aNaa(lp182
L5752090994058710841673153433731520L
aL5752090994058710841673153453731520L
aS'1f7e0066-0912-11e4-8fee-ccd29b2fe4f6'
p183
aI00
aI00
aNaa(lp184
L5752090994058710841673153453731520L
aL5752090994058710841673153473731520L
aS'1f7e0e1c-0912-11e4-8fee-ccd29b2fe4f6'
p185
aI00
aI00
aNaa(lp186
L5752090994058710841673153473731520L
aL5752090994058710841673153493731520L
aS'1f7e1a2e-0912-11e4-8fee-ccd29b2fe4f6'
p187
aI00
aI00
aNaa(lp188
L5752090994058710841673153493731520L
aL5752090994058710841673153513731520L
aS'1f7e26cc-0912-11e4-8fee-ccd29b2fe4f6'
p189
aI00
aI00
aNaa(lp190
L5752090994058710841673153513731520L
aL5752090994058710841673153533731520L
aS'1f7e3720-0912-11e4-8fee-ccd29b2fe4f6'
p191
aI00
aI00
aNaa(lp192
L5752090994058710841673153533731520L
aL5752090994058710841673153553731520L
aS'1f7e48be-0912-11e4-8fee-ccd29b2fe4f6'
p193
aI00
aI00
aNaa(lp194
L5752090994058710841673153553731520L
aL5752090994058710841673153573731520L
aS'1f7e5732-0912-11e4-8fee-ccd29b2fe4f6'
p195
aI00
aI00
aNaa(lp196
L5752090994058710841673153573731520L
aL5752090994058710841673153593731520L
aS'1f7e692a-0912-11e4-8fee-ccd29b2fe4f6'
p197
aI00
aI00
aNaa(lp198
L5752090994058710841673153593731520L
aL5752090994058710841673153613731520L
aS'1f7e8112-0912-11e4-8fee-ccd29b2fe4f6'
p199
aI00
aI00
aNaa(lp200
L5752090994058710841673153613731520L
aL5752090994058710841673153633731520L
aS'1f7e92ba-0912-11e4-8fee-ccd29b2fe4f6'
p201
aI00
aI00
aNaa(lp202
L5752090994058710841673153633731520L
aL5752090994058710841673153653731520L
aS'1f7e9e68-0912-11e4-8fee-ccd29b2fe4f6'
p203
aI00
aI00
aNaa(lp204
L5752090994058710841673153653731520L
aL5752090994058710841673153673731520L
aS'1f7ea868-0912-11e4-8fee-ccd29b2fe4f6'
p205
aI00
aI00
aNaa(lp206
L5752090994058710841673153673731520L
aL5752090994058710841673153693731520L
aS'1f7eb1dc-0912-11e4-8fee-ccd29b2fe4f6'
p207
aI00
aI00
aNaa(lp208
L5752090994058710841673153693731520L
aL5752090994058710841673153713731520L
aS'1f7ebaf6-0912-11e4-8fee-ccd29b2fe4f6'
p209
aI00
aI00
aNaa(lp210
L5752090994058710841673153713731520L
aL5752090994058710841673153733731520L
aS'1f7ec3d4-0912-11e4-8fee-ccd29b2fe4f6'
p211
aI00
aI00
aNaa(lp212
L5752090994058710841673153733731520L
aL5752090994058710841673153753731520L
aS'1f7ed522-0912-11e4-8fee-ccd29b2fe4f6'
p213
aI00
aI00
aNaa(lp214
L5752090994058710841673153753731520L
aL5752090994058710841673153773731520L
aS'1f7ee148-0912-11e4-8fee-ccd29b2fe4f6'
p215
aI00
aI00
aNaa(lp216
L5752090994058710841673153773731520L
aL5752090994058710841673153793731520L
aS'1f7eeb5c-0912-11e4-8fee-ccd29b2fe4f6'
p217
aI00
aI00
aNaa(lp218
L5752090994058710841673153793731520L
aL5752090994058710841673153813731520L
aS'1f7ef4ee-0912-11e4-8fee-ccd29b2fe4f6'
p219
aI00
aI00
aNaa(lp220
L5752090994058710841673153813731520L
aL5752090994058710841673153833731520L
aS'1f7efe12-0912-11e4-8fee-ccd29b2fe4f6'
p221
aI00
aI00
aNaa(lp222
L5752090994058710841673153833731520L
aL5752090994058710841673153853731520L
aS'1f7f06fa-0912-11e4-8fee-ccd29b2fe4f6'
p223
aI00
aI00
aNaa(lp224
L5752090994058710841673153853731520L
aL5752090994058710841673153873731520L
aS'1f7f0fce-0912-11e4-8fee-ccd29b2fe4f6'
p225
aI00
aI00
aNaa(lp226
L5752090994058710841673153873731520L
aL5752090994058710841673153893731520L
aS'1f7f188e-0912-11e4-8fee-ccd29b2fe4f6'
p227
aI00
aI00
aNaa(lp228
L5752090994058710841673153893731520L
aL5752090994058710841673153913731520L
aS'1f7f2158-0912-11e4-8fee-ccd29b2fe4f6'
p229
aI00
aI00
aNaa(lp230
L5752090994058710841673153913731520L
aL5752090994058710841673153933731520L
aS'1f7f2acc-0912-11e4-8fee-ccd29b2fe4f6'
p231
aI00
aI00
aNaa(lp232
L5752090994058710841673153933731520L
aL5752090994058710841673153953731520L
aS'1f7f340e-0912-11e4-8fee-ccd29b2fe4f6'
p233
aI00
aI00
aNaa(lp234
L5752090994058710841673153953731520L
aL5752090994058710841673153973731520L
aS'1f7f3d14-0912-11e4-8fee-ccd29b2fe4f6'
p235
aI00
aI00
aNaa(lp236
L5752090994058710841673153973731520L
aL5752090994058710841673153993731520L
aS'1f7f46d8-0912-11e4-8fee-ccd29b2fe4f6'
p237
aI00
aI00
aNaa(lp238
L5752090994058710841673153993731520L
aL5752090994058710841673154013731520L
aS'1f7f4fd4-0912-11e4-8fee-ccd29b2fe4f6'
p239
aI00
aI00
aNaa(lp240
L5752090994058710841673154013731520L
aL5752090994058710841673154033731520L
aS'1f7f58c6-0912-11e4-8fee-ccd29b2fe4f6'
p241
aI00
aI00
aNaa(lp242
L5752090994058710841673154033731520L
aL5752090994058710841673154053731520L
aS'1f7f61ae-0912-11e4-8fee-ccd29b2fe4f6'
p243
aI00
aI00
aNaa(lp244
L5752090994058710841673154053731520L
aL5752090994058710841673154073731520L
aS'1f7f6ae6-0912-11e4-8fee-ccd29b2fe4f6'
p245
aI00
aI00
aNaa(lp246
L5752090994058710841673154073731520L
aL5752090994058710841673154093731520L
aS'1f7f73ec-0912-11e4-8fee-ccd29b2fe4f6'
p247
aI00
aI00
aNaa(lp248
L5752090994058710841673154093731520L
aL5752090994058710841673154113731520L
aS'1f7f7ca2-0912-11e4-8fee-ccd29b2fe4f6'
p249
aI00
aI00
aNaa(lp250
L5752090994058710841673154113731520L
aL5752090994058710841673154133731520L
aS'1f7f8594-0912-11e4-8fee-ccd29b2fe4f6'
p251
aI00
aI00
aNaa(lp252
L5752090994058710841673154133731520L
aL5752090994058710841673154153731520L
aS'1f7f8e7c-0912-11e4-8fee-ccd29b2fe4f6'
p253
aI00
aI00
aNaa(lp254
L5752090994058710841673154153731520L
aL5752090994058710841673154173731520L
aS'1f7f9700-0912-11e4-8fee-ccd29b2fe4f6'
p255
aI00
aI00
aNaa(lp256
L5752090994058710841673154173731520L
aL5752090994058710841673154193731520L
aS'1f7f9fb6-0912-11e4-8fee-ccd29b2fe4f6'
p257
aI00
aI00
aNaa(lp258
L5752090994058710841673154193731520L
aL5752090994058710841673154213731520L
aS'1f7fa894-0912-11e4-8fee-ccd29b2fe4f6'
p259
aI00
aI00
aNaa(lp260
L5752090994058710841673154213731520L
aL5752090994058710841673154233731520L
aS'1f7fb15e-0912-11e4-8fee-ccd29b2fe4f6'
p261
aI00
aI00
aNaa(lp262
L5752090994058710841673154233731520L
aL5752090994058710841673154253731520L
aS'1f7fba32-0912-11e4-8fee-ccd29b2fe4f6'
p263
aI00
aI00
aNaa(lp264
L5752090994058710841673154253731520L
aL5752090994058710841673154273731520L
aS'1f7fc2fc-0912-11e4-8fee-ccd29b2fe4f6'
p265
aI00
aI00
aNaa(lp266
L5752090994058710841673154273731520L
aL5752090994058710841673154293731520L
aS'1f7fcb9e-0912-11e4-8fee-ccd29b2fe4f6'
p267
aI00
aI00
aNaa(lp268
L5752090994058710841673154293731520L
aL5752090994058710841673154313731520L
aS'1f7fdaa8-0912-11e4-8fee-ccd29b2fe4f6'
p269
aI00
aI00
aNaa(lp270
L5752090994058710841673154313731520L
aL5752090994058710841673154333731520L
aS'1f7fe494-0912-11e4-8fee-ccd29b2fe4f6'
p271
aI00
aI00
aNaa(lp272
L5752090994058710841673154333731520L
aL5752090994058710841673154353731520L
aS'1f7fedae-0912-11e4-8fee-ccd29b2fe4f6'
p273
aI00
aI00
aNaa(lp274
L5752090994058710841673154353731520L
aL5752090994058710841673154373731520L
aS'1f7ff6dc-0912-11e4-8fee-ccd29b2fe4f6'
p275
aI00
aI00
aNaa(lp276
L5752090994058710841673154373731520L
aL5752090994058710841673154393731520L
aS'1f7fffa6-0912-11e4-8fee-ccd29b2fe4f6'
p277
aI00
aI00
aNaa(lp278
L5752090994058710841673154393731520L
aL5752090994058710841673154413731520L
aS'1f800870-0912-11e4-8fee-ccd29b2fe4f6'
p279
aI00
aI00
aNaa(lp280
L5752090994058710841673154413731520L
aL5752090994058710841673154433731520L
aS'1f801144-0912-11e4-8fee-ccd29b2fe4f6'
p281
aI00
aI00
aNaa(lp282
L5752090994058710841673154433731520L
aL5752090994058710841673154453731520L
aS'1f801a0e-0912-11e4-8fee-ccd29b2fe4f6'
p283
aI00
aI00
aNaa(lp284
L5752090994058710841673154453731520L
aL5752090994058710841673154473731520L
aS'1f8022ce-0912-11e4-8fee-ccd29b2fe4f6'
p285
aI00
aI00
aNaa(lp286
L5752090994058710841673154473731520L
aL5752090994058710841673154493731520L
aS'1f802b8e-0912-11e4-8fee-ccd29b2fe4f6'
p287
aI00
aI00
aNaa(lp288
L5752090994058710841673154493731520L
aL5752090994058710841673154513731520L
aS'1f803458-0912-11e4-8fee-ccd29b2fe4f6'
p289
aI00
aI00
aNaa(lp290
L5752090994058710841673154513731520L
aL5752090994058710841673154533731520L
aS'1f803d0e-0912-11e4-8fee-ccd29b2fe4f6'
p291
aI00
aI00
aNaa(lp292
L5752090994058710841673154533731520L
aL5752090994058710841673154553731520L
aS'1f8045ce-0912-11e4-8fee-ccd29b2fe4f6'
p293
aI00
aI00
aNaa(lp294
L5752090994058710841673154553731520L
aL5752090994058710841673154573731520L
aS'1f804e70-0912-11e4-8fee-ccd29b2fe4f6'
p295
aI00
aI00
aNaa(lp296
L5752090994058710841673154573731520L
aL5752090994058710841673154593731520L
aS'1f805708-0912-11e4-8fee-ccd29b2fe4f6'
p297
aI00
aI00
aNaa(lp298
L5752090994058710841673154593731520L
aL5752090994058710841673154613731520L
aS'1f805fe6-0912-11e4-8fee-ccd29b2fe4f6'
p299
aI00
aI00
aNaa(lp300
L5752090994058710841673154613731520L
aL5752090994058710841673154633731520L
aS'1f8068b0-0912-11e4-8fee-ccd29b2fe4f6'
p301
aI00
aI00
aNaa(lp302
L5752090994058710841673154633731520L
aL5752090994058710841673154653731520L
aS'1f8071b6-0912-11e4-8fee-ccd29b2fe4f6'
p303
aI00
aI00
aNaa(lp304
L5752090994058710841673154653731520L
aL5752090994058710841673154673731520L
aS'1f807ab2-0912-11e4-8fee-ccd29b2fe4f6'
p305
aI00
aI00
aNaa(lp306
L5752090994058710841673154673731520L
aL5752090994058710841673154693731520L
aS'1f8083a4-0912-11e4-8fee-ccd29b2fe4f6'
p307
aI00
aI00
aNaa(lp308
L5752090994058710841673154693731520L
aL5752090994058710841673154713731520L
aS'1f808c5a-0912-11e4-8fee-ccd29b2fe4f6'
p309
aI00
aI00
aNaa(lp310
L5752090994058710841673154713731520L
aL5752090994058710841673154733731520L
aS'1f809510-0912-11e4-8fee-ccd29b2fe4f6'
p311
aI00
aI00
aNaa(lp312
L5752090994058710841673154733731520L
aL5752090994058710841673154753731520L
aS'1f809de4-0912-11e4-8fee-ccd29b2fe4f6'
p313
aI00
aI00
aNaa(lp314
L5752090994058710841673154753731520L
aL5752090994058710841673154773731520L
aS'1f80a67c-0912-11e4-8fee-ccd29b2fe4f6'
p315
aI00
aI00
aNaa(lp316
L5752090994058710841673154773731520L
aL5752090994058710841673154793731520L
aS'1f80af1e-0912-11e4-8fee-ccd29b2fe4f6'
p317
aI00
aI00
aNaa(lp318
L5752090994058710841673154793731520L
aL5752090994058710841673154813731520L
aS'1f80b7b6-0912-11e4-8fee-ccd29b2fe4f6'
p319
aI00
aI00
aNaa(lp320
L5752090994058710841673154813731520L
aL5752090994058710841673154833731520L
aS'1f80c062-0912-11e4-8fee-ccd29b2fe4f6'
p321
aI00
aI00
aNaa(lp322
L5752090994058710841673154833731520L
aL5752090994058710841673154853731520L
aS'1f80c8fa-0912-11e4-8fee-ccd29b2fe4f6'
p323
aI00
aI00
aNaa(lp324
L5752090994058710841673154853731520L
aL5752090994058710841673154873731520L
aS'1f80d19c-0912-11e4-8fee-ccd29b2fe4f6'
p325
aI00
aI00
aNaa(lp326
L5752090994058710841673154873731520L
aL5752090994058710841673154893731520L
aS'1f80da70-0912-11e4-8fee-ccd29b2fe4f6'
p327
aI00
aI00
aNaa(lp328
L5752090994058710841673154893731520L
aL5752090994058710841673154913731520L
aS'1f80e380-0912-11e4-8fee-ccd29b2fe4f6'
p329
aI00
aI00
aNaa(lp330
L5752090994058710841673154913731520L
aL5752090994058710841673154933731520L
aS'1f80ec72-0912-11e4-8fee-ccd29b2fe4f6'
p331
aI00
aI00
aNaa(lp332
L5752090994058710841673154933731520L
aL5752090994058710841673154953731520L
aS'1f80f546-0912-11e4-8fee-ccd29b2fe4f6'
p333
aI00
aI00
aNaa(lp334
L5752090994058710841673154953731520L
aL5752090994058710841673154973731520L
aS'1f80fe1a-0912-11e4-8fee-ccd29b2fe4f6'
p335
aI00
aI00
aNaa(lp336
L5752090994058710841673154973731520L
aL5752090994058710841673154993731520L
aS'1f8106d0-0912-11e4-8fee-ccd29b2fe4f6'
p337
aI00
aI00
aNaa(lp338
L5752090994058710841673154993731520L
aL5752090994058710841673155013731520L
aS'1f810f86-0912-11e4-8fee-ccd29b2fe4f6'
p339
aI00
aI00
aNaa(lp340
L5752090994058710841673155013731520L
aL5752090994058710841673155033731520L
aS'1f811846-0912-11e4-8fee-ccd29b2fe4f6'
p341
aI00
aI00
aNaa(lp342
L5752090994058710841673155033731520L
aL5752090994058710841673155053731520L
aS'1f812106-0912-11e4-8fee-ccd29b2fe4f6'
p343
aI00
aI00
aNaa(lp344
L5752090994058710841673155053731520L
aL5752090994058710841673155073731520L
aS'1f8129c6-0912-11e4-8fee-ccd29b2fe4f6'
p345
aI00
aI00
aNaa(lp346
L5752090994058710841673155073731520L
aL5752090994058710841673155093731520L
aS'1f813286-0912-11e4-8fee-ccd29b2fe4f6'
p347
aI00
aI00
aNaa(lp348
L5752090994058710841673155093731520L
aL5752090994058710841673155113731520L
aS'1f813b28-0912-11e4-8fee-ccd29b2fe4f6'
p349
aI00
aI00
aNaa(lp350
L5752090994058710841673155113731520L
aL5752090994058710841673155133731520L
aS'1f8143ca-0912-11e4-8fee-ccd29b2fe4f6'
p351
aI00
aI00
aNaa(lp352
L5752090994058710841673155133731520L
aL5752090994058710841673155153731520L
aS'1f814c94-0912-11e4-8fee-ccd29b2fe4f6'
p353
aI00
aI00
aNaa(lp354
L5752090994058710841673155153731520L
aL5752090994058710841673155173731520L
aS'1f81582e-0912-11e4-8fee-ccd29b2fe4f6'
p355
aI00
aI00
aNaa(lp356
L5752090994058710841673155173731520L
aL5752090994058710841673155193731520L
aS'1f81622e-0912-11e4-8fee-ccd29b2fe4f6'
p357
aI00
aI00
aNaa(lp358
L5752090994058710841673155193731520L
aL5752090994058710841673155213731520L
aS'1f816b84-0912-11e4-8fee-ccd29b2fe4f6'
p359
aI00
aI00
aNaa(lp360
L5752090994058710841673155213731520L
aL5752090994058710841673155233731520L
aS'1f81749e-0912-11e4-8fee-ccd29b2fe4f6'
p361
aI00
aI00
aNaa(lp362
L5752090994058710841673155233731520L
aL5752090994058710841673155253731520L
aS'1f817da4-0912-11e4-8fee-ccd29b2fe4f6'
p363
aI00
aI00
aNaa(lp364
L5752090994058710841673155253731520L
aL5752090994058710841673155273731520L
aS'1f818678-0912-11e4-8fee-ccd29b2fe4f6'
p365
aI00
aI00
aNaa(lp366
L5752090994058710841673155273731520L
aL5752090994058710841673155293731520L
aS'1f818f38-0912-11e4-8fee-ccd29b2fe4f6'
p367
aI00
aI00
aNaa(lp368
L5752090994058710841673155293731520L
aL5752090994058710841673155313731520L
aS'1f8197da-0912-11e4-8fee-ccd29b2fe4f6'
p369
aI00
aI00
aNaa(lp370
L5752090994058710841673155313731520L
aL5752090994058710841673155333731520L
aS'1f81a072-0912-11e4-8fee-ccd29b2fe4f6'
p371
aI00
aI00
aNaa(lp372
L5752090994058710841673155333731520L
aL5752090994058710841673155353731520L
aS'1f81a93c-0912-11e4-8fee-ccd29b2fe4f6'
p373
aI00
aI00
aNaa(lp374
L5752090994058710841673155353731520L
aL5752090994058710841673155373731520L
aS'1f81b1f2-0912-11e4-8fee-ccd29b2fe4f6'
p375
aI00
aI00
aNaa(lp376
L5752090994058710841673155373731520L
aL5752090994058710841673155393731520L
aS'1f81bba2-0912-11e4-8fee-ccd29b2fe4f6'
p377
aI00
aI00
aNaa(lp378
L5752090994058710841673155393731520L
aL5752090994058710841673155413731520L
aS'1f81c4c6-0912-11e4-8fee-ccd29b2fe4f6'
p379
aI00
aI00
aNaa(lp380
L5752090994058710841673155413731520L
aL5752090994058710841673155433731520L
aS'1f81ce3a-0912-11e4-8fee-ccd29b2fe4f6'
p381
aI00
aI00
aNaa(lp382
L5752090994058710841673155433731520L
aL5752090994058710841673155453731520L
aS'1f81d718-0912-11e4-8fee-ccd29b2fe4f6'
p383
aI00
aI00
aNaa(lp384
L5752090994058710841673155453731520L
aL5752090994058710841673155473731520L
aS'1f81e01e-0912-11e4-8fee-ccd29b2fe4f6'
p385
aI00
aI00
aNaa(lp386
L5752090994058710841673155473731520L
aL5752090994058710841673155493731520L
aS'1f81e8f2-0912-11e4-8fee-ccd29b2fe4f6'
p387
aI00
aI00
aNaa(lp388
L5752090994058710841673155493731520L
aL5752090994058710841673155513731520L
aS'1f81f1bc-0912-11e4-8fee-ccd29b2fe4f6'
p389
aI00
aI00
aNaa(lp390
L5752090994058710841673155513731520L
aL5752090994058710841673155533731520L
aS'1f81fa54-0912-11e4-8fee-ccd29b2fe4f6'
p391
aI00
aI00
aNaa(lp392
L5752090994058710841673155533731520L
aL5752090994058710841673155553731520L
aS'1f820346-0912-11e4-8fee-ccd29b2fe4f6'
p393
aI00
aI00
aNaa(lp394
L5752090994058710841673155553731520L
aL5752090994058710841673155573731520L
aS'1f820c06-0912-11e4-8fee-ccd29b2fe4f6'
p395
aI00
aI00
aNaa(lp396
L5752090994058710841673155573731520L
aL5752090994058710841673155593731520L
aS'1f8214bc-0912-11e4-8fee-ccd29b2fe4f6'
p397
aI00
aI00
aNaa(lp398
L5752090994058710841673155593731520L
aL5752090994058710841673155613731520L
aS'1f821d36-0912-11e4-8fee-ccd29b2fe4f6'
p399
aI00
aI00
aNaa(lp400
L5752090994058710841673155613731520L
aL5752090994058710841673155633731520L
aS'1f8225ce-0912-11e4-8fee-ccd29b2fe4f6'
p401
aI00
aI00
aNaa(lp402
L5752090994058710841673155633731520L
aL5752090994058710841673155653731520L
aS'1f822e7a-0912-11e4-8fee-ccd29b2fe4f6'
p403
aI00
aI00
aNaa(lp404
L5752090994058710841673155653731520L
aL5752090994058710841673155673731520L
aS'1f823712-0912-11e4-8fee-ccd29b2fe4f6'
p405
aI00
aI00
aNaa(lp406
L5752090994058710841673155673731520L
aL5752090994058710841673155693731520L
aS'1f823fbe-0912-11e4-8fee-ccd29b2fe4f6'
p407
aI00
aI00
aNaa(lp408
L5752090994058710841673155693731520L
aL5752090994058710841673155713731520L
aS'1f82487e-0912-11e4-8fee-ccd29b2fe4f6'
p409
aI00
aI00
aNaa(lp410
L5752090994058710841673155713731520L
aL5752090994058710841673155733731520L
aS'1f825120-0912-11e4-8fee-ccd29b2fe4f6'
p411
aI00
aI00
aNaa(lp412
L5752090994058710841673155733731520L
aL5752090994058710841673155753731520L
aS'1f8259ae-0912-11e4-8fee-ccd29b2fe4f6'
p413
aI00
aI00
aNaa(lp414
L5752090994058710841673155753731520L
aL5752090994058710841673155773731520L
aS'1f826282-0912-11e4-8fee-ccd29b2fe4f6'
p415
aI00
aI00
aNaa(lp416
L5752090994058710841673155773731520L
aL5752090994058710841673155793731520L
aS'1f826b7e-0912-11e4-8fee-ccd29b2fe4f6'
p417
aI00
aI00
aNaa(lp418
L5752090994058710841673155793731520L
aL5752090994058710841673155813731520L
aS'1f82743e-0912-11e4-8fee-ccd29b2fe4f6'
p419
aI00
aI00
aNaa(lp420
L5752090994058710841673155813731520L
aL5752090994058710841673155833731520L
aS'1f827e2a-0912-11e4-8fee-ccd29b2fe4f6'
p421
aI00
aI00
aNaa(lp422
L5752090994058710841673155833731520L
aL5752090994058710841673155853731520L
aS'1f828b22-0912-11e4-8fee-ccd29b2fe4f6'
p423
aI00
aI00
aNaa(lp424
L5752090994058710841673155853731520L
aL5752090994058710841673155873731520L
aS'1f829644-0912-11e4-8fee-ccd29b2fe4f6'
p425
aI00
aI00
aNaa(lp426
L5752090994058710841673155873731520L
aL5752090994058710841673155893731520L
aS'1f82a01c-0912-11e4-8fee-ccd29b2fe4f6'
p427
aI00
aI00
aNaa(lp428
L5752090994058710841673155893731520L
aL5752090994058710841673155913731520L
aS'1f82a972-0912-11e4-8fee-ccd29b2fe4f6'
p429
aI00
aI00
aNaa(lp430
L5752090994058710841673155913731520L
aL5752090994058710841673155933731520L
aS'1f82b264-0912-11e4-8fee-ccd29b2fe4f6'
p431
aI00
aI00
aNaa(lp432
L5752090994058710841673155933731520L
aL5752090994058710841673155953731520L
aS'1f82bb6a-0912-11e4-8fee-ccd29b2fe4f6'
p433
aI00
aI00
aNaa(lp434
L5752090994058710841673155953731520L
aL5752090994058710841673155973731520L
aS'1f82c416-0912-11e4-8fee-ccd29b2fe4f6'
p435
aI00
aI00
aNaa(lp436
L5752090994058710841673155973731520L
aL5752090994058710841673155993731520L
aS'1f82ccfe-0912-11e4-8fee-ccd29b2fe4f6'
p437
aI00
aI00
aNaa(lp438
L5752090994058710841673155993731520L
aL5752090994058710841673156013731520L
aS'1f82d5be-0912-11e4-8fee-ccd29b2fe4f6'
p439
aI00
aI00
aNaa(lp440
L5752090994058710841673156013731520L
aL5752090994058710841673156033731520L
aS'1f83a714-0912-11e4-8fee-ccd29b2fe4f6'
p441
aI00
aI00
aNaa(lp442
L5752090994058710841673156033731520L
aL5752090994058710841673156053731520L
aS'1f83b1aa-0912-11e4-8fee-ccd29b2fe4f6'
p443
aI00
aI00
aNaa(lp444
L5752090994058710841673156053731520L
aL5752090994058710841673156073731520L
aS'1f83bb5a-0912-11e4-8fee-ccd29b2fe4f6'
p445
aI00
aI00
aNaa(lp446
L5752090994058710841673156073731520L
aL5752090994058710841673156093731520L
aS'1f83c46a-0912-11e4-8fee-ccd29b2fe4f6'
p447
aI00
aI00
aNaa(lp448
L5752090994058710841673156093731520L
aL5752090994058710841673156113731520L
aS'1f83cd98-0912-11e4-8fee-ccd29b2fe4f6'
p449
aI00
aI00
aNaa(lp450
L5752090994058710841673156113731520L
aL5752090994058710841673156133731520L
aS'1f83d676-0912-11e4-8fee-ccd29b2fe4f6'
p451
aI00
aI00
aNaa(lp452
L5752090994058710841673156133731520L
aL5752090994058710841673156153731520L
aS'1f83df5e-0912-11e4-8fee-ccd29b2fe4f6'
p453
aI00
aI00
aNaa(lp454
L5752090994058710841673156153731520L
aL5752090994058710841673156173731520L
aS'1f83e83c-0912-11e4-8fee-ccd29b2fe4f6'
p455
aI00
aI00
aNaa(lp456
L5752090994058710841673156173731520L
aL5752090994058710841673156193731520L
aS'1f83f14c-0912-11e4-8fee-ccd29b2fe4f6'
p457
aI00
aI00
aNaa(lp458
L5752090994058710841673156193731520L
aL5752090994058710841673156213731520L
aS'1f83fa20-0912-11e4-8fee-ccd29b2fe4f6'
p459
aI00
aI00
aNaa(lp460
L5752090994058710841673156213731520L
aL5752090994058710841673156233731520L
aS'1f8402d6-0912-11e4-8fee-ccd29b2fe4f6'
p461
aI00
aI00
aNaa(lp462
L5752090994058710841673156233731520L
aL5752090994058710841673156253731520L
aS'1f840bb4-0912-11e4-8fee-ccd29b2fe4f6'
p463
aI00
aI00
aNaa(lp464
L5752090994058710841673156253731520L
aL5752090994058710841673156273731520L
aS'1f841474-0912-11e4-8fee-ccd29b2fe4f6'
p465
aI00
aI00
aNaa(lp466
L5752090994058710841673156273731520L
aL5752090994058710841673156293731520L
aS'1f841d34-0912-11e4-8fee-ccd29b2fe4f6'
p467
aI00
aI00
aNaa(lp468
L5752090994058710841673156293731520L
aL5752090994058710841673156313731520L
aS'1f8425e0-0912-11e4-8fee-ccd29b2fe4f6'
p469
aI00
aI00
aNaa(lp470
L5752090994058710841673156313731520L
aL5752090994058710841673156333731520L
aS'1f842e50-0912-11e4-8fee-ccd29b2fe4f6'
p471
aI00
aI00
aNaa(lp472
L5752090994058710841673156333731520L
aL5752090994058710841673156353731520L
aS'1f84371a-0912-11e4-8fee-ccd29b2fe4f6'
p473
aI00
aI00
aNaa(lp474
L5752090994058710841673156353731520L
aL5752090994058710841673156373731520L
aS'1f844084-0912-11e4-8fee-ccd29b2fe4f6'
p475
aI00
aI00
aNaa(lp476
L5752090994058710841673156373731520L
aL5752090994058710841673156393731520L
aS'1f8449a8-0912-11e4-8fee-ccd29b2fe4f6'
p477
aI00
aI00
aNaa(lp478
L5752090994058710841673156393731520L
aL5752090994058710841673156413731520L
aS'1f8452fe-0912-11e4-8fee-ccd29b2fe4f6'
p479
aI00
aI00
aNaa(lp480
L5752090994058710841673156413731520L
aL5752090994058710841673156433731520L
aS'1f845cd6-0912-11e4-8fee-ccd29b2fe4f6'
p481
aI00
aI00
aNaa(lp482
L5752090994058710841673156433731520L
aL5752090994058710841673156453731520L
aS'1f8468ac-0912-11e4-8fee-ccd29b2fe4f6'
p483
aI00
aI00
aNaa(lp484
L5752090994058710841673156453731520L
aL5752090994058710841673156473731520L
aS'1f847266-0912-11e4-8fee-ccd29b2fe4f6'
p485
aI00
aI00
aNaa(lp486
L5752090994058710841673156473731520L
aL5752090994058710841673156493731520L
aS'1f847b76-0912-11e4-8fee-ccd29b2fe4f6'
p487
aI00
aI00
aNaa(lp488
L5752090994058710841673156493731520L
aL5752090994058710841673156513731520L
aS'1f848468-0912-11e4-8fee-ccd29b2fe4f6'
p489
aI00
aI00
aNaa(lp490
L5752090994058710841673156513731520L
aL5752090994058710841673156533731520L
aS'1f848d50-0912-11e4-8fee-ccd29b2fe4f6'
p491
aI00
aI00
aNaa(lp492
L5752090994058710841673156533731520L
aL5752090994058710841673156553731520L
aS'1f8495e8-0912-11e4-8fee-ccd29b2fe4f6'
p493
aI00
aI00
aNaa(lp494
L5752090994058710841673156553731520L
aL5752090994058710841673156573731520L
aS'1f849ebc-0912-11e4-8fee-ccd29b2fe4f6'
p495
aI00
aI00
aNaa(lp496
L5752090994058710841673156573731520L
aL5752090994058710841673156593731520L
aS'1f84a772-0912-11e4-8fee-ccd29b2fe4f6'
p497
aI00
aI00
aNaa(lp498
L5752090994058710841673156593731520L
aL5752090994058710841673156613731520L
aS'1f84b03c-0912-11e4-8fee-ccd29b2fe4f6'
p499
aI00
aI00
aNaa(lp500
L5752090994058710841673156613731520L
aL5752090994058710841673156633731520L
aS'1f84b91a-0912-11e4-8fee-ccd29b2fe4f6'
p501
aI00
aI00
aNaa(lp502
L5752090994058710841673156633731520L
aL5752090994058710841673156653731520L
aS'1f84c1d0-0912-11e4-8fee-ccd29b2fe4f6'
p503
aI00
aI00
aNaa(lp504
L5752090994058710841673156653731520L
aL5752090994058710841673156673731520L
aS'1f84ca90-0912-11e4-8fee-ccd29b2fe4f6'
p505
aI00
aI00
aNaa(lp506
L5752090994058710841673156673731520L
aL5752090994058710841673156693731520L
aS'1f84d332-0912-11e4-8fee-ccd29b2fe4f6'
p507
aI00
aI00
aNaa(lp508
L5752090994058710841673156693731520L
aL5752090994058710841673156713731520L
aS'1f84dbe8-0912-11e4-8fee-ccd29b2fe4f6'
p509
aI00
aI00
aNaa(lp510
L5752090994058710841673156713731520L
aL5752090994058710841673156733731520L
aS'1f84e480-0912-11e4-8fee-ccd29b2fe4f6'
p511
aI00
aI00
aNaa(lp512
L5752090994058710841673156733731520L
aL5752090994058710841673156753731520L
aS'1f84ed2c-0912-11e4-8fee-ccd29b2fe4f6'
p513
aI00
aI00
aNaa(lp514
L5752090994058710841673156753731520L
aL5752090994058710841673156773731520L
aS'1f84f5ce-0912-11e4-8fee-ccd29b2fe4f6'
p515
aI00
aI00
aNaa(lp516
L5752090994058710841673156773731520L
aL5752090994058710841673156793731520L
aS'1f84fe70-0912-11e4-8fee-ccd29b2fe4f6'
p517
aI00
aI00
aNaa(lp518
L5752090994058710841673156793731520L
aL5752090994058710841673156813731520L
aS'1f850726-0912-11e4-8fee-ccd29b2fe4f6'
p519
aI00
aI00
aNaa(lp520
L5752090994058710841673156813731520L
aL5752090994058710841673156833731520L
aS'1f850fbe-0912-11e4-8fee-ccd29b2fe4f6'
p521
aI00
aI00
aNaa(lp522
L5752090994058710841673156833731520L
aL5752090994058710841673156853731520L
aS'1f851874-0912-11e4-8fee-ccd29b2fe4f6'
p523
aI00
aI00
aNaa(lp524
L5752090994058710841673156853731520L
aL5752090994058710841673156873731520L
aS'1f852134-0912-11e4-8fee-ccd29b2fe4f6'
p525
aI00
aI00
aNaa(lp526
L5752090994058710841673156873731520L
aL5752090994058710841673156893731520L
aS'1f852a12-0912-11e4-8fee-ccd29b2fe4f6'
p527
aI00
aI00
aNaa(lp528
L5752090994058710841673156893731520L
aL5752090994058710841673156913731520L
aS'1f8532d2-0912-11e4-8fee-ccd29b2fe4f6'
p529
aI00
aI00
aNaa(lp530
L5752090994058710841673156913731520L
aL5752090994058710841673156933731520L
aS'1f853b6a-0912-11e4-8fee-ccd29b2fe4f6'
p531
aI00
aI00
aNaa(lp532
L5752090994058710841673156933731520L
aL5752090994058710841673156953731520L
aS'1f854416-0912-11e4-8fee-ccd29b2fe4f6'
p533
aI00
aI00
aNaa(lp534
L5752090994058710841673156953731520L
aL5752090994058710841673156973731520L
aS'1f854cd6-0912-11e4-8fee-ccd29b2fe4f6'
p535
aI00
aI00
aNaa(lp536
L5752090994058710841673156973731520L
aL5752090994058710841673156993731520L
aS'1f8555aa-0912-11e4-8fee-ccd29b2fe4f6'
p537
aI00
aI00
aNaa(lp538
L5752090994058710841673156993731520L
aL5752090994058710841673157013731520L
aS'1f855e74-0912-11e4-8fee-ccd29b2fe4f6'
p539
aI00
aI00
aNaa(lp540
L5752090994058710841673157013731520L
aL5752090994058710841673157033731520L
aS'1f856716-0912-11e4-8fee-ccd29b2fe4f6'
p541
aI00
aI00
aNaa(lp542
L5752090994058710841673157033731520L
aL5752090994058710841673157053731520L
aS'1f856fe0-0912-11e4-8fee-ccd29b2fe4f6'
p543
aI00
aI00
aNaa(lp544
L5752090994058710841673157053731520L
aL5752090994058710841673157073731520L
aS'1f85794a-0912-11e4-8fee-ccd29b2fe4f6'
p545
aI00
aI00
aNaa(lp546
L5752090994058710841673157073731520L
aL5752090994058710841673157093731520L
aS'1f858246-0912-11e4-8fee-ccd29b2fe4f6'
p547
aI00
aI00
aNaa(lp548
L5752090994058710841673157093731520L
aL5752090994058710841673157113731520L
aS'1f858ae8-0912-11e4-8fee-ccd29b2fe4f6'
p549
aI00
aI00
aNaa(lp550
L5752090994058710841673157113731520L
aL5752090994058710841673157133731520L
aS'1f8593b2-0912-11e4-8fee-ccd29b2fe4f6'
p551
aI00
aI00
aNaa(lp552
L5752090994058710841673157133731520L
aL5752090994058710841673157153731520L
aS'1f859c54-0912-11e4-8fee-ccd29b2fe4f6'
p553
aI00
aI00
aNaa(lp554
L5752090994058710841673157153731520L
aL5752090994058710841673157173731520L
aS'1f85a4f6-0912-11e4-8fee-ccd29b2fe4f6'
p555
aI00
aI00
aNaa(lp556
L5752090994058710841673157173731520L
aL5752090994058710841673157193731520L
aS'1f85ad8e-0912-11e4-8fee-ccd29b2fe4f6'
p557
aI00
aI00
aNaa(lp558
L5752090994058710841673157193731520L
aL5752090994058710841673157213731520L
aS'1f85b612-0912-11e4-8fee-ccd29b2fe4f6'
p559
aI00
aI00
aNaa(lp560
L5752090994058710841673157213731520L
aL5752090994058710841673157233731520L
aS'1f85bec8-0912-11e4-8fee-ccd29b2fe4f6'
p561
aI00
aI00
aNaa(lp562
L5752090994058710841673157233731520L
aL5752090994058710841673157253731520L
aS'1f860f04-0912-11e4-8fee-ccd29b2fe4f6'
p563
aI00
aI00
aNaa(lp564
L5752090994058710841673157253731520L
aL5752090994058710841673157273731520L
aS'1f861c38-0912-11e4-8fee-ccd29b2fe4f6'
p565
aI00
aI00
aNaa(lp566
L5752090994058710841673157273731520L
aL5752090994058710841673157293731520L
aS'1f86269c-0912-11e4-8fee-ccd29b2fe4f6'
p567
aI00
aI00
aNaa(lp568
L5752090994058710841673157293731520L
aL5752090994058710841673157313731520L
aS'1f86304c-0912-11e4-8fee-ccd29b2fe4f6'
p569
aI00
aI00
aNaa(lp570
L5752090994058710841673157313731520L
aL5752090994058710841673157333731520L
aS'1f8639b6-0912-11e4-8fee-ccd29b2fe4f6'
p571
aI00
aI00
aNaa(lp572
L5752090994058710841673157333731520L
aL5752090994058710841673157353731520L
aS'1f8642c6-0912-11e4-8fee-ccd29b2fe4f6'
p573
aI00
aI00
aNaa(lp574
L5752090994058710841673157353731520L
aL5752090994058710841673157373731520L
aS'1f864bae-0912-11e4-8fee-ccd29b2fe4f6'
p575
aI00
aI00
aNaa(lp576
L5752090994058710841673157373731520L
aL5752090994058710841673157393731520L
aS'1f86545a-0912-11e4-8fee-ccd29b2fe4f6'
p577
aI00
aI00
aNaa(lp578
L5752090994058710841673157393731520L
aL5752090994058710841673157413731520L
aS'1f865d38-0912-11e4-8fee-ccd29b2fe4f6'
p579
aI00
aI00
aNaa(lp580
L5752090994058710841673157413731520L
aL5752090994058710841673157433731520L
aS'1f866602-0912-11e4-8fee-ccd29b2fe4f6'
p581
aI00
aI00
aNaa(lp582
L5752090994058710841673157433731520L
aL5752090994058710841673157453731520L
aS'1f866ec2-0912-11e4-8fee-ccd29b2fe4f6'
p583
aI00
aI00
aNaa(lp584
L5752090994058710841673157453731520L
aL5752090994058710841673157473731520L
aS'1f86776e-0912-11e4-8fee-ccd29b2fe4f6'
p585
aI00
aI00
aNaa(lp586
L5752090994058710841673157473731520L
aL5752090994058710841673157493731520L
aS'1f868038-0912-11e4-8fee-ccd29b2fe4f6'
p587
aI00
aI00
aNaa(lp588
L5752090994058710841673157493731520L
aL5752090994058710841673157513731520L
aS'1f868902-0912-11e4-8fee-ccd29b2fe4f6'
p589
aI00
aI00
aNaa(lp590
L5752090994058710841673157513731520L
aL5752090994058710841673157533731520L
aS'1f869366-0912-11e4-8fee-ccd29b2fe4f6'
p591
aI00
aI00
aNaa(lp592
L5752090994058710841673157533731520L
aL5752090994058710841673157553731520L
aS'1f869f00-0912-11e4-8fee-ccd29b2fe4f6'
p593
aI00
aI00
aNaa(lp594
L5752090994058710841673157553731520L
aL5752090994058710841673157573731520L
aS'1f86a914-0912-11e4-8fee-ccd29b2fe4f6'
p595
aI00
aI00
aNaa(lp596
L5752090994058710841673157573731520L
aL5752090994058710841673157593731520L
aS'1f86b260-0912-11e4-8fee-ccd29b2fe4f6'
p597
aI00
aI00
aNaa(lp598
L5752090994058710841673157593731520L
aL5752090994058710841673157613731520L
aS'1f86bb66-0912-11e4-8fee-ccd29b2fe4f6'
p599
aI00
aI00
aNaa(lp600
L5752090994058710841673157613731520L
aL5752090994058710841673157633731520L
aS'1f86c43a-0912-11e4-8fee-ccd29b2fe4f6'
p601
aI00
aI00
aNaa(lp602
L5752090994058710841673157633731520L
aL5752090994058710841673157653731520L
aS'1f86cdea-0912-11e4-8fee-ccd29b2fe4f6'
p603
aI00
aI00
aNaa(lp604
L5752090994058710841673157653731520L
aL5752090994058710841673157673731520L
aS'1f86d718-0912-11e4-8fee-ccd29b2fe4f6'
p605
aI00
aI00
aNaa(lp606
L5752090994058710841673157673731520L
aL5752090994058710841673157693731520L
aS'1f86e028-0912-11e4-8fee-ccd29b2fe4f6'
p607
aI00
aI00
aNaa(lp608
L5752090994058710841673157693731520L
aL5752090994058710841673157713731520L
aS'1f86e9ba-0912-11e4-8fee-ccd29b2fe4f6'
p609
aI00
aI00
aNaa(lp610
L5752090994058710841673157713731520L
aL5752090994058710841673157733731520L
aS'1f86f284-0912-11e4-8fee-ccd29b2fe4f6'
p611
aI00
aI00
aNaa(lp612
L5752090994058710841673157733731520L
aL5752090994058710841673157753731520L
aS'1f86fb4e-0912-11e4-8fee-ccd29b2fe4f6'
p613
aI00
aI00
aNaa(lp614
L5752090994058710841673157753731520L
aL5752090994058710841673157773731520L
aS'1f87045e-0912-11e4-8fee-ccd29b2fe4f6'
p615
aI00
aI00
aNaa(lp616
L5752090994058710841673157773731520L
aL5752090994058710841673157793731520L
aS'1f870d0a-0912-11e4-8fee-ccd29b2fe4f6'
p617
aI00
aI00
aNaa(lp618
L5752090994058710841673157793731520L
aL5752090994058710841673157813731520L
aS'1f8715ac-0912-11e4-8fee-ccd29b2fe4f6'
p619
aI00
aI00
aNaa(lp620
L5752090994058710841673157813731520L
aL5752090994058710841673157833731520L
aS'1f871e3a-0912-11e4-8fee-ccd29b2fe4f6'
p621
aI00
aI00
aNaa(lp622
L5752090994058710841673157833731520L
aL5752090994058710841673157853731520L
aS'1f8726e6-0912-11e4-8fee-ccd29b2fe4f6'
p623
aI00
aI00
aNaa(lp624
L5752090994058710841673157853731520L
aL5752090994058710841673157873731520L
aS'1f872f9c-0912-11e4-8fee-ccd29b2fe4f6'
p625
aI00
aI00
aNaa(lp626
L5752090994058710841673157873731520L
aL5752090994058710841673157893731520L
aS'1f87382a-0912-11e4-8fee-ccd29b2fe4f6'
p627
aI00
aI00
aNaa(lp628
L5752090994058710841673157893731520L
aL5752090994058710841673157913731520L
aS'1f8740ae-0912-11e4-8fee-ccd29b2fe4f6'
p629
aI00
aI00
aNaa(lp630
L5752090994058710841673157913731520L
aL5752090994058710841673157933731520L
aS'1f87495a-0912-11e4-8fee-ccd29b2fe4f6'
p631
aI00
aI00
aNaa(lp632
L5752090994058710841673157933731520L
aL5752090994058710841673157953731520L
aS'1f87522e-0912-11e4-8fee-ccd29b2fe4f6'
p633
aI00
aI00
aNaa(lp634
L5752090994058710841673157953731520L
aL5752090994058710841673157973731520L
aS'1f875abc-0912-11e4-8fee-ccd29b2fe4f6'
p635
aI00
aI00
aNaa(lp636
L5752090994058710841673157973731520L
aL5752090994058710841673157993731520L
aS'1f876386-0912-11e4-8fee-ccd29b2fe4f6'
p637
aI00
aI00
aNaa(lp638
L5752090994058710841673157993731520L
aL5752090994058710841673158013731520L
aS'1f876c1e-0912-11e4-8fee-ccd29b2fe4f6'
p639
aI00
aI00
aNaa(lp640
L5752090994058710841673158013731520L
aL5752090994058710841673158033731520L
aS'1f877844-0912-11e4-8fee-ccd29b2fe4f6'
p641
aI00
aI00
aNaa(lp642
L5752090994058710841673158033731520L
aL5752090994058710841673158053731520L
aS'1f8781f4-0912-11e4-8fee-ccd29b2fe4f6'
p643
aI00
aI00
aNaa(lp644
L5752090994058710841673158053731520L
aL5752090994058710841673158073731520L
aS'1f878b2c-0912-11e4-8fee-ccd29b2fe4f6'
p645
aI00
aI00
aNaa(lp646
L5752090994058710841673158073731520L
aL5752090994058710841673158093731520L
aS'1f879428-0912-11e4-8fee-ccd29b2fe4f6'
p647
aI00
aI00
aNaa(lp648
L5752090994058710841673158093731520L
aL5752090994058710841673158113731520L
aS'1f879d06-0912-11e4-8fee-ccd29b2fe4f6'
p649
aI00
aI00
aNaa(lp650
L5752090994058710841673158113731520L
aL5752090994058710841673158133731520L
aS'1f87a5b2-0912-11e4-8fee-ccd29b2fe4f6'
p651
aI00
aI00
aNaa(lp652
L5752090994058710841673158133731520L
aL5752090994058710841673158153731520L
aS'1f87ae72-0912-11e4-8fee-ccd29b2fe4f6'
p653
aI00
aI00
aNaa(lp654
L5752090994058710841673158153731520L
aL5752090994058710841673158173731520L
aS'1f87b746-0912-11e4-8fee-ccd29b2fe4f6'
p655
aI00
aI00
aNaa(lp656
L5752090994058710841673158173731520L
aL5752090994058710841673158193731520L
aS'1f87c038-0912-11e4-8fee-ccd29b2fe4f6'
p657
aI00
aI00
aNaa(lp658
L5752090994058710841673158193731520L
aL5752090994058710841673158213731520L
aS'1f87c8d0-0912-11e4-8fee-ccd29b2fe4f6'
p659
aI00
aI00
aNaa(lp660
L5752090994058710841673158213731520L
aL5752090994058710841673158233731520L
aS'1f87d17c-0912-11e4-8fee-ccd29b2fe4f6'
p661
aI00
aI00
aNaa(lp662
L5752090994058710841673158233731520L
aL5752090994058710841673158253731520L
aS'1f87da46-0912-11e4-8fee-ccd29b2fe4f6'
p663
aI00
aI00
aNaa(lp664
L5752090994058710841673158253731520L
aL5752090994058710841673158273731520L
aS'1f87e2e8-0912-11e4-8fee-ccd29b2fe4f6'
p665
aI00
aI00
aNaa(lp666
L5752090994058710841673158273731520L
aL5752090994058710841673158293731520L
aS'1f87eb8a-0912-11e4-8fee-ccd29b2fe4f6'
p667
aI00
aI00
aNaa(lp668
L5752090994058710841673158293731520L
aL5752090994058710841673158313731520L
aS'1f87f468-0912-11e4-8fee-ccd29b2fe4f6'
p669
aI00
aI00
aNaa(lp670
L5752090994058710841673158313731520L
aL5752090994058710841673158333731520L
aS'1f87fd0a-0912-11e4-8fee-ccd29b2fe4f6'
p671
aI00
aI00
aNaa(lp672
L5752090994058710841673158333731520L
aL5752090994058710841673158353731520L
aS'1f8805b6-0912-11e4-8fee-ccd29b2fe4f6'
p673
aI00
aI00
aNaa(lp674
L5752090994058710841673158353731520L
aL5752090994058710841673158373731520L
aS'1f880e3a-0912-11e4-8fee-ccd29b2fe4f6'
p675
aI00
aI00
aNaa(lp676
L5752090994058710841673158373731520L
aL5752090994058710841673158393731520L
aS'1f8816e6-0912-11e4-8fee-ccd29b2fe4f6'
p677
aI00
aI00
aNaa(lp678
L5752090994058710841673158393731520L
aL5752090994058710841673158413731520L
aS'1f881fba-0912-11e4-8fee-ccd29b2fe4f6'
p679
aI00
aI00
aNaa(lp680
L5752090994058710841673158413731520L
aL5752090994058710841673158433731520L
aS'1f882898-0912-11e4-8fee-ccd29b2fe4f6'
p681
aI00
aI00
aNaa(lp682
L5752090994058710841673158433731520L
aL5752090994058710841673158453731520L
aS'1f88313a-0912-11e4-8fee-ccd29b2fe4f6'
p683
aI00
aI00
aNaa(lp684
L5752090994058710841673158453731520L
aL5752090994058710841673158473731520L
aS'1f8839b4-0912-11e4-8fee-ccd29b2fe4f6'
p685
aI00
aI00
aNaa(lp686
L5752090994058710841673158473731520L
aL5752090994058710841673158493731520L
aS'1f884242-0912-11e4-8fee-ccd29b2fe4f6'
p687
aI00
aI00
aNaa(lp688
L5752090994058710841673158493731520L
aL5752090994058710841673158513731520L
aS'1f884ac6-0912-11e4-8fee-ccd29b2fe4f6'
p689
aI00
aI00
aNaa(lp690
L5752090994058710841673158513731520L
aL5752090994058710841673158533731520L
aS'1f885368-0912-11e4-8fee-ccd29b2fe4f6'
p691
aI00
aI00
aNaa(lp692
L5752090994058710841673158533731520L
aL5752090994058710841673158553731520L
aS'1f885c0a-0912-11e4-8fee-ccd29b2fe4f6'
p693
aI00
aI00
aNaa(lp694
L5752090994058710841673158553731520L
aL5752090994058710841673158573731520L
aS'1f886484-0912-11e4-8fee-ccd29b2fe4f6'
p695
aI00
aI00
aNaa(lp696
L5752090994058710841673158573731520L
aL5752090994058710841673158593731520L
aS'1f886d58-0912-11e4-8fee-ccd29b2fe4f6'
p697
aI00
aI00
aNaa(lp698
L5752090994058710841673158593731520L
aL5752090994058710841673158613731520L
aS'1f88760e-0912-11e4-8fee-ccd29b2fe4f6'
p699
aI00
aI00
aNaa(lp700
L5752090994058710841673158613731520L
aL5752090994058710841673158633731520L
aS'1f887eba-0912-11e4-8fee-ccd29b2fe4f6'
p701
aI00
aI00
aNaa(lp702
L5752090994058710841673158633731520L
aL5752090994058710841673158653731520L
aS'1f88878e-0912-11e4-8fee-ccd29b2fe4f6'
p703
aI00
aI00
aNaa(lp704
L5752090994058710841673158653731520L
aL5752090994058710841673158673731520L
aS'1f889008-0912-11e4-8fee-ccd29b2fe4f6'
p705
aI00
aI00
aNaa(lp706
L5752090994058710841673158673731520L
aL5752090994058710841673158693731520L
aS'1f8898a0-0912-11e4-8fee-ccd29b2fe4f6'
p707
aI00
aI00
aNaa(lp708
L5752090994058710841673158693731520L
aL5752090994058710841673158713731520L
aS'1f88a188-0912-11e4-8fee-ccd29b2fe4f6'
p709
aI00
aI00
aNaa(lp710
L5752090994058710841673158713731520L
aL5752090994058710841673158733731520L
aS'1f88aa34-0912-11e4-8fee-ccd29b2fe4f6'
p711
aI00
aI00
aNaa(lp712
L5752090994058710841673158733731520L
aL5752090994058710841673158753731520L
aS'1f88b2d6-0912-11e4-8fee-ccd29b2fe4f6'
p713
aI00
aI00
aNaa(lp714
L5752090994058710841673158753731520L
aL5752090994058710841673158773731520L
aS'1f88bbaa-0912-11e4-8fee-ccd29b2fe4f6'
p715
aI00
aI00
aNaa(lp716
L5752090994058710841673158773731520L
aL5752090994058710841673158793731520L
aS'1f88c474-0912-11e4-8fee-ccd29b2fe4f6'
p717
aI00
aI00
aNaa(lp718
L5752090994058710841673158793731520L
aL5752090994058710841673158813731520L
aS'1f88cd34-0912-11e4-8fee-ccd29b2fe4f6'
p719
aI00
aI00
aNaa(lp720
L5752090994058710841673158813731520L
aL5752090994058710841673158833731520L
aS'1f88d5ea-0912-11e4-8fee-ccd29b2fe4f6'
p721
aI00
aI00
aNaa(lp722
L5752090994058710841673158833731520L
aL5752090994058710841673158853731520L
aS'1f88dea0-0912-11e4-8fee-ccd29b2fe4f6'
p723
aI00
aI00
aNaa(lp724
L5752090994058710841673158853731520L
aL5752090994058710841673158873731520L
aS'1f88e756-0912-11e4-8fee-ccd29b2fe4f6'
p725
aI00
aI00
aNaa(lp726
L5752090994058710841673158873731520L
aL5752090994058710841673158893731520L
aS'1f88f020-0912-11e4-8fee-ccd29b2fe4f6'
p727
aI00
aI00
aNaa(lp728
L5752090994058710841673158893731520L
aL5752090994058710841673158913731520L
aS'1f88fbb0-0912-11e4-8fee-ccd29b2fe4f6'
p729
aI00
aI00
aNaa(lp730
L5752090994058710841673158913731520L
aL5752090994058710841673158933731520L
aS'1f89054c-0912-11e4-8fee-ccd29b2fe4f6'
p731
aI00
aI00
aNaa(lp732
L5752090994058710841673158933731520L
aL5752090994058710841673158953731520L
aS'1f890e52-0912-11e4-8fee-ccd29b2fe4f6'
p733
aI00
aI00
aNaa(lp734
L5752090994058710841673158953731520L
aL5752090994058710841673158973731520L
aS'1f891708-0912-11e4-8fee-ccd29b2fe4f6'
p735
aI00
aI00
aNaa(lp736
L5752090994058710841673158973731520L
aL5752090994058710841673158993731520L
aS'1f891fc8-0912-11e4-8fee-ccd29b2fe4f6'
p737
aI00
aI00
aNaa(lp738
L5752090994058710841673158993731520L
aL5752090994058710841673159013731520L
aS'1f89289c-0912-11e4-8fee-ccd29b2fe4f6'
p739
aI00
aI00
aNaa(lp740
L5752090994058710841673159013731520L
aL5752090994058710841673159033731520L
aS'1f893166-0912-11e4-8fee-ccd29b2fe4f6'
p741
aI00
aI00
aNaa(lp742
L5752090994058710841673159033731520L
aL5752090994058710841673159053731520L
aS'1f893a4e-0912-11e4-8fee-ccd29b2fe4f6'
p743
aI00
aI00
aNaa(lp744
L5752090994058710841673159053731520L
aL5752090994058710841673159073731520L
aS'1f89435e-0912-11e4-8fee-ccd29b2fe4f6'
p745
aI00
aI00
aNaa(lp746
L5752090994058710841673159073731520L
aL5752090994058710841673159093731520L
aS'1f894c28-0912-11e4-8fee-ccd29b2fe4f6'
p747
aI00
aI00
aNaa(lp748
L5752090994058710841673159093731520L
aL5752090994058710841673159113731520L
aS'1f8954d4-0912-11e4-8fee-ccd29b2fe4f6'
p749
aI00
aI00
aNaa(lp750
L5752090994058710841673159113731520L
aL5752090994058710841673159133731520L
aS'1f895e84-0912-11e4-8fee-ccd29b2fe4f6'
p751
aI00
aI00
aNaa(lp752
L5752090994058710841673159133731520L
aL5752090994058710841673159153731520L
aS'1f896762-0912-11e4-8fee-ccd29b2fe4f6'
p753
aI00
aI00
aNaa(lp754
L5752090994058710841673159153731520L
aL5752090994058710841673159173731520L
aS'1f8970a4-0912-11e4-8fee-ccd29b2fe4f6'
p755
aI00
aI00
aNaa(lp756
L5752090994058710841673159173731520L
aL5752090994058710841673159193731520L
aS'1f8979aa-0912-11e4-8fee-ccd29b2fe4f6'
p757
aI00
aI00
aNaa(lp758
L5752090994058710841673159193731520L
aL5752090994058710841673159213731520L
aS'1f898274-0912-11e4-8fee-ccd29b2fe4f6'
p759
aI00
aI00
aNaa(lp760
L5752090994058710841673159213731520L
aL5752090994058710841673159233731520L
aS'1f898b2a-0912-11e4-8fee-ccd29b2fe4f6'
p761
aI00
aI00
aNaa(lp762
L5752090994058710841673159233731520L
aL5752090994058710841673159253731520L
aS'1f8993d6-0912-11e4-8fee-ccd29b2fe4f6'
p763
aI00
aI00
aNaa(lp764
L5752090994058710841673159253731520L
aL5752090994058710841673159273731520L
aS'1f899c64-0912-11e4-8fee-ccd29b2fe4f6'
p765
aI00
aI00
aNaa(lp766
L5752090994058710841673159273731520L
aL5752090994058710841673159293731520L
aS'1f89a51a-0912-11e4-8fee-ccd29b2fe4f6'
p767
aI00
aI00
aNaa(lp768
L5752090994058710841673159293731520L
aL5752090994058710841673159313731520L
aS'1f89ad8a-0912-11e4-8fee-ccd29b2fe4f6'
p769
aI00
aI00
aNaa(lp770
L5752090994058710841673159313731520L
aL5752090994058710841673159333731520L
aS'1f89b654-0912-11e4-8fee-ccd29b2fe4f6'
p771
aI00
aI00
aNaa(lp772
L5752090994058710841673159333731520L
aL5752090994058710841673159353731520L
aS'1f89bee2-0912-11e4-8fee-ccd29b2fe4f6'
p773
aI00
aI00
aNaa(lp774
L5752090994058710841673159353731520L
aL5752090994058710841673159373731520L
aS'1f89c784-0912-11e4-8fee-ccd29b2fe4f6'
p775
aI00
aI00
aNaa(lp776
L5752090994058710841673159373731520L
aL5752090994058710841673159393731520L
aS'1f89d008-0912-11e4-8fee-ccd29b2fe4f6'
p777
aI00
aI00
aNaa(lp778
L5752090994058710841673159393731520L
aL5752090994058710841673159413731520L
aS'1f89d882-0912-11e4-8fee-ccd29b2fe4f6'
p779
aI00
aI00
aNaa(lp780
L5752090994058710841673159413731520L
aL5752090994058710841673159433731520L
aS'1f89e174-0912-11e4-8fee-ccd29b2fe4f6'
p781
aI00
aI00
aNaa(lp782
L5752090994058710841673159433731520L
aL5752090994058710841673159453731520L
aS'1f89ea2a-0912-11e4-8fee-ccd29b2fe4f6'
p783
aI00
aI00
aNaa(lp784
L5752090994058710841673159453731520L
aL5752090994058710841673159473731520L
aS'1f89f2c2-0912-11e4-8fee-ccd29b2fe4f6'
p785
aI00
aI00
aNaa(lp786
L5752090994058710841673159473731520L
aL5752090994058710841673159493731520L
aS'1f89fb6e-0912-11e4-8fee-ccd29b2fe4f6'
p787
aI00
aI00
aNaa(lp788
L5752090994058710841673159493731520L
aL5752090994058710841673159513731520L
aS'1f8a041a-0912-11e4-8fee-ccd29b2fe4f6'
p789
aI00
aI00
aNaa(lp790
L5752090994058710841673159513731520L
aL5752090994058710841673159533731520L
aS'1f8a0cee-0912-11e4-8fee-ccd29b2fe4f6'
p791
aI00
aI00
aNaa(lp792
L5752090994058710841673159533731520L
aL5752090994058710841673159553731520L
aS'1f8a15a4-0912-11e4-8fee-ccd29b2fe4f6'
p793
aI00
aI00
aNaa(lp794
L5752090994058710841673159553731520L
aL5752090994058710841673159573731520L
aS'1f8a1e46-0912-11e4-8fee-ccd29b2fe4f6'
p795
aI00
aI00
aNaa(lp796
L5752090994058710841673159573731520L
aL5752090994058710841673159593731520L
aS'1f8a271a-0912-11e4-8fee-ccd29b2fe4f6'
p797
aI00
aI00
aNaa(lp798
L5752090994058710841673159593731520L
aL5752090994058710841673159613731520L
aS'1f8a2fda-0912-11e4-8fee-ccd29b2fe4f6'
p799
aI00
aI00
aNaa(lp800
L5752090994058710841673159613731520L
aL5752090994058710841673159633731520L
aS'1f8a38ea-0912-11e4-8fee-ccd29b2fe4f6'
p801
aI00
aI00
aNaa(lp802
L5752090994058710841673159633731520L
aL5752090994058710841673159653731520L
aS'1f8a418c-0912-11e4-8fee-ccd29b2fe4f6'
p803
aI00
aI00
aNaa(lp804
L5752090994058710841673159653731520L
aL5752090994058710841673159673731520L
aS'1f8a4a7e-0912-11e4-8fee-ccd29b2fe4f6'
p805
aI00
aI00
aNaa(lp806
L5752090994058710841673159673731520L
aL5752090994058710841673159693731520L
aS'1f8a5302-0912-11e4-8fee-ccd29b2fe4f6'
p807
aI00
aI00
aNaa(lp808
L5752090994058710841673159693731520L
aL5752090994058710841673159713731520L
aS'1f8a5b7c-0912-11e4-8fee-ccd29b2fe4f6'
p809
aI00
aI00
aNaa(lp810
L5752090994058710841673159713731520L
aL5752090994058710841673159733731520L
aS'1f8a643c-0912-11e4-8fee-ccd29b2fe4f6'
p811
aI00
aI00
aNaa(lp812
L5752090994058710841673159733731520L
aL5752090994058710841673159753731520L
aS'1f8a6cf2-0912-11e4-8fee-ccd29b2fe4f6'
p813
aI00
aI00
aNaa(lp814
L5752090994058710841673159753731520L
aL5752090994058710841673159773731520L
aS'1f8a75da-0912-11e4-8fee-ccd29b2fe4f6'
p815
aI00
aI00
aNaa(lp816
L5752090994058710841673159773731520L
aL5752090994058710841673159793731520L
aS'1f8a819c-0912-11e4-8fee-ccd29b2fe4f6'
p817
aI00
aI00
aNaa(lp818
L5752090994058710841673159793731520L
aL5752090994058710841673159813731520L
aS'1f8a8b42-0912-11e4-8fee-ccd29b2fe4f6'
p819
aI00
aI00
aNaa(lp820
L5752090994058710841673159813731520L
aL5752090994058710841673159833731520L
aS'1f8a9470-0912-11e4-8fee-ccd29b2fe4f6'
p821
aI00
aI00
aNaa(lp822
L5752090994058710841673159833731520L
aL5752090994058710841673159853731520L
aS'1f8a9d80-0912-11e4-8fee-ccd29b2fe4f6'
p823
aI00
aI00
aNaa(lp824
L5752090994058710841673159853731520L
aL5752090994058710841673159873731520L
aS'1f8aa65e-0912-11e4-8fee-ccd29b2fe4f6'
p825
aI00
aI00
aNaa(lp826
L5752090994058710841673159873731520L
aL5752090994058710841673159893731520L
aS'1f8aaf46-0912-11e4-8fee-ccd29b2fe4f6'
p827
aI00
aI00
aNaa(lp828
L5752090994058710841673159893731520L
aL5752090994058710841673159913731520L
aS'1f8ab838-0912-11e4-8fee-ccd29b2fe4f6'
p829
aI00
aI00
aNaa(lp830
L5752090994058710841673159913731520L
aL5752090994058710841673159933731520L
aS'1f8ac152-0912-11e4-8fee-ccd29b2fe4f6'
p831
aI00
aI00
aNaa(lp832
L5752090994058710841673159933731520L
aL5752090994058710841673159953731520L
aS'1f8aca30-0912-11e4-8fee-ccd29b2fe4f6'
p833
aI00
aI00
aNaa(lp834
L5752090994058710841673159953731520L
aL5752090994058710841673159973731520L
aS'1f8ad30e-0912-11e4-8fee-ccd29b2fe4f6'
p835
aI00
aI00
aNaa(lp836
L5752090994058710841673159973731520L
aL5752090994058710841673159993731520L
aS'1f8adbba-0912-11e4-8fee-ccd29b2fe4f6'
p837
aI00
aI00
aNaa(lp838
L5752090994058710841673159993731520L
aL5752090994058710841673160013731520L
aS'1f8ae45c-0912-11e4-8fee-ccd29b2fe4f6'
p839
aI00
aI00
aNaa(lp840
L5752090994058710841673160013731520L
aL5752090994058710841673160033731520L
aS'1f8aed26-0912-11e4-8fee-ccd29b2fe4f6'
p841
aI00
aI00
aNaa(lp842
L5752090994058710841673160033731520L
aL5752090994058710841673160053731520L
aS'1f8af5dc-0912-11e4-8fee-ccd29b2fe4f6'
p843
aI00
aI00
aNaa(lp844
L5752090994058710841673160053731520L
aL5752090994058710841673160073731520L
aS'1f8afea6-0912-11e4-8fee-ccd29b2fe4f6'
p845
aI00
aI00
aNaa(lp846
L5752090994058710841673160073731520L
aL5752090994058710841673160093731520L
aS'1f8b0766-0912-11e4-8fee-ccd29b2fe4f6'
p847
aI00
aI00
aNaa(lp848
L5752090994058710841673160093731520L
aL5752090994058710841673160113731520L
aS'1f8b1012-0912-11e4-8fee-ccd29b2fe4f6'
p849
aI00
aI00
aNaa(lp850
L5752090994058710841673160113731520L
aL5752090994058710841673160133731520L
aS'1f8b18a0-0912-11e4-8fee-ccd29b2fe4f6'
p851
aI00
aI00
aNaa(lp852
L5752090994058710841673160133731520L
aL5752090994058710841673160153731520L
aS'1f8b216a-0912-11e4-8fee-ccd29b2fe4f6'
p853
aI00
aI00
aNaa(lp854
L5752090994058710841673160153731520L
aL5752090994058710841673160173731520L
aS'1f8b2a0c-0912-11e4-8fee-ccd29b2fe4f6'
p855
aI00
aI00
aNaa(lp856
L5752090994058710841673160173731520L
aL5752090994058710841673160193731520L
aS'1f8b32b8-0912-11e4-8fee-ccd29b2fe4f6'
p857
aI00
aI00
aNaa(lp858
L5752090994058710841673160193731520L
aL5752090994058710841673160213731520L
aS'1f8b3b78-0912-11e4-8fee-ccd29b2fe4f6'
p859
aI00
aI00
aNaa(lp860
L5752090994058710841673160213731520L
aL5752090994058710841673160233731520L
aS'1f8b4424-0912-11e4-8fee-ccd29b2fe4f6'
p861
aI00
aI00
aNaa(lp862
L5752090994058710841673160233731520L
aL5752090994058710841673160253731520L
aS'1f8b4cda-0912-11e4-8fee-ccd29b2fe4f6'
p863
aI00
aI00
aNaa(lp864
L5752090994058710841673160253731520L
aL5752090994058710841673160273731520L
aS'1f8b55a4-0912-11e4-8fee-ccd29b2fe4f6'
p865
aI00
aI00
aNaa(lp866
L5752090994058710841673160273731520L
aL5752090994058710841673160293731520L
aS'1f8b5e28-0912-11e4-8fee-ccd29b2fe4f6'
p867
aI00
aI00
aNaa(lp868
L5752090994058710841673160293731520L
aL5752090994058710841673160313731520L
aS'1f8b66ac-0912-11e4-8fee-ccd29b2fe4f6'
p869
aI00
aI00
aNaa(lp870
L5752090994058710841673160313731520L
aL5752090994058710841673160333731520L
aS'1f8b6f8a-0912-11e4-8fee-ccd29b2fe4f6'
p871
aI00
aI00
aNaa(lp872
L5752090994058710841673160333731520L
aL5752090994058710841673160353731520L
aS'1f8b7836-0912-11e4-8fee-ccd29b2fe4f6'
p873
aI00
aI00
aNaa(lp874
L5752090994058710841673160353731520L
aL5752090994058710841673160373731520L
aS'1f8b80e2-0912-11e4-8fee-ccd29b2fe4f6'
p875
aI00
aI00
aNaa(lp876
L5752090994058710841673160373731520L
aL5752090994058710841673160393731520L
aS'1f8b897a-0912-11e4-8fee-ccd29b2fe4f6'
p877
aI00
aI00
aNaa(lp878
L5752090994058710841673160393731520L
aL5752090994058710841673160413731520L
aS'1f8b9208-0912-11e4-8fee-ccd29b2fe4f6'
p879
aI00
aI00
aNaa(lp880
L5752090994058710841673160413731520L
aL5752090994058710841673160433731520L
aS'1f8b9abe-0912-11e4-8fee-ccd29b2fe4f6'
p881
aI00
aI00
aNaa(lp882
L5752090994058710841673160433731520L
aL5752090994058710841673160453731520L
aS'1f8ba360-0912-11e4-8fee-ccd29b2fe4f6'
p883
aI00
aI00
aNaa(lp884
L5752090994058710841673160453731520L
aL5752090994058710841673160473731520L
aS'1f8bac02-0912-11e4-8fee-ccd29b2fe4f6'
p885
aI00
aI00
aNaa(lp886
L5752090994058710841673160473731520L
aL5752090994058710841673160493731520L
aS'1f8bb490-0912-11e4-8fee-ccd29b2fe4f6'
p887
aI00
aI00
aNaa(lp888
L5752090994058710841673160493731520L
aL5752090994058710841673160513731520L
aS'1f8bbd00-0912-11e4-8fee-ccd29b2fe4f6'
p889
aI00
aI00
aNaa(lp890
L5752090994058710841673160513731520L
aL5752090994058710841673160533731520L
aS'1f8bc584-0912-11e4-8fee-ccd29b2fe4f6'
p891
aI00
aI00
aNaa(lp892
L5752090994058710841673160533731520L
aL5752090994058710841673160553731520L
aS'1f8bce08-0912-11e4-8fee-ccd29b2fe4f6'
p893
aI00
aI00
aNaa(lp894
L5752090994058710841673160553731520L
aL5752090994058710841673160573731520L
aS'1f8bd6e6-0912-11e4-8fee-ccd29b2fe4f6'
p895
aI00
aI00
aNaa(lp896
L5752090994058710841673160573731520L
aL5752090994058710841673160593731520L
aS'1f8bdf7e-0912-11e4-8fee-ccd29b2fe4f6'
p897
aI00
aI00
aNaa(lp898
L5752090994058710841673160593731520L
aL5752090994058710841673160613731520L
aS'1f8be910-0912-11e4-8fee-ccd29b2fe4f6'
p899
aI00
aI00
aNaa(lp900
L5752090994058710841673160613731520L
aL5752090994058710841673160633731520L
aS'1f8bf1ee-0912-11e4-8fee-ccd29b2fe4f6'
p901
aI00
aI00
aNaa(lp902
L5752090994058710841673160633731520L
aL5752090994058710841673160653731520L
aS'1f8bfb26-0912-11e4-8fee-ccd29b2fe4f6'
p903
aI00
aI00
aNaa(lp904
L5752090994058710841673160653731520L
aL5752090994058710841673160673731520L
aS'1f8c074c-0912-11e4-8fee-ccd29b2fe4f6'
p905
aI00
aI00
aNaa(lp906
L5752090994058710841673160673731520L
aL5752090994058710841673160693731520L
aS'1f8c1214-0912-11e4-8fee-ccd29b2fe4f6'
p907
aI00
aI00
aNaa(lp908
L5752090994058710841673160693731520L
aL5752090994058710841673160713731520L
aS'1f8c1b9c-0912-11e4-8fee-ccd29b2fe4f6'
p909
aI00
aI00
aNaa(lp910
L5752090994058710841673160713731520L
aL5752090994058710841673160733731520L
aS'1f8c24ca-0912-11e4-8fee-ccd29b2fe4f6'
p911
aI00
aI00
aNaa(lp912
L5752090994058710841673160733731520L
aL5752090994058710841673160753731520L
aS'1f8c2db2-0912-11e4-8fee-ccd29b2fe4f6'
p913
aI00
aI00
aNaa(lp914
L5752090994058710841673160753731520L
aL5752090994058710841673160773731520L
aS'1f8c3690-0912-11e4-8fee-ccd29b2fe4f6'
p915
aI00
aI00
aNaa(lp916
L5752090994058710841673160773731520L
aL5752090994058710841673160793731520L
aS'1f8c3f96-0912-11e4-8fee-ccd29b2fe4f6'
p917
aI00
aI00
aNaa(lp918
L5752090994058710841673160793731520L
aL5752090994058710841673160813731520L
aS'1f8c4856-0912-11e4-8fee-ccd29b2fe4f6'
p919
aI00
aI00
aNaa(lp920
L5752090994058710841673160813731520L
aL5752090994058710841673160833731520L
aS'1f8c5148-0912-11e4-8fee-ccd29b2fe4f6'
p921
aI00
aI00
aNaa(lp922
L5752090994058710841673160833731520L
aL5752090994058710841673160853731520L
aS'1f8c59ea-0912-11e4-8fee-ccd29b2fe4f6'
p923
aI00
aI00
aNaa(lp924
L5752090994058710841673160853731520L
aL5752090994058710841673160873731520L
aS'1f8c62a0-0912-11e4-8fee-ccd29b2fe4f6'
p925
aI00
aI00
aNaa(lp926
L5752090994058710841673160873731520L
aL5752090994058710841673160893731520L
aS'1f8c6b42-0912-11e4-8fee-ccd29b2fe4f6'
p927
aI00
aI00
aNaa(lp928
L5752090994058710841673160893731520L
aL5752090994058710841673160913731520L
aS'1f8c73f8-0912-11e4-8fee-ccd29b2fe4f6'
p929
aI00
aI00
aNaa(lp930
L5752090994058710841673160913731520L
aL5752090994058710841673160933731520L
aS'1f8c7cae-0912-11e4-8fee-ccd29b2fe4f6'
p931
aI00
aI00
aNaa(lp932
L5752090994058710841673160933731520L
aL5752090994058710841673160953731520L
aS'1f8c8564-0912-11e4-8fee-ccd29b2fe4f6'
p933
aI00
aI00
aNaa(lp934
L5752090994058710841673160953731520L
aL5752090994058710841673160973731520L
aS'1f8c8df2-0912-11e4-8fee-ccd29b2fe4f6'
p935
aI00
aI00
aNaa(lp936
L5752090994058710841673160973731520L
aL5752090994058710841673160993731520L
aS'1f8c96c6-0912-11e4-8fee-ccd29b2fe4f6'
p937
aI00
aI00
aNaa(lp938
L5752090994058710841673160993731520L
aL5752090994058710841673161013731520L
aS'1f8c9f72-0912-11e4-8fee-ccd29b2fe4f6'
p939
aI00
aI00
aNaa(lp940
L5752090994058710841673161013731520L
aL5752090994058710841673161033731520L
aS'1f8ca85a-0912-11e4-8fee-ccd29b2fe4f6'
p941
aI00
aI00
aNaa(lp942
L5752090994058710841673161033731520L
aL5752090994058710841673161053731520L
aS'1f8cb0e8-0912-11e4-8fee-ccd29b2fe4f6'
p943
aI00
aI00
aNaa(lp944
L5752090994058710841673161053731520L
aL5752090994058710841673161073731520L
aS'1f8cb9a8-0912-11e4-8fee-ccd29b2fe4f6'
p945
aI00
aI00
aNaa(lp946
L5752090994058710841673161073731520L
aL5752090994058710841673161093731520L
aS'1f8cc222-0912-11e4-8fee-ccd29b2fe4f6'
p947
aI00
aI00
aNaa(lp948
L5752090994058710841673161093731520L
aL5752090994058710841673161113731520L
aS'1f8ccac4-0912-11e4-8fee-ccd29b2fe4f6'
p949
aI00
aI00
aNaa(lp950
L5752090994058710841673161113731520L
aL5752090994058710841673161133731520L
aS'1f8cd366-0912-11e4-8fee-ccd29b2fe4f6'
p951
aI00
aI00
aNaa(lp952
L5752090994058710841673161133731520L
aL5752090994058710841673161153731520L
aS'1f8cdbf4-0912-11e4-8fee-ccd29b2fe4f6'
p953
aI00
aI00
aNaa(lp954
L5752090994058710841673161153731520L
aL5752090994058710841673161173731520L
aS'1f8ce48c-0912-11e4-8fee-ccd29b2fe4f6'
p955
aI00
aI00
aNaa(lp956
L5752090994058710841673161173731520L
aL5752090994058710841673161193731520L
aS'1f8ced10-0912-11e4-8fee-ccd29b2fe4f6'
p957
aI00
aI00
aNaa(lp958
L5752090994058710841673161193731520L
aL5752090994058710841673161213731520L
aS'1f8cf5bc-0912-11e4-8fee-ccd29b2fe4f6'
p959
aI00
aI00
aNaa(lp960
L5752090994058710841673161213731520L
aL5752090994058710841673161233731520L
aS'1f8cfe54-0912-11e4-8fee-ccd29b2fe4f6'
p961
aI00
aI00
aNaa(lp962
L5752090994058710841673161233731520L
aL5752090994058710841673161253731520L
aS'1f8d06c4-0912-11e4-8fee-ccd29b2fe4f6'
p963
aI00
aI00
aNaa(lp964
L5752090994058710841673161253731520L
aL5752090994058710841673161273731520L
aS'1f8d0f52-0912-11e4-8fee-ccd29b2fe4f6'
p965
aI00
aI00
aNaa(lp966
L5752090994058710841673161273731520L
aL5752090994058710841673161293731520L
aS'1f8d17f4-0912-11e4-8fee-ccd29b2fe4f6'
p967
aI00
aI00
aNaa(lp968
L5752090994058710841673161293731520L
aL5752090994058710841673161313731520L
aS'1f8d206e-0912-11e4-8fee-ccd29b2fe4f6'
p969
aI00
aI00
aNaa(lp970
L5752090994058710841673161313731520L
aL5752090994058710841673161333731520L
aS'1f8d28d4-0912-11e4-8fee-ccd29b2fe4f6'
p971
aI00
aI00
aNaa(lp972
L5752090994058710841673161333731520L
aL5752090994058710841673161353731520L
aS'1f8d316c-0912-11e4-8fee-ccd29b2fe4f6'
p973
aI00
aI00
aNaa(lp974
L5752090994058710841673161353731520L
aL5752090994058710841673161373731520L
aS'1f8d39e6-0912-11e4-8fee-ccd29b2fe4f6'
p975
aI00
aI00
aNaa(lp976
L5752090994058710841673161373731520L
aL5752090994058710841673161393731520L
aS'1f8d4288-0912-11e4-8fee-ccd29b2fe4f6'
p977
aI00
aI00
aNaa(lp978
L5752090994058710841673161393731520L
aL5752090994058710841673161413731520L
aS'1f8d4b20-0912-11e4-8fee-ccd29b2fe4f6'
p979
aI00
aI00
aNaa(lp980
L5752090994058710841673161413731520L
aL5752090994058710841673161433731520L
aS'1f8d53a4-0912-11e4-8fee-ccd29b2fe4f6'
p981
aI00
aI00
aNaa(lp982
L5752090994058710841673161433731520L
aL5752090994058710841673161453731520L
aS'1f8d5c6e-0912-11e4-8fee-ccd29b2fe4f6'
p983
aI00
aI00
aNaa(lp984
L5752090994058710841673161453731520L
aL5752090994058710841673161473731520L
aS'1f8d6524-0912-11e4-8fee-ccd29b2fe4f6'
p985
aI00
aI00
aNaa(lp986
L5752090994058710841673161473731520L
aL5752090994058710841673161493731520L
aS'1f8d6d8a-0912-11e4-8fee-ccd29b2fe4f6'
p987
aI00
aI00
aNaa(lp988
L5752090994058710841673161493731520L
aL5752090994058710841673161513731520L
aS'1f8d7604-0912-11e4-8fee-ccd29b2fe4f6'
p989
aI00
aI00
aNaa(lp990
L5752090994058710841673161513731520L
aL5752090994058710841673161533731520L
aS'1f8d7eba-0912-11e4-8fee-ccd29b2fe4f6'
p991
aI00
aI00
aNaa(lp992
L5752090994058710841673161533731520L
aL5752090994058710841673161553731520L
aS'1f8d898c-0912-11e4-8fee-ccd29b2fe4f6'
p993
aI00
aI00
aNaa(lp994
L5752090994058710841673161553731520L
aL5752090994058710841673161573731520L
aS'1f8d9382-0912-11e4-8fee-ccd29b2fe4f6'
p995
aI00
aI00
aNaa(lp996
L5752090994058710841673161573731520L
aL5752090994058710841673161593731520L
aS'1f8d9cd8-0912-11e4-8fee-ccd29b2fe4f6'
p997
aI00
aI00
aNaa(lp998
L5752090994058710841673161593731520L
aL5752090994058710841673161613731520L
aS'1f8da5de-0912-11e4-8fee-ccd29b2fe4f6'
p999
aI00
aI00
aNaa(lp1000
L5752090994058710841673161613731520L
aL5752090994058710841673161633731520L
aS'1f8daeee-0912-11e4-8fee-ccd29b2fe4f6'
p1001
aI00
aI00
aNaa(lp1002
L5752090994058710841673161633731520L
aL5752090994058710841673161653731520L
aS'1f8db7e0-0912-11e4-8fee-ccd29b2fe4f6'
p1003
aI00
aI01
aS'5837a4ce-08fa-11e4-862c-4061868d0fb7'
p1004
aa.