(lp1
(lp2
L700000000000000000000000054000000L
aL700000000000000000000000054010000L
aS'cbc86e9c-835d-11e2-95f9-000c29b76fa4'
p3
aI01
aI01
aa(lp4
L700000000000000000000000054010000L
aL700000000000000000000000054020000L
aS'cbc98da4-835d-11e2-95f9-000c29b76fa4'
p5
aI01
aI01
aa(lp6
L700000000000000000000000054020000L
aL700000000000000000000000054030000L
aS'cbcaf856-835d-11e2-95f9-000c29b76fa4'
p7
aI01
aI01
aa(lp8
L700000000000000000000000054030000L
aL700000000000000000000000054040000L
aS'cbcbf53a-835d-11e2-95f9-000c29b76fa4'
p9
aI01
aI01
aa(lp10
L700000000000000000000000054040000L
aL700000000000000000000000054050000L
aS'cbcd240a-835d-11e2-95f9-000c29b76fa4'
p11
aI01
aI01
aa(lp12
L700000000000000000000000054050000L
aL700000000000000000000000054060000L
aS'cbcd5308-835d-11e2-95f9-000c29b76fa4'
p13
aI01
aI01
aa(lp14
L700000000000000000000000054060000L
aL700000000000000000000000054070000L
aS'cbcd624e-835d-11e2-95f9-000c29b76fa4'
p15
aI01
aI01
aa(lp16
L700000000000000000000000054070000L
aL700000000000000000000000054080000L
aS'cbcd7644-835d-11e2-95f9-000c29b76fa4'
p17
aI01
aI01
aa(lp18
L700000000000000000000000054080000L
aL700000000000000000000000054090000L
aS'cbcd84cc-835d-11e2-95f9-000c29b76fa4'
p19
aI01
aI01
aa(lp20
L700000000000000000000000054090000L
aL700000000000000000000000054100000L
aS'cbcd99e4-835d-11e2-95f9-000c29b76fa4'
p21
aI01
aI01
aa(lp22
L700000000000000000000000054100000L
aL700000000000000000000000054110000L
aS'cbcde110-835d-11e2-95f9-000c29b76fa4'
p23
aI01
aI01
aa(lp24
L700000000000000000000000054110000L
aL700000000000000000000000054120000L
aS'cbce0f32-835d-11e2-95f9-000c29b76fa4'
p25
aI01
aI01
aa(lp26
L700000000000000000000000054120000L
aL700000000000000000000000054130000L
aS'cbce2224-835d-11e2-95f9-000c29b76fa4'
p27
aI01
aI01
aa(lp28
L700000000000000000000000054130000L
aL700000000000000000000000054140000L
aS'cbce3c46-835d-11e2-95f9-000c29b76fa4'
p29
aI01
aI00
aa(lp30
L700000000000000000000000054140000L
aL700000000000000000000000054150000L
aS'cbce55c8-835d-11e2-95f9-000c29b76fa4'
p31
aI01
aI00
aa(lp32
L700000000000000000000000054150000L
aL700000000000000000000000054160000L
aS'cbce74c2-835d-11e2-95f9-000c29b76fa4'
p33
aI01
aI00
aa(lp34
L700000000000000000000000054160000L
aL700000000000000000000000054170000L
aS'cbce87c8-835d-11e2-95f9-000c29b76fa4'
p35
aI01
aI00
aa(lp36
L700000000000000000000000054170000L
aL700000000000000000000000054180000L
aS'cbce9e52-835d-11e2-95f9-000c29b76fa4'
p37
aI01
aI00
aa(lp38
L700000000000000000000000054180000L
aL700000000000000000000000054190000L
aS'cbceb1e4-835d-11e2-95f9-000c29b76fa4'
p39
aI01
aI00
aa(lp40
L700000000000000000000000054190000L
aL700000000000000000000000054200000L
aS'cbcec42c-835d-11e2-95f9-000c29b76fa4'
p41
aI01
aI00
aa(lp42
L700000000000000000000000054200000L
aL700000000000000000000000054210000L
aS'cbcecee0-835d-11e2-95f9-000c29b76fa4'
p43
aI01
aI00
aa(lp44
L700000000000000000000000054210000L
aL700000000000000000000000054220000L
aS'cbced84a-835d-11e2-95f9-000c29b76fa4'
p45
aI01
aI00
aa(lp46
L700000000000000000000000054220000L
aL700000000000000000000000054230000L
aS'cbcee0c4-835d-11e2-95f9-000c29b76fa4'
p47
aI01
aI00
aa(lp48
L700000000000000000000000054230000L
aL700000000000000000000000054240000L
aS'cbceeaba-835d-11e2-95f9-000c29b76fa4'
p49
aI01
aI00
aa(lp50
L700000000000000000000000054240000L
aL700000000000000000000000054250000L
aS'cbcef41a-835d-11e2-95f9-000c29b76fa4'
p51
aI01
aI00
aa(lp52
L700000000000000000000000054250000L
aL700000000000000000000000054260000L
aS'cbcefd34-835d-11e2-95f9-000c29b76fa4'
p53
aI01
aI00
aa(lp54
L700000000000000000000000054260000L
aL700000000000000000000000054270000L
aS'cbcf0626-835d-11e2-95f9-000c29b76fa4'
p55
aI01
aI00
aa(lp56
L700000000000000000000000054270000L
aL700000000000000000000000054280000L
aS'cbcf12ec-835d-11e2-95f9-000c29b76fa4'
p57
aI01
aI00
aa(lp58
L700000000000000000000000054280000L
aL700000000000000000000000054290000L
aS'cbcf1c88-835d-11e2-95f9-000c29b76fa4'
p59
aI01
aI00
aa(lp60
L700000000000000000000000054290000L
aL700000000000000000000000054300000L
aS'cbcf249e-835d-11e2-95f9-000c29b76fa4'
p61
aI01
aI00
aa(lp62
L700000000000000000000000054300000L
aL700000000000000000000000054310000L
aS'cbcf2c96-835d-11e2-95f9-000c29b76fa4'
p63
aI01
aI00
aa(lp64
L700000000000000000000000054310000L
aL700000000000000000000000054320000L
aS'cbcf3678-835d-11e2-95f9-000c29b76fa4'
p65
aI01
aI00
aa(lp66
L700000000000000000000000054320000L
aL700000000000000000000000054330000L
aS'cbcf3f92-835d-11e2-95f9-000c29b76fa4'
p67
aI01
aI00
aa(lp68
L700000000000000000000000054330000L
aL700000000000000000000000054340000L
aS'cbcf479e-835d-11e2-95f9-000c29b76fa4'
p69
aI01
aI00
aa(lp70
L700000000000000000000000054340000L
aL700000000000000000000000054350000L
aS'cbcf4f96-835d-11e2-95f9-000c29b76fa4'
p71
aI01
aI00
aa(lp72
L700000000000000000000000054350000L
aL700000000000000000000000054360000L
aS'cbcf5806-835d-11e2-95f9-000c29b76fa4'
p73
aI01
aI00
aa(lp74
L700000000000000000000000054360000L
aL700000000000000000000000054370000L
aS'cbcf683c-835d-11e2-95f9-000c29b76fa4'
p75
aI01
aI00
aa(lp76
L700000000000000000000000054370000L
aL700000000000000000000000054380000L
aS'cbcf72be-835d-11e2-95f9-000c29b76fa4'
p77
aI01
aI00
aa(lp78
L700000000000000000000000054380000L
aL700000000000000000000000054390000L
aS'cbcf7b56-835d-11e2-95f9-000c29b76fa4'
p79
aI01
aI00
aa(lp80
L700000000000000000000000054390000L
aL700000000000000000000000054400000L
aS'cbcf8556-835d-11e2-95f9-000c29b76fa4'
p81
aI01
aI00
aa(lp82
L700000000000000000000000054400000L
aL700000000000000000000000054410000L
aS'cbcf8e52-835d-11e2-95f9-000c29b76fa4'
p83
aI01
aI00
aa(lp84
L700000000000000000000000054410000L
aL700000000000000000000000054420000L
aS'cbcf9960-835d-11e2-95f9-000c29b76fa4'
p85
aI01
aI00
aa(lp86
L700000000000000000000000054420000L
aL700000000000000000000000054430000L
aS'cbcfa752-835d-11e2-95f9-000c29b76fa4'
p87
aI01
aI00
aa(lp88
L700000000000000000000000054430000L
aL700000000000000000000000054440000L
aS'cbcfba44-835d-11e2-95f9-000c29b76fa4'
p89
aI01
aI00
aa(lp90
L700000000000000000000000054440000L
aL700000000000000000000000054450000L
aS'cbcfc6f6-835d-11e2-95f9-000c29b76fa4'
p91
aI01
aI00
aa(lp92
L700000000000000000000000054450000L
aL700000000000000000000000054460000L
aS'cbcfd42a-835d-11e2-95f9-000c29b76fa4'
p93
aI01
aI01
aa(lp94
L700000000000000000000000054460000L
aL700000000000000000000000054470000L
aS'cbcfdfba-835d-11e2-95f9-000c29b76fa4'
p95
aI01
aI01
aa(lp96
L700000000000000000000000054470000L
aL700000000000000000000000054480000L
aS'cbcfec08-835d-11e2-95f9-000c29b76fa4'
p97
aI01
aI00
aa(lp98
L700000000000000000000000054480000L
aL700000000000000000000000054490000L
aS'cbcff48c-835d-11e2-95f9-000c29b76fa4'
p99
aI01
aI01
aa(lp100
L700000000000000000000000054490000L
aL700000000000000000000000054500000L
aS'cbcffed2-835d-11e2-95f9-000c29b76fa4'
p101
aI01
aI01
aa(lp102
L700000000000000000000000054500000L
aL700000000000000000000000054510000L
aS'cbd00738-835d-11e2-95f9-000c29b76fa4'
p103
aI01
aI01
aa(lp104
L700000000000000000000000054510000L
aL700000000000000000000000054520000L
aS'cbd00f4e-835d-11e2-95f9-000c29b76fa4'
p105
aI01
aI01
aa(lp106
L700000000000000000000000054520000L
aL700000000000000000000000054530000L
aS'cbd01750-835d-11e2-95f9-000c29b76fa4'
p107
aI01
aI01
aa(lp108
L700000000000000000000000054530000L
aL700000000000000000000000054540000L
aS'cbd01f48-835d-11e2-95f9-000c29b76fa4'
p109
aI01
aI01
aa(lp110
L700000000000000000000000054540000L
aL700000000000000000000000054550000L
aS'cbd0308c-835d-11e2-95f9-000c29b76fa4'
p111
aI01
aI01
aa(lp112
L700000000000000000000000054550000L
aL700000000000000000000000054560000L
aS'cbd03a32-835d-11e2-95f9-000c29b76fa4'
p113
aI01
aI01
aa(lp114
L700000000000000000000000054560000L
aL700000000000000000000000054570000L
aS'cbd042f2-835d-11e2-95f9-000c29b76fa4'
p115
aI01
aI01
aa(lp116
L700000000000000000000000054570000L
aL700000000000000000000000054580000L
aS'cbd05486-835d-11e2-95f9-000c29b76fa4'
p117
aI01
aI01
aa(lp118
L700000000000000000000000054580000L
aL700000000000000000000000054590000L
aS'cbd05da0-835d-11e2-95f9-000c29b76fa4'
p119
aI01
aI01
aa(lp120
L700000000000000000000000054590000L
aL700000000000000000000000054600000L
aS'cbd066f6-835d-11e2-95f9-000c29b76fa4'
p121
aI01
aI01
aa(lp122
L700000000000000000000000054600000L
aL700000000000000000000000054610000L
aS'cbd073bc-835d-11e2-95f9-000c29b76fa4'
p123
aI01
aI01
aa(lp124
L700000000000000000000000054610000L
aL700000000000000000000000054620000L
aS'cbd082c6-835d-11e2-95f9-000c29b76fa4'
p125
aI01
aI01
aa(lp126
L700000000000000000000000054620000L
aL700000000000000000000000054630000L
aS'cbd08cda-835d-11e2-95f9-000c29b76fa4'
p127
aI01
aI01
aa(lp128
L700000000000000000000000054630000L
aL700000000000000000000000054640000L
aS'cbd099be-835d-11e2-95f9-000c29b76fa4'
p129
aI01
aI01
aa(lp130
L700000000000000000000000054640000L
aL700000000000000000000000054650000L
aS'cbd0a2b0-835d-11e2-95f9-000c29b76fa4'
p131
aI01
aI01
aa(lp132
L700000000000000000000000054650000L
aL700000000000000000000000054660000L
aS'cbd0afb2-835d-11e2-95f9-000c29b76fa4'
p133
aI01
aI01
aa(lp134
L700000000000000000000000054660000L
aL700000000000000000000000054670000L
aS'cbd0b854-835d-11e2-95f9-000c29b76fa4'
p135
aI01
aI01
aa(lp136
L700000000000000000000000054670000L
aL700000000000000000000000054680000L
aS'cbd0c47a-835d-11e2-95f9-000c29b76fa4'
p137
aI01
aI01
aa(lp138
L700000000000000000000000054680000L
aL700000000000000000000000054690000L
aS'cbd0cccc-835d-11e2-95f9-000c29b76fa4'
p139
aI01
aI01
aa(lp140
L700000000000000000000000054690000L
aL700000000000000000000000054700000L
aS'cbd0d4e2-835d-11e2-95f9-000c29b76fa4'
p141
aI01
aI01
aa(lp142
L700000000000000000000000054700000L
aL700000000000000000000000054710000L
aS'cbd0dd02-835d-11e2-95f9-000c29b76fa4'
p143
aI01
aI01
aa(lp144
L700000000000000000000000054710000L
aL700000000000000000000000054720000L
aS'cbd0ec52-835d-11e2-95f9-000c29b76fa4'
p145
aI01
aI01
aa(lp146
L700000000000000000000000054720000L
aL700000000000000000000000054730000L
aS'cbd0f4ea-835d-11e2-95f9-000c29b76fa4'
p147
aI01
aI01
aa(lp148
L700000000000000000000000054730000L
aL700000000000000000000000054740000L
aS'cbd0fe72-835d-11e2-95f9-000c29b76fa4'
p149
aI01
aI01
aa(lp150
L700000000000000000000000054740000L
aL700000000000000000000000054750000L
aS'cbd106f6-835d-11e2-95f9-000c29b76fa4'
p151
aI01
aI01
aa(lp152
L700000000000000000000000054750000L
aL700000000000000000000000054760000L
aS'cbd112cc-835d-11e2-95f9-000c29b76fa4'
p153
aI01
aI01
aa(lp154
L700000000000000000000000054760000L
aL700000000000000000000000054770000L
aS'cbd11b82-835d-11e2-95f9-000c29b76fa4'
p155
aI01
aI01
aa(lp156
L700000000000000000000000054770000L
aL700000000000000000000000054780000L
aS'cbd1241a-835d-11e2-95f9-000c29b76fa4'
p157
aI01
aI01
aa(lp158
L700000000000000000000000054780000L
aL700000000000000000000000054790000L
aS'cbd12cee-835d-11e2-95f9-000c29b76fa4'
p159
aI01
aI01
aa(lp160
L700000000000000000000000054790000L
aL700000000000000000000000054800000L
aS'cbd1404e-835d-11e2-95f9-000c29b76fa4'
p161
aI01
aI01
aa(lp162
L700000000000000000000000054800000L
aL700000000000000000000000054810000L
aS'cbd14b0c-835d-11e2-95f9-000c29b76fa4'
p163
aI01
aI01
aa(lp164
L700000000000000000000000054810000L
aL700000000000000000000000054820000L
aS'cbd15462-835d-11e2-95f9-000c29b76fa4'
p165
aI01
aI01
aa(lp166
L700000000000000000000000054820000L
aL700000000000000000000000054830000L
aS'cbd1601a-835d-11e2-95f9-000c29b76fa4'
p167
aI01
aI01
aa(lp168
L700000000000000000000000054830000L
aL700000000000000000000000054840000L
aS'cbd168a8-835d-11e2-95f9-000c29b76fa4'
p169
aI01
aI01
aa(lp170
L700000000000000000000000054840000L
aL700000000000000000000000054850000L
aS'cbd171f4-835d-11e2-95f9-000c29b76fa4'
p171
aI01
aI01
aa(lp172
L700000000000000000000000054850000L
aL700000000000000000000000054860000L
aS'cbd17adc-835d-11e2-95f9-000c29b76fa4'
p173
aI01
aI01
aa(lp174
L700000000000000000000000054860000L
aL700000000000000000000000054870000L
aS'cbd18d88-835d-11e2-95f9-000c29b76fa4'
p175
aI01
aI01
aa(lp176
L700000000000000000000000054870000L
aL700000000000000000000000054880000L
aS'cbd19698-835d-11e2-95f9-000c29b76fa4'
p177
aI01
aI01
aa(lp178
L700000000000000000000000054880000L
aL700000000000000000000000054890000L
aS'cbd19f9e-835d-11e2-95f9-000c29b76fa4'
p179
aI01
aI01
aa(lp180
L700000000000000000000000054890000L
aL700000000000000000000000054900000L
aS'cbd1aa98-835d-11e2-95f9-000c29b76fa4'
p181
aI01
aI01
aa(lp182
L700000000000000000000000054900000L
aL700000000000000000000000054910000L
aS'cbd1b358-835d-11e2-95f9-000c29b76fa4'
p183
aI01
aI01
aa(lp184
L700000000000000000000000054910000L
aL700000000000000000000000054920000L
aS'cbd1bb82-835d-11e2-95f9-000c29b76fa4'
p185
aI01
aI01
aa(lp186
L700000000000000000000000054920000L
aL700000000000000000000000054930000L
aS'cbd1c3b6-835d-11e2-95f9-000c29b76fa4'
p187
aI01
aI01
aa(lp188
L700000000000000000000000054930000L
aL700000000000000000000000054940000L
aS'cbd1cf0a-835d-11e2-95f9-000c29b76fa4'
p189
aI01
aI01
aa(lp190
L700000000000000000000000054940000L
aL700000000000000000000000054950000L
aS'cbd1d89c-835d-11e2-95f9-000c29b76fa4'
p191
aI01
aI01
aa(lp192
L700000000000000000000000054950000L
aL700000000000000000000000054960000L
aS'cbd1e0d0-835d-11e2-95f9-000c29b76fa4'
p193
aI01
aI01
aa(lp194
L700000000000000000000000054960000L
aL700000000000000000000000054970000L
aS'cbd1e8dc-835d-11e2-95f9-000c29b76fa4'
p195
aI01
aI01
aa(lp196
L700000000000000000000000054970000L
aL700000000000000000000000054980000L
aS'cbd1f0fc-835d-11e2-95f9-000c29b76fa4'
p197
aI01
aI01
aa(lp198
L700000000000000000000000054980000L
aL700000000000000000000000054990000L
aS'cbd1fbd8-835d-11e2-95f9-000c29b76fa4'
p199
aI01
aI01
aa(lp200
L700000000000000000000000054990000L
aL700000000000000000000000055000000L
aS'cbd2042a-835d-11e2-95f9-000c29b76fa4'
p201
aI01
aI01
aa.