(lp1
(lp2
I10000000000
aI10010000000
aS'f0af62c0-07ae-11e4-bbbe-bcaec562e169'
p3
aI01
aI01
aS'f812e91a-07ae-11e4-b51a-bcaec562e169'
p4
aa(lp5
I10010000000
aI10020000000
aS'f0af8b6a-07ae-11e4-bbbe-bcaec562e169'
p6
aI01
aI01
aS'f812e91a-07ae-11e4-b51a-bcaec562e169'
p7
aa(lp8
I10020000000
aI10030000000
aS'f0afb108-07ae-11e4-bbbe-bcaec562e169'
p9
aI01
aI01
aS'f812e91a-07ae-11e4-b51a-bcaec562e169'
p10
aa(lp11
I10030000000
aI10040000000
aS'f0afdbce-07ae-11e4-bbbe-bcaec562e169'
p12
aI01
aI01
aS'f812e91a-07ae-11e4-b51a-bcaec562e169'
p13
aa(lp14
I10040000000
aI10050000000
aS'f0b0906e-07ae-11e4-bbbe-bcaec562e169'
p15
aI01
aI01
aS'f812e91a-07ae-11e4-b51a-bcaec562e169'
p16
aa(lp17
I10050000000
aI10060000000
aS'f0b0967c-07ae-11e4-bbbe-bcaec562e169'
p18
aI01
aI01
aS'f812e91a-07ae-11e4-b51a-bcaec562e169'
p19
aa(lp20
I10060000000
aI10070000000
aS'f0b0980c-07ae-11e4-bbbe-bcaec562e169'
p21
aI01
aI01
aS'f812e91a-07ae-11e4-b51a-bcaec562e169'
p22
aa(lp23
I10070000000
aI10080000000
aS'f0b09960-07ae-11e4-bbbe-bcaec562e169'
p24
aI01
aI01
aS'f812e91a-07ae-11e4-b51a-bcaec562e169'
p25
aa(lp26
I10080000000
aI10090000000
aS'f0b09a96-07ae-11e4-bbbe-bcaec562e169'
p27
aI01
aI00
aNaa(lp28
I10090000000
aI10100000000
aS'f0b09bcc-07ae-11e4-bbbe-bcaec562e169'
p29
aI00
aI00
aNaa.