(lp1
(lp2
L7000000000000000000000011484750000L
aL7000000000000000000000011484770000L
aS'e622d030-8b59-11e2-9849-fa163e3a40ba'
p3
aI01
aI01
aS'd9427d8a-8b30-11e2-9a2e-0030679f1d6a'
p4
aa(lp5
L7000000000000000000000011484770000L
aL7000000000000000000000011484790000L
aS'e622d7f6-8b59-11e2-9849-fa163e3a40ba'
p6
aI01
aI01
aS'bbc01e02-8b30-11e2-b608-0030679f1d6a'
p7
aa(lp8
L7000000000000000000000011484790000L
aL7000000000000000000000011484810000L
aS'e622dca6-8b59-11e2-9849-fa163e3a40ba'
p9
aI01
aI01
aS'a55ddd48-8b30-11e2-9f29-0030679f1d6a'
p10
aa(lp11
L7000000000000000000000011484810000L
aL7000000000000000000000011484830000L
aS'e622e0d4-8b59-11e2-9849-fa163e3a40ba'
p12
aI01
aI01
aS'b0f9f28a-8b31-11e2-9ae9-000c29e250a1'
p13
aa(lp14
L7000000000000000000000011484830000L
aL7000000000000000000000011484850000L
aS'e622e53e-8b59-11e2-9849-fa163e3a40ba'
p15
aI01
aI01
aS'd9172400-8b30-11e2-a63d-0030679f1d6a'
p16
aa(lp17
L7000000000000000000000011484850000L
aL7000000000000000000000011484870000L
aS'e622e962-8b59-11e2-9849-fa163e3a40ba'
p18
aI01
aI01
aS'd9427d8a-8b30-11e2-9a2e-0030679f1d6a'
p19
aa(lp20
L7000000000000000000000011484870000L
aL7000000000000000000000011484890000L
aS'e622ed72-8b59-11e2-9849-fa163e3a40ba'
p21
aI01
aI01
aS'e4d67fbc-8b1b-11e2-af62-00e07dd5df94'
p22
aa(lp23
L7000000000000000000000011484890000L
aL7000000000000000000000011484910000L
aS'e622f1fa-8b59-11e2-9849-fa163e3a40ba'
p24
aI01
aI01
aS'b06533ca-8b31-11e2-8fd8-000c29e250a1'
p25
aa(lp26
L7000000000000000000000011484910000L
aL7000000000000000000000011484930000L
aS'e622f88a-8b59-11e2-9849-fa163e3a40ba'
p27
aI01
aI01
aS'e37449ec-8b1b-11e2-a8a3-00e07dd5df94'
p28
aa(lp29
L7000000000000000000000011484930000L
aL7000000000000000000000011484950000L
aS'e622fd62-8b59-11e2-9849-fa163e3a40ba'
p30
aI01
aI01
aS'bbc01e02-8b30-11e2-b608-0030679f1d6a'
p31
aa(lp32
L7000000000000000000000011484950000L
aL7000000000000000000000011484970000L
aS'e623017c-8b59-11e2-9849-fa163e3a40ba'
p33
aI01
aI01
aS'a55ddd48-8b30-11e2-9f29-0030679f1d6a'
p34
aa(lp35
L7000000000000000000000011484970000L
aL7000000000000000000000011484990000L
aS'e62305d2-8b59-11e2-9849-fa163e3a40ba'
p36
aI01
aI01
aS'af67ead0-8b31-11e2-aa1a-000c29e250a1'
p37
aa(lp38
L7000000000000000000000011484990000L
aL7000000000000000000000011485010000L
aS'e62309f6-8b59-11e2-9849-fa163e3a40ba'
p39
aI01
aI01
aS'e51c0dac-8b1b-11e2-8101-00e07dd5df94'
p40
aa(lp41
L7000000000000000000000011485010000L
aL7000000000000000000000011485030000L
aS'e6230e06-8b59-11e2-9849-fa163e3a40ba'
p42
aI01
aI01
aS'e5f3a1f4-8b1b-11e2-9ec6-00e07dd5df94'
p43
aa(lp44
L7000000000000000000000011485030000L
aL7000000000000000000000011485050000L
aS'e623123e-8b59-11e2-9849-fa163e3a40ba'
p45
aI01
aI01
aS'e4a8b3d4-8b1b-11e2-99e4-00e07dd5df94'
p46
aa(lp47
L7000000000000000000000011485050000L
aL7000000000000000000000011485070000L
aS'e6231658-8b59-11e2-9849-fa163e3a40ba'
p48
aI01
aI01
aS'd9172400-8b30-11e2-a63d-0030679f1d6a'
p49
aa(lp50
L7000000000000000000000011485070000L
aL7000000000000000000000011485090000L
aS'e62319fa-8b59-11e2-9849-fa163e3a40ba'
p51
aI01
aI01
aS'd9427d8a-8b30-11e2-9a2e-0030679f1d6a'
p52
aa(lp53
L7000000000000000000000011485090000L
aL7000000000000000000000011485110000L
aS'e6231e0a-8b59-11e2-9849-fa163e3a40ba'
p54
aI01
aI01
aS'bbc01e02-8b30-11e2-b608-0030679f1d6a'
p55
aa(lp56
L7000000000000000000000011485110000L
aL7000000000000000000000011485130000L
aS'e6232468-8b59-11e2-9849-fa163e3a40ba'
p57
aI01
aI01
aS'a55ddd48-8b30-11e2-9f29-0030679f1d6a'
p58
aa(lp59
L7000000000000000000000011485130000L
aL7000000000000000000000011485150000L
aS'e62328aa-8b59-11e2-9849-fa163e3a40ba'
p60
aI01
aI01
aS'b0f9f28a-8b31-11e2-9ae9-000c29e250a1'
p61
aa(lp62
L7000000000000000000000011485150000L
aL7000000000000000000000011485170000L
aS'e6232cc4-8b59-11e2-9849-fa163e3a40ba'
p63
aI01
aI01
aS'e4d67fbc-8b1b-11e2-af62-00e07dd5df94'
p64
aa(lp65
L7000000000000000000000011485170000L
aL7000000000000000000000011485190000L
aS'e6233070-8b59-11e2-9849-fa163e3a40ba'
p66
aI01
aI01
aS'b06533ca-8b31-11e2-8fd8-000c29e250a1'
p67
aa(lp68
L7000000000000000000000011485190000L
aL7000000000000000000000011485210000L
aS'e623349e-8b59-11e2-9849-fa163e3a40ba'
p69
aI01
aI01
aS'd9427d8a-8b30-11e2-9a2e-0030679f1d6a'
p70
aa(lp71
L7000000000000000000000011485210000L
aL7000000000000000000000011485230000L
aS'e62338ae-8b59-11e2-9849-fa163e3a40ba'
p72
aI01
aI01
aS'af67ead0-8b31-11e2-aa1a-000c29e250a1'
p73
aa(lp74
L7000000000000000000000011485230000L
aL7000000000000000000000011485250000L
aS'e6233cd2-8b59-11e2-9849-fa163e3a40ba'
p75
aI01
aI01
aS'd9172400-8b30-11e2-a63d-0030679f1d6a'
p76
aa(lp77
L7000000000000000000000011485250000L
aL7000000000000000000000011485270000L
aS'e62340e2-8b59-11e2-9849-fa163e3a40ba'
p78
aI01
aI01
aS'e37449ec-8b1b-11e2-a8a3-00e07dd5df94'
p79
aa(lp80
L7000000000000000000000011485270000L
aL7000000000000000000000011485290000L
aS'e6234506-8b59-11e2-9849-fa163e3a40ba'
p81
aI01
aI01
aS'bbc01e02-8b30-11e2-b608-0030679f1d6a'
p82
aa(lp83
L7000000000000000000000011485290000L
aL7000000000000000000000011485310000L
aS'e62348bc-8b59-11e2-9849-fa163e3a40ba'
p84
aI01
aI01
aS'a55ddd48-8b30-11e2-9f29-0030679f1d6a'
p85
aa(lp86
L7000000000000000000000011485310000L
aL7000000000000000000000011485330000L
aS'e6234ccc-8b59-11e2-9849-fa163e3a40ba'
p87
aI01
aI01
aS'e51c0dac-8b1b-11e2-8101-00e07dd5df94'
p88
aa(lp89
L7000000000000000000000011485330000L
aL7000000000000000000000011485350000L
aS'e62350dc-8b59-11e2-9849-fa163e3a40ba'
p90
aI01
aI01
aS'e5f3a1f4-8b1b-11e2-9ec6-00e07dd5df94'
p91
aa(lp92
L7000000000000000000000011485350000L
aL7000000000000000000000011485370000L
aS'e62354e2-8b59-11e2-9849-fa163e3a40ba'
p93
aI01
aI01
aS'e4a8b3d4-8b1b-11e2-99e4-00e07dd5df94'
p94
aa(lp95
L7000000000000000000000011485370000L
aL7000000000000000000000011485390000L
aS'e623588e-8b59-11e2-9849-fa163e3a40ba'
p96
aI01
aI01
aS'b0f9f28a-8b31-11e2-9ae9-000c29e250a1'
p97
aa(lp98
L7000000000000000000000011485390000L
aL7000000000000000000000011485410000L
aS'e6235c94-8b59-11e2-9849-fa163e3a40ba'
p99
aI01
aI01
aS'd9427d8a-8b30-11e2-9a2e-0030679f1d6a'
p100
aa(lp101
L7000000000000000000000011485410000L
aL7000000000000000000000011485430000L
aS'e62360a4-8b59-11e2-9849-fa163e3a40ba'
p102
aI01
aI01
aS'd9172400-8b30-11e2-a63d-0030679f1d6a'
p103
aa(lp104
L7000000000000000000000011485430000L
aL7000000000000000000000011485450000L
aS'e6236446-8b59-11e2-9849-fa163e3a40ba'
p105
aI01
aI01
aS'bbc01e02-8b30-11e2-b608-0030679f1d6a'
p106
aa(lp107
L7000000000000000000000011485450000L
aL7000000000000000000000011485470000L
aS'e62367e8-8b59-11e2-9849-fa163e3a40ba'
p108
aI01
aI01
aS'e4d67fbc-8b1b-11e2-af62-00e07dd5df94'
p109
aa(lp110
L7000000000000000000000011485470000L
aL7000000000000000000000011485490000L
aS'e6236b8a-8b59-11e2-9849-fa163e3a40ba'
p111
aI01
aI01
aS'b06533ca-8b31-11e2-8fd8-000c29e250a1'
p112
aa(lp113
L7000000000000000000000011485490000L
aL7000000000000000000000011485510000L
aS'e6236f9a-8b59-11e2-9849-fa163e3a40ba'
p114
aI01
aI01
aS'a55ddd48-8b30-11e2-9f29-0030679f1d6a'
p115
aa(lp116
L7000000000000000000000011485510000L
aL7000000000000000000000011485530000L
aS'e62373a0-8b59-11e2-9849-fa163e3a40ba'
p117
aI01
aI01
aS'e37449ec-8b1b-11e2-a8a3-00e07dd5df94'
p118
aa(lp119
L7000000000000000000000011485530000L
aL7000000000000000000000011485550000L
aS'e623774c-8b59-11e2-9849-fa163e3a40ba'
p120
aI01
aI01
aS'af67ead0-8b31-11e2-aa1a-000c29e250a1'
p121
aa(lp122
L7000000000000000000000011485550000L
aL7000000000000000000000011485570000L
aS'e6237b66-8b59-11e2-9849-fa163e3a40ba'
p123
aI01
aI01
aS'e51c0dac-8b1b-11e2-8101-00e07dd5df94'
p124
aa(lp125
L7000000000000000000000011485570000L
aL7000000000000000000000011485590000L
aS'e6237f62-8b59-11e2-9849-fa163e3a40ba'
p126
aI01
aI01
aS'd9427d8a-8b30-11e2-9a2e-0030679f1d6a'
p127
aa(lp128
L7000000000000000000000011485590000L
aL7000000000000000000000011485610000L
aS'e6238368-8b59-11e2-9849-fa163e3a40ba'
p129
aI01
aI01
aS'bbc01e02-8b30-11e2-b608-0030679f1d6a'
p130
aa(lp131
L7000000000000000000000011485610000L
aL7000000000000000000000011485630000L
aS'e623876e-8b59-11e2-9849-fa163e3a40ba'
p132
aI01
aI01
aS'e5f3a1f4-8b1b-11e2-9ec6-00e07dd5df94'
p133
aa(lp134
L7000000000000000000000011485630000L
aL7000000000000000000000011485650000L
aS'e6238b6a-8b59-11e2-9849-fa163e3a40ba'
p135
aI01
aI01
aS'd9172400-8b30-11e2-a63d-0030679f1d6a'
p136
aa(lp137
L7000000000000000000000011485650000L
aL7000000000000000000000011485670000L
aS'e6238f66-8b59-11e2-9849-fa163e3a40ba'
p138
aI01
aI01
aS'a55ddd48-8b30-11e2-9f29-0030679f1d6a'
p139
aa(lp140
L7000000000000000000000011485670000L
aL7000000000000000000000011485690000L
aS'e6239470-8b59-11e2-9849-fa163e3a40ba'
p141
aI01
aI01
aS'e4a8b3d4-8b1b-11e2-99e4-00e07dd5df94'
p142
aa(lp143
L7000000000000000000000011485690000L
aL7000000000000000000000011485710000L
aS'e623983a-8b59-11e2-9849-fa163e3a40ba'
p144
aI01
aI01
aS'b0f9f28a-8b31-11e2-9ae9-000c29e250a1'
p145
aa(lp146
L7000000000000000000000011485710000L
aL7000000000000000000000011485730000L
aS'e6239c5e-8b59-11e2-9849-fa163e3a40ba'
p147
aI01
aI01
aS'd9427d8a-8b30-11e2-9a2e-0030679f1d6a'
p148
aa(lp149
L7000000000000000000000011485730000L
aL7000000000000000000000011485750000L
aS'e623a06e-8b59-11e2-9849-fa163e3a40ba'
p150
aI01
aI01
aS'bbc01e02-8b30-11e2-b608-0030679f1d6a'
p151
aa(lp152
L7000000000000000000000011485750000L
aL7000000000000000000000011485770000L
aS'e623a47e-8b59-11e2-9849-fa163e3a40ba'
p153
aI01
aI01
aS'b06533ca-8b31-11e2-8fd8-000c29e250a1'
p154
aa(lp155
L7000000000000000000000011485770000L
aL7000000000000000000000011485790000L
aS'e623a848-8b59-11e2-9849-fa163e3a40ba'
p156
aI01
aI01
aS'd9172400-8b30-11e2-a63d-0030679f1d6a'
p157
aa(lp158
L7000000000000000000000011485790000L
aL7000000000000000000000011485810000L
aS'e623ac58-8b59-11e2-9849-fa163e3a40ba'
p159
aI01
aI01
aS'e4d67fbc-8b1b-11e2-af62-00e07dd5df94'
p160
aa(lp161
L7000000000000000000000011485810000L
aL7000000000000000000000011485830000L
aS'e623b05e-8b59-11e2-9849-fa163e3a40ba'
p162
aI01
aI01
aS'af67ead0-8b31-11e2-aa1a-000c29e250a1'
p163
aa(lp164
L7000000000000000000000011485830000L
aL7000000000000000000000011485850000L
aS'e623b464-8b59-11e2-9849-fa163e3a40ba'
p165
aI01
aI01
aS'a55ddd48-8b30-11e2-9f29-0030679f1d6a'
p166
aa(lp167
L7000000000000000000000011485850000L
aL7000000000000000000000011485870000L
aS'e623b874-8b59-11e2-9849-fa163e3a40ba'
p168
aI01
aI01
aS'e5f3a1f4-8b1b-11e2-9ec6-00e07dd5df94'
p169
aa(lp170
L7000000000000000000000011485870000L
aL7000000000000000000000011485890000L
aS'e623be82-8b59-11e2-9849-fa163e3a40ba'
p171
aI01
aI01
aS'e37449ec-8b1b-11e2-a8a3-00e07dd5df94'
p172
aa(lp173
L7000000000000000000000011485890000L
aL7000000000000000000000011485910000L
aS'e623c2e2-8b59-11e2-9849-fa163e3a40ba'
p174
aI01
aI01
aS'e51c0dac-8b1b-11e2-8101-00e07dd5df94'
p175
aa(lp176
L7000000000000000000000011485910000L
aL7000000000000000000000011485930000L
aS'e623c68e-8b59-11e2-9849-fa163e3a40ba'
p177
aI01
aI01
aS'd9427d8a-8b30-11e2-9a2e-0030679f1d6a'
p178
aa(lp179
L7000000000000000000000011485930000L
aL7000000000000000000000011485950000L
aS'e623ca62-8b59-11e2-9849-fa163e3a40ba'
p180
aI01
aI01
aS'bbc01e02-8b30-11e2-b608-0030679f1d6a'
p181
aa(lp182
L7000000000000000000000011485950000L
aL7000000000000000000000011485970000L
aS'e623ce72-8b59-11e2-9849-fa163e3a40ba'
p183
aI01
aI01
aS'd9172400-8b30-11e2-a63d-0030679f1d6a'
p184
aa(lp185
L7000000000000000000000011485970000L
aL7000000000000000000000011485990000L
aS'e623d28c-8b59-11e2-9849-fa163e3a40ba'
p186
aI01
aI01
aS'e4a8b3d4-8b1b-11e2-99e4-00e07dd5df94'
p187
aa(lp188
L7000000000000000000000011485990000L
aL7000000000000000000000011486010000L
aS'e623d642-8b59-11e2-9849-fa163e3a40ba'
p189
aI01
aI01
aS'a55ddd48-8b30-11e2-9f29-0030679f1d6a'
p190
aa(lp191
L7000000000000000000000011486010000L
aL7000000000000000000000011486030000L
aS'e623da5c-8b59-11e2-9849-fa163e3a40ba'
p192
aI01
aI01
aS'b0f9f28a-8b31-11e2-9ae9-000c29e250a1'
p193
aa(lp194
L7000000000000000000000011486030000L
aL7000000000000000000000011486050000L
aS'e623de6c-8b59-11e2-9849-fa163e3a40ba'
p195
aI01
aI01
aS'e4d67fbc-8b1b-11e2-af62-00e07dd5df94'
p196
aa(lp197
L7000000000000000000000011486050000L
aL7000000000000000000000011486070000L
aS'e623e286-8b59-11e2-9849-fa163e3a40ba'
p198
aI01
aI01
aS'b06533ca-8b31-11e2-8fd8-000c29e250a1'
p199
aa(lp200
L7000000000000000000000011486070000L
aL7000000000000000000000011486090000L
aS'e623e696-8b59-11e2-9849-fa163e3a40ba'
p201
aI01
aI01
aS'd9427d8a-8b30-11e2-9a2e-0030679f1d6a'
p202
aa(lp203
L7000000000000000000000011486090000L
aL7000000000000000000000011486110000L
aS'e623ea9c-8b59-11e2-9849-fa163e3a40ba'
p204
aI01
aI01
aS'af67ead0-8b31-11e2-aa1a-000c29e250a1'
p205
aa(lp206
L7000000000000000000000011486110000L
aL7000000000000000000000011486130000L
aS'e623eeac-8b59-11e2-9849-fa163e3a40ba'
p207
aI01
aI01
aS'bbc01e02-8b30-11e2-b608-0030679f1d6a'
p208
aa(lp209
L7000000000000000000000011486130000L
aL7000000000000000000000011486150000L
aS'e623f2b2-8b59-11e2-9849-fa163e3a40ba'
p210
aI01
aI01
aS'e37449ec-8b1b-11e2-a8a3-00e07dd5df94'
p211
aa(lp212
L7000000000000000000000011486150000L
aL7000000000000000000000011486170000L
aS'e623f65e-8b59-11e2-9849-fa163e3a40ba'
p213
aI01
aI01
aS'd9172400-8b30-11e2-a63d-0030679f1d6a'
p214
aa(lp215
L7000000000000000000000011486170000L
aL7000000000000000000000011486190000L
aS'e623fa0a-8b59-11e2-9849-fa163e3a40ba'
p216
aI01
aI01
aS'e5f3a1f4-8b1b-11e2-9ec6-00e07dd5df94'
p217
aa(lp218
L7000000000000000000000011486190000L
aL7000000000000000000000011486210000L
aS'e623fdca-8b59-11e2-9849-fa163e3a40ba'
p219
aI01
aI01
aS'a55ddd48-8b30-11e2-9f29-0030679f1d6a'
p220
aa(lp221
L7000000000000000000000011486210000L
aL7000000000000000000000011486230000L
aS'e6240180-8b59-11e2-9849-fa163e3a40ba'
p222
aI01
aI01
aS'e51c0dac-8b1b-11e2-8101-00e07dd5df94'
p223
aa(lp224
L7000000000000000000000011486230000L
aL7000000000000000000000011486250000L
aS'e6240522-8b59-11e2-9849-fa163e3a40ba'
p225
aI01
aI01
aS'bbc01e02-8b30-11e2-b608-0030679f1d6a'
p226
aa(lp227
L7000000000000000000000011486250000L
aL7000000000000000000000011486270000L
aS'e62408c4-8b59-11e2-9849-fa163e3a40ba'
p228
aI01
aI01
aS'd9427d8a-8b30-11e2-9a2e-0030679f1d6a'
p229
aa(lp230
L7000000000000000000000011486270000L
aL7000000000000000000000011486290000L
aS'e6240c7a-8b59-11e2-9849-fa163e3a40ba'
p231
aI01
aI01
aS'e4a8b3d4-8b1b-11e2-99e4-00e07dd5df94'
p232
aa(lp233
L7000000000000000000000011486290000L
aL7000000000000000000000011486310000L
aS'e6241026-8b59-11e2-9849-fa163e3a40ba'
p234
aI01
aI01
aS'd9172400-8b30-11e2-a63d-0030679f1d6a'
p235
aa(lp236
L7000000000000000000000011486310000L
aL7000000000000000000000011486330000L
aS'e62413be-8b59-11e2-9849-fa163e3a40ba'
p237
aI01
aI01
aS'b0f9f28a-8b31-11e2-9ae9-000c29e250a1'
p238
aa(lp239
L7000000000000000000000011486330000L
aL7000000000000000000000011486350000L
aS'e6241756-8b59-11e2-9849-fa163e3a40ba'
p240
aI01
aI01
aS'a55ddd48-8b30-11e2-9f29-0030679f1d6a'
p241
aa(lp242
L7000000000000000000000011486350000L
aL7000000000000000000000011486370000L
aS'e6241aee-8b59-11e2-9849-fa163e3a40ba'
p243
aI01
aI00
aNaa(lp244
L7000000000000000000000011486370000L
aL7000000000000000000000011486390000L
aS'e6241ea4-8b59-11e2-9849-fa163e3a40ba'
p245
aI01
aI00
aNaa(lp246
L7000000000000000000000011486390000L
aL7000000000000000000000011486410000L
aS'e6242250-8b59-11e2-9849-fa163e3a40ba'
p247
aI01
aI00
aNaa(lp248
L7000000000000000000000011486410000L
aL7000000000000000000000011486430000L
aS'e62425e8-8b59-11e2-9849-fa163e3a40ba'
p249
aI01
aI00
aNaa(lp250
L7000000000000000000000011486430000L
aL7000000000000000000000011486450000L
aS'e6242980-8b59-11e2-9849-fa163e3a40ba'
p251
aI01
aI00
aNaa(lp252
L7000000000000000000000011486450000L
aL7000000000000000000000011486470000L
aS'e6242d18-8b59-11e2-9849-fa163e3a40ba'
p253
aI01
aI00
aNaa(lp254
L7000000000000000000000011486470000L
aL7000000000000000000000011486490000L
aS'e62431c8-8b59-11e2-9849-fa163e3a40ba'
p255
aI01
aI00
aNaa(lp256
L7000000000000000000000011486490000L
aL7000000000000000000000011486510000L
aS'e62435a6-8b59-11e2-9849-fa163e3a40ba'
p257
aI01
aI00
aNaa(lp258
L7000000000000000000000011486510000L
aL7000000000000000000000011486530000L
aS'e6243952-8b59-11e2-9849-fa163e3a40ba'
p259
aI01
aI00
aNaa(lp260
L7000000000000000000000011486530000L
aL7000000000000000000000011486550000L
aS'e6243d08-8b59-11e2-9849-fa163e3a40ba'
p261
aI01
aI00
aNaa(lp262
L7000000000000000000000011486550000L
aL7000000000000000000000011486570000L
aS'e62440d2-8b59-11e2-9849-fa163e3a40ba'
p263
aI01
aI00
aNaa(lp264
L7000000000000000000000011486570000L
aL7000000000000000000000011486590000L
aS'e6244474-8b59-11e2-9849-fa163e3a40ba'
p265
aI01
aI00
aNaa(lp266
L7000000000000000000000011486590000L
aL7000000000000000000000011486610000L
aS'e6244816-8b59-11e2-9849-fa163e3a40ba'
p267
aI00
aI00
aNaa(lp268
L7000000000000000000000011486610000L
aL7000000000000000000000011486630000L
aS'e6244bd6-8b59-11e2-9849-fa163e3a40ba'
p269
aI00
aI00
aNaa(lp270
L7000000000000000000000011486630000L
aL7000000000000000000000011486650000L
aS'e6244f6e-8b59-11e2-9849-fa163e3a40ba'
p271
aI00
aI00
aNaa(lp272
L7000000000000000000000011486650000L
aL7000000000000000000000011486670000L
aS'e62452fc-8b59-11e2-9849-fa163e3a40ba'
p273
aI00
aI00
aNaa(lp274
L7000000000000000000000011486670000L
aL7000000000000000000000011486690000L
aS'e6245694-8b59-11e2-9849-fa163e3a40ba'
p275
aI00
aI00
aNaa(lp276
L7000000000000000000000011486690000L
aL7000000000000000000000011486710000L
aS'e6245c48-8b59-11e2-9849-fa163e3a40ba'
p277
aI00
aI00
aNaa(lp278
L7000000000000000000000011486710000L
aL7000000000000000000000011486730000L
aS'e6245ffe-8b59-11e2-9849-fa163e3a40ba'
p279
aI00
aI00
aNaa(lp280
L7000000000000000000000011486730000L
aL7000000000000000000000011486750000L
aS'e62463a0-8b59-11e2-9849-fa163e3a40ba'
p281
aI00
aI01
aS'e4a8b3d4-8b1b-11e2-99e4-00e07dd5df94'
p282
aa.