(lp1
(lp2
L7000000000000000000000010981000000L
aL7000000000000000000000010981010000L
aS'3c9a5310-894e-11e2-a0a0-000c29e250a1'
p3
aI01
aI01
aS'6be45f5a-86bd-11e2-93ab-001cc0bffc9f'
p4
aa(lp5
L7000000000000000000000010981010000L
aL7000000000000000000000010981020000L
aS'3c9a56a8-894e-11e2-a0a0-000c29e250a1'
p6
aI01
aI01
aS'936be846-86bc-11e2-921f-001cc0bffc9f'
p7
aa(lp8
L7000000000000000000000010981020000L
aL7000000000000000000000010981030000L
aS'3c9a5914-894e-11e2-a0a0-000c29e250a1'
p9
aI01
aI01
aS'fc1b6e62-86bb-11e2-98f6-fa163e065d0c'
p10
aa(lp11
L7000000000000000000000010981030000L
aL7000000000000000000000010981040000L
aS'3c9a5c20-894e-11e2-a0a0-000c29e250a1'
p12
aI01
aI01
aS'fba6e02e-86bb-11e2-a775-fa163e065d0c'
p13
aa(lp14
L7000000000000000000000010981040000L
aL7000000000000000000000010981050000L
aS'3c9a5f54-894e-11e2-a0a0-000c29e250a1'
p15
aI01
aI01
aS'aa94c808-86bc-11e2-931d-fa163e065d0c'
p16
aa(lp17
L7000000000000000000000010981050000L
aL7000000000000000000000010981060000L
aS'3c9a6198-894e-11e2-a0a0-000c29e250a1'
p18
aI01
aI01
aS'fd0107e2-86bb-11e2-80cc-fa163e065d0c'
p19
aa(lp20
L7000000000000000000000010981060000L
aL7000000000000000000000010981070000L
aS'3c9a63f0-894e-11e2-a0a0-000c29e250a1'
p21
aI01
aI01
aS'fc94b060-86bb-11e2-acb1-fa163e065d0c'
p22
aa(lp23
L7000000000000000000000010981070000L
aL7000000000000000000000010981080000L
aS'3c9a6684-894e-11e2-a0a0-000c29e250a1'
p24
aI01
aI01
aS'273ccb30-882f-11e2-8f68-0030679f1d6a'
p25
aa(lp26
L7000000000000000000000010981080000L
aL7000000000000000000000010981090000L
aS'3c9a69ea-894e-11e2-a0a0-000c29e250a1'
p27
aI01
aI01
aS'f9f7009c-86bb-11e2-a0b6-fa163e065d0c'
p28
aa(lp29
L7000000000000000000000010981090000L
aL7000000000000000000000010981100000L
aS'3c9a6cc4-894e-11e2-a0a0-000c29e250a1'
p30
aI01
aI01
aS'ab1cfc00-86bc-11e2-b908-fa163e065d0c'
p31
aa(lp32
L7000000000000000000000010981100000L
aL7000000000000000000000010981110000L
aS'3c9a6efe-894e-11e2-a0a0-000c29e250a1'
p33
aI01
aI01
aS'fb051a5a-86bb-11e2-bf39-fa163e065d0c'
p34
aa(lp35
L7000000000000000000000010981110000L
aL7000000000000000000000010981120000L
aS'3c9a7174-894e-11e2-a0a0-000c29e250a1'
p36
aI01
aI01
aS'fc1b6e62-86bb-11e2-98f6-fa163e065d0c'
p37
aa(lp38
L7000000000000000000000010981120000L
aL7000000000000000000000010981130000L
aS'3c9a7a70-894e-11e2-a0a0-000c29e250a1'
p39
aI01
aI01
aS'72044538-8831-11e2-afe4-000c29e250a1'
p40
aa(lp41
L7000000000000000000000010981130000L
aL7000000000000000000000010981140000L
aS'3c9a7d4a-894e-11e2-a0a0-000c29e250a1'
p42
aI01
aI01
aS'5e10baa4-86bd-11e2-b8c0-001cc0bffc9f'
p43
aa(lp44
L7000000000000000000000010981140000L
aL7000000000000000000000010981150000L
aS'3c9a7f7a-894e-11e2-a0a0-000c29e250a1'
p45
aI01
aI01
aS'b0d2c85c-8822-11e2-a2e4-000c295aaa91'
p46
aa(lp47
L7000000000000000000000010981150000L
aL7000000000000000000000010981160000L
aS'3c9a81a0-894e-11e2-a0a0-000c29e250a1'
p48
aI01
aI01
aS'fba6e02e-86bb-11e2-a775-fa163e065d0c'
p49
aa(lp50
L7000000000000000000000010981160000L
aL7000000000000000000000010981170000L
aS'3c9a840c-894e-11e2-a0a0-000c29e250a1'
p51
aI01
aI01
aS'76141dce-8831-11e2-ae9f-000c29e250a1'
p52
aa(lp53
L7000000000000000000000010981170000L
aL7000000000000000000000010981180000L
aS'3c9a8772-894e-11e2-a0a0-000c29e250a1'
p54
aI01
aI01
aS'273ccb30-882f-11e2-8f68-0030679f1d6a'
p55
aa(lp56
L7000000000000000000000010981180000L
aL7000000000000000000000010981190000L
aS'3c9a8a88-894e-11e2-a0a0-000c29e250a1'
p57
aI01
aI01
aS'aa94c808-86bc-11e2-931d-fa163e065d0c'
p58
aa(lp59
L7000000000000000000000010981190000L
aL7000000000000000000000010981200000L
aS'3c9a8ccc-894e-11e2-a0a0-000c29e250a1'
p60
aI01
aI01
aS'6a501894-8831-11e2-9f18-000c29e250a1'
p61
aa(lp62
L7000000000000000000000010981200000L
aL7000000000000000000000010981210000L
aS'3c9a8ee8-894e-11e2-a0a0-000c29e250a1'
p63
aI01
aI01
aS'fd0107e2-86bb-11e2-80cc-fa163e065d0c'
p64
aa(lp65
L7000000000000000000000010981210000L
aL7000000000000000000000010981220000L
aS'3c9a910e-894e-11e2-a0a0-000c29e250a1'
p66
aI01
aI01
aS'fc94b060-86bb-11e2-acb1-fa163e065d0c'
p67
aa(lp68
L7000000000000000000000010981220000L
aL7000000000000000000000010981230000L
aS'3c9a932a-894e-11e2-a0a0-000c29e250a1'
p69
aI01
aI01
aS'f9f7009c-86bb-11e2-a0b6-fa163e065d0c'
p70
aa(lp71
L7000000000000000000000010981230000L
aL7000000000000000000000010981240000L
aS'3c9a95a0-894e-11e2-a0a0-000c29e250a1'
p72
aI01
aI01
aS'ab1cfc00-86bc-11e2-b908-fa163e065d0c'
p73
aa(lp74
L7000000000000000000000010981240000L
aL7000000000000000000000010981250000L
aS'3c9a98fc-894e-11e2-a0a0-000c29e250a1'
p75
aI01
aI01
aS'fb051a5a-86bb-11e2-bf39-fa163e065d0c'
p76
aa(lp77
L7000000000000000000000010981250000L
aL7000000000000000000000010981260000L
aS'3c9a9b5e-894e-11e2-a0a0-000c29e250a1'
p78
aI01
aI01
aS'fc1b6e62-86bb-11e2-98f6-fa163e065d0c'
p79
aa(lp80
L7000000000000000000000010981260000L
aL7000000000000000000000010981270000L
aS'3c9a9d98-894e-11e2-a0a0-000c29e250a1'
p81
aI01
aI01
aS'fba6e02e-86bb-11e2-a775-fa163e065d0c'
p82
aa(lp83
L7000000000000000000000010981270000L
aL7000000000000000000000010981280000L
aS'3c9a9fbe-894e-11e2-a0a0-000c29e250a1'
p84
aI01
aI01
aS'273ccb30-882f-11e2-8f68-0030679f1d6a'
p85
aa(lp86
L7000000000000000000000010981280000L
aL7000000000000000000000010981290000L
aS'3c9aa2d4-894e-11e2-a0a0-000c29e250a1'
p87
aI01
aI01
aS'8d67384c-86bc-11e2-860a-001cc0bffc9f'
p88
aa(lp89
L7000000000000000000000010981290000L
aL7000000000000000000000010981300000L
aS'3c9aab1c-894e-11e2-a0a0-000c29e250a1'
p90
aI01
aI01
aS'6be45f5a-86bd-11e2-93ab-001cc0bffc9f'
p91
aa(lp92
L7000000000000000000000010981300000L
aL7000000000000000000000010981310000L
aS'3c9aae96-894e-11e2-a0a0-000c29e250a1'
p93
aI01
aI01
aS'936be846-86bc-11e2-921f-001cc0bffc9f'
p94
aa(lp95
L7000000000000000000000010981310000L
aL7000000000000000000000010981320000L
aS'3c9ab260-894e-11e2-a0a0-000c29e250a1'
p96
aI01
aI00
aNaa(lp97
L7000000000000000000000010981320000L
aL7000000000000000000000010981330000L
aS'3c9ab51c-894e-11e2-a0a0-000c29e250a1'
p98
aI01
aI00
aNaa(lp99
L7000000000000000000000010981330000L
aL7000000000000000000000010981340000L
aS'3c9ab7b0-894e-11e2-a0a0-000c29e250a1'
p100
aI01
aI00
aNaa(lp101
L7000000000000000000000010981340000L
aL7000000000000000000000010981350000L
aS'3c9abc92-894e-11e2-a0a0-000c29e250a1'
p102
aI01
aI00
aNaa(lp103
L7000000000000000000000010981350000L
aL7000000000000000000000010981360000L
aS'3c9abf94-894e-11e2-a0a0-000c29e250a1'
p104
aI01
aI00
aNaa(lp105
L7000000000000000000000010981360000L
aL7000000000000000000000010981370000L
aS'3c9ac232-894e-11e2-a0a0-000c29e250a1'
p106
aI01
aI00
aNaa(lp107
L7000000000000000000000010981370000L
aL7000000000000000000000010981380000L
aS'3c9ac50c-894e-11e2-a0a0-000c29e250a1'
p108
aI01
aI00
aNaa(lp109
L7000000000000000000000010981380000L
aL7000000000000000000000010981390000L
aS'3c9ac908-894e-11e2-a0a0-000c29e250a1'
p110
aI01
aI00
aNaa(lp111
L7000000000000000000000010981390000L
aL7000000000000000000000010981400000L
aS'3c9acc46-894e-11e2-a0a0-000c29e250a1'
p112
aI01
aI00
aNaa(lp113
L7000000000000000000000010981400000L
aL7000000000000000000000010981410000L
aS'3c9acee4-894e-11e2-a0a0-000c29e250a1'
p114
aI01
aI00
aNaa(lp115
L7000000000000000000000010981410000L
aL7000000000000000000000010981420000L
aS'3c9ad164-894e-11e2-a0a0-000c29e250a1'
p116
aI01
aI00
aNaa(lp117
L7000000000000000000000010981420000L
aL7000000000000000000000010981430000L
aS'3c9b5468-894e-11e2-a0a0-000c29e250a1'
p118
aI01
aI00
aNaa(lp119
L7000000000000000000000010981430000L
aL7000000000000000000000010981440000L
aS'3c9b6656-894e-11e2-a0a0-000c29e250a1'
p120
aI01
aI00
aNaa(lp121
L7000000000000000000000010981440000L
aL7000000000000000000000010981450000L
aS'3c9b6ac0-894e-11e2-a0a0-000c29e250a1'
p122
aI01
aI00
aNaa(lp123
L7000000000000000000000010981450000L
aL7000000000000000000000010981460000L
aS'3c9b6f2a-894e-11e2-a0a0-000c29e250a1'
p124
aI00
aI00
aNaa(lp125
L7000000000000000000000010981460000L
aL7000000000000000000000010981470000L
aS'3c9b73bc-894e-11e2-a0a0-000c29e250a1'
p126
aI00
aI00
aNaa(lp127
L7000000000000000000000010981470000L
aL7000000000000000000000010981480000L
aS'3c9b7826-894e-11e2-a0a0-000c29e250a1'
p128
aI00
aI00
aNaa(lp129
L7000000000000000000000010981480000L
aL7000000000000000000000010981490000L
aS'3c9b7c4a-894e-11e2-a0a0-000c29e250a1'
p130
aI00
aI00
aNaa(lp131
L7000000000000000000000010981490000L
aL7000000000000000000000010981500000L
aS'3c9b80a0-894e-11e2-a0a0-000c29e250a1'
p132
aI00
aI00
aNaa(lp133
L7000000000000000000000010981500000L
aL7000000000000000000000010981510000L
aS'3c9b8514-894e-11e2-a0a0-000c29e250a1'
p134
aI00
aI00
aNaa(lp135
L7000000000000000000000010981510000L
aL7000000000000000000000010981520000L
aS'3c9b8956-894e-11e2-a0a0-000c29e250a1'
p136
aI00
aI00
aNaa(lp137
L7000000000000000000000010981520000L
aL7000000000000000000000010981530000L
aS'3c9b8d8e-894e-11e2-a0a0-000c29e250a1'
p138
aI00
aI00
aNaa(lp139
L7000000000000000000000010981530000L
aL7000000000000000000000010981540000L
aS'3c9b91d0-894e-11e2-a0a0-000c29e250a1'
p140
aI00
aI00
aNaa(lp141
L7000000000000000000000010981540000L
aL7000000000000000000000010981550000L
aS'3c9b95f4-894e-11e2-a0a0-000c29e250a1'
p142
aI00
aI00
aNaa(lp143
L7000000000000000000000010981550000L
aL7000000000000000000000010981560000L
aS'3c9b9a22-894e-11e2-a0a0-000c29e250a1'
p144
aI00
aI00
aNaa(lp145
L7000000000000000000000010981560000L
aL7000000000000000000000010981570000L
aS'3c9b9e50-894e-11e2-a0a0-000c29e250a1'
p146
aI00
aI00
aNaa(lp147
L7000000000000000000000010981570000L
aL7000000000000000000000010981580000L
aS'3c9ba288-894e-11e2-a0a0-000c29e250a1'
p148
aI00
aI00
aNaa(lp149
L7000000000000000000000010981580000L
aL7000000000000000000000010981590000L
aS'3c9ba6b6-894e-11e2-a0a0-000c29e250a1'
p150
aI00
aI00
aNaa(lp151
L7000000000000000000000010981590000L
aL7000000000000000000000010981600000L
aS'3c9bab2a-894e-11e2-a0a0-000c29e250a1'
p152
aI00
aI00
aNaa(lp153
L7000000000000000000000010981600000L
aL7000000000000000000000010981610000L
aS'3c9baf76-894e-11e2-a0a0-000c29e250a1'
p154
aI00
aI00
aNaa(lp155
L7000000000000000000000010981610000L
aL7000000000000000000000010981620000L
aS'3c9bb3d6-894e-11e2-a0a0-000c29e250a1'
p156
aI00
aI00
aNaa(lp157
L7000000000000000000000010981620000L
aL7000000000000000000000010981630000L
aS'3c9c1c18-894e-11e2-a0a0-000c29e250a1'
p158
aI00
aI00
aNaa(lp159
L7000000000000000000000010981630000L
aL7000000000000000000000010981640000L
aS'3c9c23a2-894e-11e2-a0a0-000c29e250a1'
p160
aI00
aI00
aNaa(lp161
L7000000000000000000000010981640000L
aL7000000000000000000000010981650000L
aS'3c9c2820-894e-11e2-a0a0-000c29e250a1'
p162
aI00
aI00
aNaa(lp163
L7000000000000000000000010981650000L
aL7000000000000000000000010981660000L
aS'3c9c2c44-894e-11e2-a0a0-000c29e250a1'
p164
aI00
aI00
aNaa(lp165
L7000000000000000000000010981660000L
aL7000000000000000000000010981670000L
aS'3c9c3054-894e-11e2-a0a0-000c29e250a1'
p166
aI00
aI00
aNaa(lp167
L7000000000000000000000010981670000L
aL7000000000000000000000010981680000L
aS'3c9c3478-894e-11e2-a0a0-000c29e250a1'
p168
aI00
aI00
aNaa(lp169
L7000000000000000000000010981680000L
aL7000000000000000000000010981690000L
aS'3c9c38ba-894e-11e2-a0a0-000c29e250a1'
p170
aI00
aI00
aNaa(lp171
L7000000000000000000000010981690000L
aL7000000000000000000000010981700000L
aS'3c9c3ce8-894e-11e2-a0a0-000c29e250a1'
p172
aI00
aI00
aNaa(lp173
L7000000000000000000000010981700000L
aL7000000000000000000000010981710000L
aS'3c9c41c0-894e-11e2-a0a0-000c29e250a1'
p174
aI00
aI00
aNaa(lp175
L7000000000000000000000010981710000L
aL7000000000000000000000010981720000L
aS'3c9c45f8-894e-11e2-a0a0-000c29e250a1'
p176
aI00
aI00
aNaa(lp177
L7000000000000000000000010981720000L
aL7000000000000000000000010981730000L
aS'3c9c4a30-894e-11e2-a0a0-000c29e250a1'
p178
aI00
aI00
aNaa(lp179
L7000000000000000000000010981730000L
aL7000000000000000000000010981740000L
aS'3c9c4e86-894e-11e2-a0a0-000c29e250a1'
p180
aI00
aI00
aNaa(lp181
L7000000000000000000000010981740000L
aL7000000000000000000000010981750000L
aS'3c9c5340-894e-11e2-a0a0-000c29e250a1'
p182
aI00
aI00
aNaa(lp183
L7000000000000000000000010981750000L
aL7000000000000000000000010981760000L
aS'3c9c5782-894e-11e2-a0a0-000c29e250a1'
p184
aI00
aI00
aNaa(lp185
L7000000000000000000000010981760000L
aL7000000000000000000000010981770000L
aS'3c9c5bd8-894e-11e2-a0a0-000c29e250a1'
p186
aI00
aI00
aNaa(lp187
L7000000000000000000000010981770000L
aL7000000000000000000000010981780000L
aS'3c9c604c-894e-11e2-a0a0-000c29e250a1'
p188
aI00
aI00
aNaa(lp189
L7000000000000000000000010981780000L
aL7000000000000000000000010981790000L
aS'3c9c64a2-894e-11e2-a0a0-000c29e250a1'
p190
aI00
aI00
aNaa(lp191
L7000000000000000000000010981790000L
aL7000000000000000000000010981800000L
aS'3c9c68f8-894e-11e2-a0a0-000c29e250a1'
p192
aI00
aI00
aNaa(lp193
L7000000000000000000000010981800000L
aL7000000000000000000000010981810000L
aS'3c9c6d76-894e-11e2-a0a0-000c29e250a1'
p194
aI00
aI00
aNaa(lp195
L7000000000000000000000010981810000L
aL7000000000000000000000010981820000L
aS'3c9c719a-894e-11e2-a0a0-000c29e250a1'
p196
aI00
aI00
aNaa(lp197
L7000000000000000000000010981820000L
aL7000000000000000000000010981830000L
aS'3c9c77c6-894e-11e2-a0a0-000c29e250a1'
p198
aI00
aI00
aNaa(lp199
L7000000000000000000000010981830000L
aL7000000000000000000000010981840000L
aS'3c9c87de-894e-11e2-a0a0-000c29e250a1'
p200
aI00
aI00
aNaa(lp201
L7000000000000000000000010981840000L
aL7000000000000000000000010981850000L
aS'3c9c8c48-894e-11e2-a0a0-000c29e250a1'
p202
aI00
aI00
aNaa(lp203
L7000000000000000000000010981850000L
aL7000000000000000000000010981860000L
aS'3c9ca44e-894e-11e2-a0a0-000c29e250a1'
p204
aI00
aI00
aNaa(lp205
L7000000000000000000000010981860000L
aL7000000000000000000000010981870000L
aS'3c9ca8e0-894e-11e2-a0a0-000c29e250a1'
p206
aI00
aI00
aNaa(lp207
L7000000000000000000000010981870000L
aL7000000000000000000000010981880000L
aS'3c9cad5e-894e-11e2-a0a0-000c29e250a1'
p208
aI00
aI00
aNaa(lp209
L7000000000000000000000010981880000L
aL7000000000000000000000010981890000L
aS'3c9cb1e6-894e-11e2-a0a0-000c29e250a1'
p210
aI00
aI00
aNaa(lp211
L7000000000000000000000010981890000L
aL7000000000000000000000010981900000L
aS'3c9d2ff4-894e-11e2-a0a0-000c29e250a1'
p212
aI00
aI00
aNaa(lp213
L7000000000000000000000010981900000L
aL7000000000000000000000010981910000L
aS'3c9d3512-894e-11e2-a0a0-000c29e250a1'
p214
aI00
aI00
aNaa(lp215
L7000000000000000000000010981910000L
aL7000000000000000000000010981920000L
aS'3c9d37ba-894e-11e2-a0a0-000c29e250a1'
p216
aI00
aI00
aNaa(lp217
L7000000000000000000000010981920000L
aL7000000000000000000000010981930000L
aS'3c9d3a62-894e-11e2-a0a0-000c29e250a1'
p218
aI00
aI00
aNaa(lp219
L7000000000000000000000010981930000L
aL7000000000000000000000010981940000L
aS'3c9d3cf6-894e-11e2-a0a0-000c29e250a1'
p220
aI00
aI00
aNaa(lp221
L7000000000000000000000010981940000L
aL7000000000000000000000010981950000L
aS'3c9d3f8a-894e-11e2-a0a0-000c29e250a1'
p222
aI00
aI00
aNaa(lp223
L7000000000000000000000010981950000L
aL7000000000000000000000010981960000L
aS'3c9d421e-894e-11e2-a0a0-000c29e250a1'
p224
aI00
aI00
aNaa(lp225
L7000000000000000000000010981960000L
aL7000000000000000000000010981970000L
aS'3c9d44bc-894e-11e2-a0a0-000c29e250a1'
p226
aI00
aI00
aNaa(lp227
L7000000000000000000000010981970000L
aL7000000000000000000000010981980000L
aS'3c9d475a-894e-11e2-a0a0-000c29e250a1'
p228
aI00
aI00
aNaa(lp229
L7000000000000000000000010981980000L
aL7000000000000000000000010981990000L
aS'3c9d49e4-894e-11e2-a0a0-000c29e250a1'
p230
aI00
aI00
aNaa(lp231
L7000000000000000000000010981990000L
aL7000000000000000000000010982000000L
aS'3c9d4c6e-894e-11e2-a0a0-000c29e250a1'
p232
aI00
aI01
aS'4beb25da-86bd-11e2-8881-001cc0bffc9f'
p233
aa.