(lp1
(lp2
L7000000000000000000000026042750000L
aL7000000000000000000000026042790000L
aS'ab4eeaba-f26a-11e3-b28d-ccd29b2fe4f6'
p3
aI01
aI01
aS'c1d0db2c-f26a-11e3-9ba0-ccd29b2fe4f6'
p4
aa(lp5
L7000000000000000000000026042790000L
aL7000000000000000000000026042830000L
aS'ab4efd48-f26a-11e3-b28d-ccd29b2fe4f6'
p6
aI01
aI01
aS'c1d0db2c-f26a-11e3-9ba0-ccd29b2fe4f6'
p7
aa(lp8
L7000000000000000000000026042830000L
aL7000000000000000000000026042870000L
aS'ab4f08f6-f26a-11e3-b28d-ccd29b2fe4f6'
p9
aI01
aI01
aS'c1d0db2c-f26a-11e3-9ba0-ccd29b2fe4f6'
p10
aa(lp11
L7000000000000000000000026042870000L
aL7000000000000000000000026042910000L
aS'ab4f12f6-f26a-11e3-b28d-ccd29b2fe4f6'
p12
aI01
aI00
aNaa(lp13
L7000000000000000000000026042910000L
aL7000000000000000000000026042950000L
aS'ab4f1c9c-f26a-11e3-b28d-ccd29b2fe4f6'
p14
aI00
aI00
aNaa(lp15
L7000000000000000000000026042950000L
aL7000000000000000000000026042990000L
aS'ab4f264c-f26a-11e3-b28d-ccd29b2fe4f6'
p16
aI00
aI00
aNaa(lp17
L7000000000000000000000026042990000L
aL7000000000000000000000026043030000L
aS'ab4f2f8e-f26a-11e3-b28d-ccd29b2fe4f6'
p18
aI00
aI00
aNaa(lp19
L7000000000000000000000026043030000L
aL7000000000000000000000026043070000L
aS'ab4f38bc-f26a-11e3-b28d-ccd29b2fe4f6'
p20
aI00
aI00
aNaa(lp21
L7000000000000000000000026043070000L
aL7000000000000000000000026043110000L
aS'ab4f41fe-f26a-11e3-b28d-ccd29b2fe4f6'
p22
aI00
aI00
aNaa(lp23
L7000000000000000000000026043110000L
aL7000000000000000000000026043150000L
aS'ab4f4ba4-f26a-11e3-b28d-ccd29b2fe4f6'
p24
aI00
aI00
aNaa(lp25
L7000000000000000000000026043150000L
aL7000000000000000000000026043190000L
aS'ab4f5504-f26a-11e3-b28d-ccd29b2fe4f6'
p26
aI00
aI00
aNaa(lp27
L7000000000000000000000026043190000L
aL7000000000000000000000026043230000L
aS'ab4f5e0a-f26a-11e3-b28d-ccd29b2fe4f6'
p28
aI00
aI00
aNaa(lp29
L7000000000000000000000026043230000L
aL7000000000000000000000026043270000L
aS'ab4f6792-f26a-11e3-b28d-ccd29b2fe4f6'
p30
aI00
aI00
aNaa(lp31
L7000000000000000000000026043270000L
aL7000000000000000000000026043310000L
aS'ab4f717e-f26a-11e3-b28d-ccd29b2fe4f6'
p32
aI00
aI00
aNaa(lp33
L7000000000000000000000026043310000L
aL7000000000000000000000026043350000L
aS'ab4f7b38-f26a-11e3-b28d-ccd29b2fe4f6'
p34
aI00
aI00
aNaa(lp35
L7000000000000000000000026043350000L
aL7000000000000000000000026043390000L
aS'ab4f8470-f26a-11e3-b28d-ccd29b2fe4f6'
p36
aI00
aI00
aNaa(lp37
L7000000000000000000000026043390000L
aL7000000000000000000000026043430000L
aS'ab4f8dee-f26a-11e3-b28d-ccd29b2fe4f6'
p38
aI00
aI00
aNaa(lp39
L7000000000000000000000026043430000L
aL7000000000000000000000026043470000L
aS'ab4f9762-f26a-11e3-b28d-ccd29b2fe4f6'
p40
aI00
aI00
aNaa(lp41
L7000000000000000000000026043470000L
aL7000000000000000000000026043510000L
aS'ab4fdbc8-f26a-11e3-b28d-ccd29b2fe4f6'
p42
aI00
aI00
aNaa(lp43
L7000000000000000000000026043510000L
aL7000000000000000000000026043550000L
aS'ab4ff11c-f26a-11e3-b28d-ccd29b2fe4f6'
p44
aI00
aI00
aNaa(lp45
L7000000000000000000000026043550000L
aL7000000000000000000000026043590000L
aS'ab4fff4a-f26a-11e3-b28d-ccd29b2fe4f6'
p46
aI00
aI00
aNaa(lp47
L7000000000000000000000026043590000L
aL7000000000000000000000026043630000L
aS'ab500a30-f26a-11e3-b28d-ccd29b2fe4f6'
p48
aI00
aI00
aNaa(lp49
L7000000000000000000000026043630000L
aL7000000000000000000000026043670000L
aS'ab50141c-f26a-11e3-b28d-ccd29b2fe4f6'
p50
aI00
aI00
aNaa(lp51
L7000000000000000000000026043670000L
aL7000000000000000000000026043710000L
aS'ab501d9a-f26a-11e3-b28d-ccd29b2fe4f6'
p52
aI00
aI00
aNaa(lp53
L7000000000000000000000026043710000L
aL7000000000000000000000026043750000L
aS'ab5026d2-f26a-11e3-b28d-ccd29b2fe4f6'
p54
aI00
aI00
aNaa(lp55
L7000000000000000000000026043750000L
aL7000000000000000000000026043790000L
aS'ab503014-f26a-11e3-b28d-ccd29b2fe4f6'
p56
aI00
aI00
aNaa(lp57
L7000000000000000000000026043790000L
aL7000000000000000000000026043830000L
aS'ab503942-f26a-11e3-b28d-ccd29b2fe4f6'
p58
aI00
aI00
aNaa(lp59
L7000000000000000000000026043830000L
aL7000000000000000000000026043870000L
aS'ab50422a-f26a-11e3-b28d-ccd29b2fe4f6'
p60
aI00
aI00
aNaa(lp61
L7000000000000000000000026043870000L
aL7000000000000000000000026043910000L
aS'ab504b44-f26a-11e3-b28d-ccd29b2fe4f6'
p62
aI00
aI00
aNaa(lp63
L7000000000000000000000026043910000L
aL7000000000000000000000026043950000L
aS'ab505436-f26a-11e3-b28d-ccd29b2fe4f6'
p64
aI00
aI00
aNaa(lp65
L7000000000000000000000026043950000L
aL7000000000000000000000026043990000L
aS'ab505d32-f26a-11e3-b28d-ccd29b2fe4f6'
p66
aI00
aI00
aNaa(lp67
L7000000000000000000000026043990000L
aL7000000000000000000000026044030000L
aS'ab50662e-f26a-11e3-b28d-ccd29b2fe4f6'
p68
aI00
aI00
aNaa(lp69
L7000000000000000000000026044030000L
aL7000000000000000000000026044070000L
aS'ab506eee-f26a-11e3-b28d-ccd29b2fe4f6'
p70
aI00
aI00
aNaa(lp71
L7000000000000000000000026044070000L
aL7000000000000000000000026044110000L
aS'ab5077a4-f26a-11e3-b28d-ccd29b2fe4f6'
p72
aI00
aI00
aNaa(lp73
L7000000000000000000000026044110000L
aL7000000000000000000000026044150000L
aS'ab50805a-f26a-11e3-b28d-ccd29b2fe4f6'
p74
aI00
aI00
aNaa(lp75
L7000000000000000000000026044150000L
aL7000000000000000000000026044190000L
aS'ab508910-f26a-11e3-b28d-ccd29b2fe4f6'
p76
aI00
aI00
aNaa(lp77
L7000000000000000000000026044190000L
aL7000000000000000000000026044230000L
aS'ab50922a-f26a-11e3-b28d-ccd29b2fe4f6'
p78
aI00
aI00
aNaa(lp79
L7000000000000000000000026044230000L
aL7000000000000000000000026044270000L
aS'ab509aea-f26a-11e3-b28d-ccd29b2fe4f6'
p80
aI00
aI00
aNaa(lp81
L7000000000000000000000026044270000L
aL7000000000000000000000026044310000L
aS'ab50a3be-f26a-11e3-b28d-ccd29b2fe4f6'
p82
aI00
aI00
aNaa(lp83
L7000000000000000000000026044310000L
aL7000000000000000000000026044350000L
aS'ab50ac88-f26a-11e3-b28d-ccd29b2fe4f6'
p84
aI00
aI00
aNaa(lp85
L7000000000000000000000026044350000L
aL7000000000000000000000026044390000L
aS'ab50b5d4-f26a-11e3-b28d-ccd29b2fe4f6'
p86
aI00
aI00
aNaa(lp87
L7000000000000000000000026044390000L
aL7000000000000000000000026044430000L
aS'ab50c218-f26a-11e3-b28d-ccd29b2fe4f6'
p88
aI00
aI00
aNaa(lp89
L7000000000000000000000026044430000L
aL7000000000000000000000026044470000L
aS'ab50cfce-f26a-11e3-b28d-ccd29b2fe4f6'
p90
aI00
aI00
aNaa(lp91
L7000000000000000000000026044470000L
aL7000000000000000000000026044510000L
aS'ab510854-f26a-11e3-b28d-ccd29b2fe4f6'
p92
aI00
aI00
aNaa(lp93
L7000000000000000000000026044510000L
aL7000000000000000000000026044550000L
aS'ab511858-f26a-11e3-b28d-ccd29b2fe4f6'
p94
aI00
aI00
aNaa(lp95
L7000000000000000000000026044550000L
aL7000000000000000000000026044590000L
aS'ab5127a8-f26a-11e3-b28d-ccd29b2fe4f6'
p96
aI00
aI00
aNaa(lp97
L7000000000000000000000026044590000L
aL7000000000000000000000026044630000L
aS'ab513982-f26a-11e3-b28d-ccd29b2fe4f6'
p98
aI00
aI00
aNaa(lp99
L7000000000000000000000026044630000L
aL7000000000000000000000026044670000L
aS'ab5149b8-f26a-11e3-b28d-ccd29b2fe4f6'
p100
aI00
aI00
aNaa(lp101
L7000000000000000000000026044670000L
aL7000000000000000000000026044710000L
aS'ab515cc8-f26a-11e3-b28d-ccd29b2fe4f6'
p102
aI00
aI00
aNaa(lp103
L7000000000000000000000026044710000L
aL7000000000000000000000026044750000L
aS'ab516ba0-f26a-11e3-b28d-ccd29b2fe4f6'
p104
aI00
aI00
aNaa(lp105
L7000000000000000000000026044750000L
aL7000000000000000000000026044790000L
aS'ab517b68-f26a-11e3-b28d-ccd29b2fe4f6'
p106
aI00
aI00
aNaa(lp107
L7000000000000000000000026044790000L
aL7000000000000000000000026044830000L
aS'ab530078-f26a-11e3-b28d-ccd29b2fe4f6'
p108
aI00
aI00
aNaa(lp109
L7000000000000000000000026044830000L
aL7000000000000000000000026044870000L
aS'ab530eec-f26a-11e3-b28d-ccd29b2fe4f6'
p110
aI00
aI00
aNaa(lp111
L7000000000000000000000026044870000L
aL7000000000000000000000026044910000L
aS'ab5319c8-f26a-11e3-b28d-ccd29b2fe4f6'
p112
aI00
aI00
aNaa(lp113
L7000000000000000000000026044910000L
aL7000000000000000000000026044950000L
aS'ab5323dc-f26a-11e3-b28d-ccd29b2fe4f6'
p114
aI00
aI00
aNaa(lp115
L7000000000000000000000026044950000L
aL7000000000000000000000026044990000L
aS'ab532d96-f26a-11e3-b28d-ccd29b2fe4f6'
p116
aI00
aI00
aNaa(lp117
L7000000000000000000000026044990000L
aL7000000000000000000000026045030000L
aS'ab53370a-f26a-11e3-b28d-ccd29b2fe4f6'
p118
aI00
aI00
aNaa(lp119
L7000000000000000000000026045030000L
aL7000000000000000000000026045070000L
aS'ab534056-f26a-11e3-b28d-ccd29b2fe4f6'
p120
aI00
aI00
aNaa(lp121
L7000000000000000000000026045070000L
aL7000000000000000000000026045110000L
aS'ab5353de-f26a-11e3-b28d-ccd29b2fe4f6'
p122
aI00
aI00
aNaa(lp123
L7000000000000000000000026045110000L
aL7000000000000000000000026045150000L
aS'ab535fc8-f26a-11e3-b28d-ccd29b2fe4f6'
p124
aI00
aI00
aNaa(lp125
L7000000000000000000000026045150000L
aL7000000000000000000000026045190000L
aS'ab5369dc-f26a-11e3-b28d-ccd29b2fe4f6'
p126
aI00
aI00
aNaa(lp127
L7000000000000000000000026045190000L
aL7000000000000000000000026045230000L
aS'ab53736e-f26a-11e3-b28d-ccd29b2fe4f6'
p128
aI00
aI00
aNaa(lp129
L7000000000000000000000026045230000L
aL7000000000000000000000026045270000L
aS'ab537c6a-f26a-11e3-b28d-ccd29b2fe4f6'
p130
aI00
aI00
aNaa(lp131
L7000000000000000000000026045270000L
aL7000000000000000000000026045310000L
aS'ab538552-f26a-11e3-b28d-ccd29b2fe4f6'
p132
aI00
aI00
aNaa(lp133
L7000000000000000000000026045310000L
aL7000000000000000000000026045350000L
aS'ab538e3a-f26a-11e3-b28d-ccd29b2fe4f6'
p134
aI00
aI00
aNaa(lp135
L7000000000000000000000026045350000L
aL7000000000000000000000026045390000L
aS'ab539718-f26a-11e3-b28d-ccd29b2fe4f6'
p136
aI00
aI00
aNaa(lp137
L7000000000000000000000026045390000L
aL7000000000000000000000026045430000L
aS'ab53a028-f26a-11e3-b28d-ccd29b2fe4f6'
p138
aI00
aI00
aNaa(lp139
L7000000000000000000000026045430000L
aL7000000000000000000000026045470000L
aS'ab53a960-f26a-11e3-b28d-ccd29b2fe4f6'
p140
aI00
aI00
aNaa(lp141
L7000000000000000000000026045470000L
aL7000000000000000000000026045510000L
aS'ab53b220-f26a-11e3-b28d-ccd29b2fe4f6'
p142
aI00
aI00
aNaa(lp143
L7000000000000000000000026045510000L
aL7000000000000000000000026045550000L
aS'ab53bb3a-f26a-11e3-b28d-ccd29b2fe4f6'
p144
aI00
aI00
aNaa(lp145
L7000000000000000000000026045550000L
aL7000000000000000000000026045590000L
aS'ab53c3f0-f26a-11e3-b28d-ccd29b2fe4f6'
p146
aI00
aI00
aNaa(lp147
L7000000000000000000000026045590000L
aL7000000000000000000000026045630000L
aS'ab53ccec-f26a-11e3-b28d-ccd29b2fe4f6'
p148
aI00
aI00
aNaa(lp149
L7000000000000000000000026045630000L
aL7000000000000000000000026045670000L
aS'ab53d5b6-f26a-11e3-b28d-ccd29b2fe4f6'
p150
aI00
aI00
aNaa(lp151
L7000000000000000000000026045670000L
aL7000000000000000000000026045710000L
aS'ab53dfde-f26a-11e3-b28d-ccd29b2fe4f6'
p152
aI00
aI00
aNaa(lp153
L7000000000000000000000026045710000L
aL7000000000000000000000026045750000L
aS'ab53e90c-f26a-11e3-b28d-ccd29b2fe4f6'
p154
aI00
aI00
aNaa(lp155
L7000000000000000000000026045750000L
aL7000000000000000000000026045790000L
aS'ab53f2b2-f26a-11e3-b28d-ccd29b2fe4f6'
p156
aI00
aI00
aNaa(lp157
L7000000000000000000000026045790000L
aL7000000000000000000000026045830000L
aS'ab53fbfe-f26a-11e3-b28d-ccd29b2fe4f6'
p158
aI00
aI00
aNaa(lp159
L7000000000000000000000026045830000L
aL7000000000000000000000026045870000L
aS'ab54050e-f26a-11e3-b28d-ccd29b2fe4f6'
p160
aI00
aI00
aNaa(lp161
L7000000000000000000000026045870000L
aL7000000000000000000000026045910000L
aS'ab540dce-f26a-11e3-b28d-ccd29b2fe4f6'
p162
aI00
aI00
aNaa(lp163
L7000000000000000000000026045910000L
aL7000000000000000000000026045950000L
aS'ab5416de-f26a-11e3-b28d-ccd29b2fe4f6'
p164
aI00
aI00
aNaa(lp165
L7000000000000000000000026045950000L
aL7000000000000000000000026045990000L
aS'ab542872-f26a-11e3-b28d-ccd29b2fe4f6'
p166
aI00
aI00
aNaa(lp167
L7000000000000000000000026045990000L
aL7000000000000000000000026046030000L
aS'ab54360a-f26a-11e3-b28d-ccd29b2fe4f6'
p168
aI00
aI00
aNaa(lp169
L7000000000000000000000026046030000L
aL7000000000000000000000026046070000L
aS'ab544078-f26a-11e3-b28d-ccd29b2fe4f6'
p170
aI00
aI00
aNaa(lp171
L7000000000000000000000026046070000L
aL7000000000000000000000026046110000L
aS'ab5449e2-f26a-11e3-b28d-ccd29b2fe4f6'
p172
aI00
aI00
aNaa(lp173
L7000000000000000000000026046110000L
aL7000000000000000000000026046150000L
aS'ab577cde-f26a-11e3-b28d-ccd29b2fe4f6'
p174
aI00
aI00
aNaa(lp175
L7000000000000000000000026046150000L
aL7000000000000000000000026046190000L
aS'ab5790d4-f26a-11e3-b28d-ccd29b2fe4f6'
p176
aI00
aI00
aNaa(lp177
L7000000000000000000000026046190000L
aL7000000000000000000000026046230000L
aS'ab57a0b0-f26a-11e3-b28d-ccd29b2fe4f6'
p178
aI00
aI00
aNaa(lp179
L7000000000000000000000026046230000L
aL7000000000000000000000026046270000L
aS'ab57ad62-f26a-11e3-b28d-ccd29b2fe4f6'
p180
aI00
aI00
aNaa(lp181
L7000000000000000000000026046270000L
aL7000000000000000000000026046310000L
aS'ab57b7e4-f26a-11e3-b28d-ccd29b2fe4f6'
p182
aI00
aI00
aNaa(lp183
L7000000000000000000000026046310000L
aL7000000000000000000000026046350000L
aS'ab57c22a-f26a-11e3-b28d-ccd29b2fe4f6'
p184
aI00
aI00
aNaa(lp185
L7000000000000000000000026046350000L
aL7000000000000000000000026046390000L
aS'ab57cbc6-f26a-11e3-b28d-ccd29b2fe4f6'
p186
aI00
aI00
aNaa(lp187
L7000000000000000000000026046390000L
aL7000000000000000000000026046430000L
aS'ab57d530-f26a-11e3-b28d-ccd29b2fe4f6'
p188
aI00
aI00
aNaa(lp189
L7000000000000000000000026046430000L
aL7000000000000000000000026046470000L
aS'ab57de5e-f26a-11e3-b28d-ccd29b2fe4f6'
p190
aI00
aI00
aNaa(lp191
L7000000000000000000000026046470000L
aL7000000000000000000000026046510000L
aS'ab57e75a-f26a-11e3-b28d-ccd29b2fe4f6'
p192
aI00
aI00
aNaa(lp193
L7000000000000000000000026046510000L
aL7000000000000000000000026046550000L
aS'ab57f02e-f26a-11e3-b28d-ccd29b2fe4f6'
p194
aI00
aI00
aNaa(lp195
L7000000000000000000000026046550000L
aL7000000000000000000000026046590000L
aS'ab57f93e-f26a-11e3-b28d-ccd29b2fe4f6'
p196
aI00
aI00
aNaa(lp197
L7000000000000000000000026046590000L
aL7000000000000000000000026046630000L
aS'ab580230-f26a-11e3-b28d-ccd29b2fe4f6'
p198
aI00
aI00
aNaa(lp199
L7000000000000000000000026046630000L
aL7000000000000000000000026046670000L
aS'ab580b22-f26a-11e3-b28d-ccd29b2fe4f6'
p200
aI00
aI00
aNaa(lp201
L7000000000000000000000026046670000L
aL7000000000000000000000026046710000L
aS'ab5813f6-f26a-11e3-b28d-ccd29b2fe4f6'
p202
aI00
aI00
aNaa(lp203
L7000000000000000000000026046710000L
aL7000000000000000000000026046750000L
aS'ab581cfc-f26a-11e3-b28d-ccd29b2fe4f6'
p204
aI00
aI00
aNaa.