(lp1
(lp2
L7000000000000000000000065320133083L
aL7000000000000000000000065320533083L
aS'49c5829e-fbdf-11e3-8102-ccd29b2fe4f6'
p3
aI01
aI01
aS'4870730e-f7c0-11e3-8173-00e053135587'
p4
aa(lp5
L7000000000000000000000065320533083L
aL7000000000000000000000065320933083L
aS'49c59810-fbdf-11e3-8102-ccd29b2fe4f6'
p6
aI01
aI01
aS'66d09644-f7c0-11e3-9beb-5404a6372add'
p7
aa(lp8
L7000000000000000000000065320933083L
aL7000000000000000000000065321333083L
aS'49c5acd8-fbdf-11e3-8102-ccd29b2fe4f6'
p9
aI01
aI01
aS'6059fa9e-f7c0-11e3-8c3a-5404a6372add'
p10
aa(lp11
L7000000000000000000000065321333083L
aL7000000000000000000000065321733083L
aS'49c5b8fe-fbdf-11e3-8102-ccd29b2fe4f6'
p12
aI01
aI01
aS'5fd14654-f7c0-11e3-bd92-5404a6372add'
p13
aa(lp14
L7000000000000000000000065321733083L
aL7000000000000000000000065322133083L
aS'49c5c70e-fbdf-11e3-8102-ccd29b2fe4f6'
p15
aI01
aI01
aS'39db6900-f7ef-11e3-b031-a3b0e3825347'
p16
aa(lp17
L7000000000000000000000065322133083L
aL7000000000000000000000065322533083L
aS'49c5d2c6-fbdf-11e3-8102-ccd29b2fe4f6'
p18
aI01
aI01
aS'5d9647a2-f7ef-11e3-b031-c7d12f351c70'
p19
aa(lp20
L7000000000000000000000065322533083L
aL7000000000000000000000065322933083L
aS'49c5dd8e-fbdf-11e3-8102-ccd29b2fe4f6'
p21
aI01
aI01
aS'74e81f02-f7ef-11e3-b031-57b3b5f7965f'
p22
aa(lp23
L7000000000000000000000065322933083L
aL7000000000000000000000065323333083L
aS'49c5e7c0-fbdf-11e3-8102-ccd29b2fe4f6'
p24
aI01
aI01
aS'64e24560-f7ef-11e3-b031-6328b648429f'
p25
aa(lp26
L7000000000000000000000065323333083L
aL7000000000000000000000065323733083L
aS'49c5f5d0-fbdf-11e3-8102-ccd29b2fe4f6'
p27
aI01
aI01
aS'81ac6054-f7ef-11e3-b031-15fb80904113'
p28
aa(lp29
L7000000000000000000000065323733083L
aL7000000000000000000000065324133083L
aS'49c60048-fbdf-11e3-8102-ccd29b2fe4f6'
p30
aI01
aI01
aS'3150c5a2-f7c0-11e3-b225-001cc0bffc9f'
p31
aa(lp32
L7000000000000000000000065324133083L
aL7000000000000000000000065324533083L
aS'49c60a8e-fbdf-11e3-8102-ccd29b2fe4f6'
p33
aI01
aI01
aS'71b4e054-f7ef-11e3-b031-1150fe97b6a5'
p34
aa(lp35
L7000000000000000000000065324533083L
aL7000000000000000000000065324933083L
aS'49c617cc-fbdf-11e3-8102-ccd29b2fe4f6'
p36
aI01
aI01
aS'60db2ab4-f7e9-11e3-9436-000c29e250a1'
p37
aa(lp38
L7000000000000000000000065324933083L
aL7000000000000000000000065325333083L
aS'49c67a00-fbdf-11e3-8102-ccd29b2fe4f6'
p39
aI01
aI01
aS'0409a7bc-f7ed-11e3-8c97-bcaec562e169'
p40
aa(lp41
L7000000000000000000000065325333083L
aL7000000000000000000000065325733083L
aS'49c6903a-fbdf-11e3-8102-ccd29b2fe4f6'
p42
aI01
aI01
aS'60cf8398-f7ef-11e3-b031-9be104d90b2b'
p43
aa(lp44
L7000000000000000000000065325733083L
aL7000000000000000000000065326133083L
aS'49c6a1d8-fbdf-11e3-8102-ccd29b2fe4f6'
p45
aI01
aI01
aS'2f85c9de-f7c0-11e3-90f6-001cc0bffc9f'
p46
aa(lp47
L7000000000000000000000065326133083L
aL7000000000000000000000065326533083L
aS'49c6b4ac-fbdf-11e3-8102-ccd29b2fe4f6'
p48
aI01
aI01
aS'5df74a4a-f7c0-11e3-94c7-5404a6372add'
p49
aa(lp50
L7000000000000000000000065326533083L
aL7000000000000000000000065326933083L
aS'49c6c1c2-fbdf-11e3-8102-ccd29b2fe4f6'
p51
aI01
aI01
aS'60037132-f7e9-11e3-b323-000c29e250a1'
p52
aa(lp53
L7000000000000000000000065326933083L
aL7000000000000000000000065327333083L
aS'49c6d7f2-fbdf-11e3-8102-ccd29b2fe4f6'
p54
aI01
aI01
aS'2a3cb260-f7ef-11e3-b031-37ac895e792a'
p55
aa(lp56
L7000000000000000000000065327333083L
aL7000000000000000000000065327733083L
aS'49c6ef9e-fbdf-11e3-8102-ccd29b2fe4f6'
p57
aI01
aI01
aS'5dc4b5fc-f7e9-11e3-ab38-000c29e250a1'
p58
aa(lp59
L7000000000000000000000065327733083L
aL7000000000000000000000065328133083L
aS'49c7083a-fbdf-11e3-8102-ccd29b2fe4f6'
p60
aI01
aI01
aS'5f0eea22-f7e9-11e3-8475-000c29e250a1'
p61
aa(lp62
L7000000000000000000000065328133083L
aL7000000000000000000000065328533083L
aS'49c715b4-fbdf-11e3-8102-ccd29b2fe4f6'
p63
aI01
aI01
aS'663a5cf6-f7c0-11e3-8e94-5404a6372add'
p64
aa(lp65
L7000000000000000000000065328533083L
aL7000000000000000000000065328933083L
aS'49c7248c-fbdf-11e3-8102-ccd29b2fe4f6'
p66
aI01
aI01
aS'65bcb5b2-f7c0-11e3-a574-5404a6372add'
p67
aa(lp68
L7000000000000000000000065328933083L
aL7000000000000000000000065329333083L
aS'49c73206-fbdf-11e3-8102-ccd29b2fe4f6'
p69
aI01
aI01
aS'643555fa-f7c0-11e3-be64-5404a6372add'
p70
aa(lp71
L7000000000000000000000065329333083L
aL7000000000000000000000065329733083L
aS'49c73e0e-fbdf-11e3-8102-ccd29b2fe4f6'
p72
aI01
aI01
aS'5ffd23ac-fbd3-11e3-93fc-bcaec562e169'
p73
aa(lp74
L7000000000000000000000065329733083L
aL7000000000000000000000065330133083L
aS'49c74bce-fbdf-11e3-8102-ccd29b2fe4f6'
p75
aI01
aI01
aS'6309116c-f7c0-11e3-9bf9-5404a6372add'
p76
aa(lp77
L7000000000000000000000065330133083L
aL7000000000000000000000065330533083L
aS'49c757fe-fbdf-11e3-8102-ccd29b2fe4f6'
p78
aI01
aI01
aS'64b23c28-f7c0-11e3-8272-5404a6372add'
p79
aa(lp80
L7000000000000000000000065330533083L
aL7000000000000000000000065330933083L
aS'49c76302-fbdf-11e3-8102-ccd29b2fe4f6'
p81
aI01
aI01
aS'628c92cc-f7c0-11e3-a05e-5404a6372add'
p82
aa(lp83
L7000000000000000000000065330933083L
aL7000000000000000000000065331333083L
aS'49c76d02-fbdf-11e3-8102-ccd29b2fe4f6'
p84
aI01
aI01
aS'60fc5d3e-f7c0-11e3-bcc6-5404a6372add'
p85
aa(lp86
L7000000000000000000000065331333083L
aL7000000000000000000000065331733083L
aS'49c77aa4-fbdf-11e3-8102-ccd29b2fe4f6'
p87
aI01
aI01
aS'5f071938-f7c0-11e3-ab3a-5404a6372add'
p88
aa(lp89
L7000000000000000000000065331733083L
aL7000000000000000000000065332133083L
aS'49c78512-fbdf-11e3-8102-ccd29b2fe4f6'
p90
aI01
aI01
aS'63b15f48-f7c0-11e3-a0b3-5404a6372add'
p91
aa(lp92
L7000000000000000000000065332133083L
aL7000000000000000000000065332533083L
aS'49c78f76-fbdf-11e3-8102-ccd29b2fe4f6'
p93
aI01
aI01
aS'65285926-f7c0-11e3-91f4-5404a6372add'
p94
aa(lp95
L7000000000000000000000065332533083L
aL7000000000000000000000065332933083L
aS'49c79c5a-fbdf-11e3-8102-ccd29b2fe4f6'
p96
aI01
aI01
aS'61f40dd6-f7c0-11e3-b620-5404a6372add'
p97
aa(lp98
L7000000000000000000000065332933083L
aL7000000000000000000000065333333083L
aS'49c7a786-fbdf-11e3-8102-ccd29b2fe4f6'
p99
aI01
aI01
aS'6164d760-f7c0-11e3-bdf0-5404a6372add'
p100
aa(lp101
L7000000000000000000000065333333083L
aL7000000000000000000000065333733083L
aS'49c7b1cc-fbdf-11e3-8102-ccd29b2fe4f6'
p102
aI01
aI01
aS'66d09644-f7c0-11e3-9beb-5404a6372add'
p103
aa(lp104
L7000000000000000000000065333733083L
aL7000000000000000000000065334133083L
aS'49c7bc44-fbdf-11e3-8102-ccd29b2fe4f6'
p105
aI01
aI01
aS'39db6900-f7ef-11e3-b031-a3b0e3825347'
p106
aa(lp107
L7000000000000000000000065334133083L
aL7000000000000000000000065334533083L
aS'49c7c9d2-fbdf-11e3-8102-ccd29b2fe4f6'
p108
aI01
aI01
aS'64e24560-f7ef-11e3-b031-6328b648429f'
p109
aa(lp110
L7000000000000000000000065334533083L
aL7000000000000000000000065334933083L
aS'49c7d4d6-fbdf-11e3-8102-ccd29b2fe4f6'
p111
aI01
aI01
aS'74e81f02-f7ef-11e3-b031-57b3b5f7965f'
p112
aa(lp113
L7000000000000000000000065334933083L
aL7000000000000000000000065335333083L
aS'49c7decc-fbdf-11e3-8102-ccd29b2fe4f6'
p114
aI01
aI01
aS'81ac6054-f7ef-11e3-b031-15fb80904113'
p115
aa(lp116
L7000000000000000000000065335333083L
aL7000000000000000000000065335733083L
aS'49c7eb9c-fbdf-11e3-8102-ccd29b2fe4f6'
p117
aI01
aI01
aS'5d9647a2-f7ef-11e3-b031-c7d12f351c70'
p118
aa(lp119
L7000000000000000000000065335733083L
aL7000000000000000000000065336133083L
aS'49c7f678-fbdf-11e3-8102-ccd29b2fe4f6'
p120
aI01
aI01
aS'6059fa9e-f7c0-11e3-8c3a-5404a6372add'
p121
aa(lp122
L7000000000000000000000065336133083L
aL7000000000000000000000065336533083L
aS'49c80064-fbdf-11e3-8102-ccd29b2fe4f6'
p123
aI01
aI01
aS'71b4e054-f7ef-11e3-b031-1150fe97b6a5'
p124
aa(lp125
L7000000000000000000000065336533083L
aL7000000000000000000000065336933083L
aS'49c80a32-fbdf-11e3-8102-ccd29b2fe4f6'
p126
aI01
aI01
aS'5fd14654-f7c0-11e3-bd92-5404a6372add'
p127
aa(lp128
L7000000000000000000000065336933083L
aL7000000000000000000000065337333083L
aS'49c81734-fbdf-11e3-8102-ccd29b2fe4f6'
p129
aI01
aI01
aS'3150c5a2-f7c0-11e3-b225-001cc0bffc9f'
p130
aa(lp131
L7000000000000000000000065337333083L
aL7000000000000000000000065337733083L
aS'49c82184-fbdf-11e3-8102-ccd29b2fe4f6'
p132
aI01
aI01
aS'60cf8398-f7ef-11e3-b031-9be104d90b2b'
p133
aa(lp134
L7000000000000000000000065337733083L
aL7000000000000000000000065338133083L
aS'49c82b7a-fbdf-11e3-8102-ccd29b2fe4f6'
p135
aI01
aI01
aS'0409a7bc-f7ed-11e3-8c97-bcaec562e169'
p136
aa(lp137
L7000000000000000000000065338133083L
aL7000000000000000000000065338533083L
aS'49c837b4-fbdf-11e3-8102-ccd29b2fe4f6'
p138
aI01
aI01
aS'2f85c9de-f7c0-11e3-90f6-001cc0bffc9f'
p139
aa(lp140
L7000000000000000000000065338533083L
aL7000000000000000000000065338933083L
aS'49c84290-fbdf-11e3-8102-ccd29b2fe4f6'
p141
aI01
aI01
aS'2a3cb260-f7ef-11e3-b031-37ac895e792a'
p142
aa(lp143
L7000000000000000000000065338933083L
aL7000000000000000000000065339333083L
aS'49c84ca4-fbdf-11e3-8102-ccd29b2fe4f6'
p144
aI01
aI01
aS'5df74a4a-f7c0-11e3-94c7-5404a6372add'
p145
aa(lp146
L7000000000000000000000065339333083L
aL7000000000000000000000065339733083L
aS'49c856b8-fbdf-11e3-8102-ccd29b2fe4f6'
p147
aI01
aI01
aS'60db2ab4-f7e9-11e3-9436-000c29e250a1'
p148
aa(lp149
L7000000000000000000000065339733083L
aL7000000000000000000000065340133083L
aS'49c864a0-fbdf-11e3-8102-ccd29b2fe4f6'
p150
aI01
aI01
aS'5ffd23ac-fbd3-11e3-93fc-bcaec562e169'
p151
aa(lp152
L7000000000000000000000065340133083L
aL7000000000000000000000065340533083L
aS'49c86ec8-fbdf-11e3-8102-ccd29b2fe4f6'
p153
aI01
aI01
aS'65bcb5b2-f7c0-11e3-a574-5404a6372add'
p154
aa(lp155
L7000000000000000000000065340533083L
aL7000000000000000000000065340933083L
aS'49c878aa-fbdf-11e3-8102-ccd29b2fe4f6'
p156
aI01
aI01
aS'60037132-f7e9-11e3-b323-000c29e250a1'
p157
aa(lp158
L7000000000000000000000065340933083L
aL7000000000000000000000065341333083L
aS'49c884c6-fbdf-11e3-8102-ccd29b2fe4f6'
p159
aI01
aI01
aS'663a5cf6-f7c0-11e3-8e94-5404a6372add'
p160
aa(lp161
L7000000000000000000000065341333083L
aL7000000000000000000000065341733083L
aS'49c88ff2-fbdf-11e3-8102-ccd29b2fe4f6'
p162
aI01
aI01
aS'643555fa-f7c0-11e3-be64-5404a6372add'
p163
aa(lp164
L7000000000000000000000065341733083L
aL7000000000000000000000065342133083L
aS'49c89a06-fbdf-11e3-8102-ccd29b2fe4f6'
p165
aI01
aI01
aS'6309116c-f7c0-11e3-9bf9-5404a6372add'
p166
aa(lp167
L7000000000000000000000065342133083L
aL7000000000000000000000065342533083L
aS'49c8a398-fbdf-11e3-8102-ccd29b2fe4f6'
p168
aI01
aI01
aS'64b23c28-f7c0-11e3-8272-5404a6372add'
p169
aa(lp170
L7000000000000000000000065342533083L
aL7000000000000000000000065342933083L
aS'49c8b3d8-fbdf-11e3-8102-ccd29b2fe4f6'
p171
aI01
aI01
aS'74e81f02-f7ef-11e3-b031-57b3b5f7965f'
p172
aa(lp173
L7000000000000000000000065342933083L
aL7000000000000000000000065343333083L
aS'49c8bf22-fbdf-11e3-8102-ccd29b2fe4f6'
p174
aI01
aI01
aS'628c92cc-f7c0-11e3-a05e-5404a6372add'
p175
aa(lp176
L7000000000000000000000065343333083L
aL7000000000000000000000065343733083L
aS'49c8c954-fbdf-11e3-8102-ccd29b2fe4f6'
p177
aI01
aI01
aS'81ac6054-f7ef-11e3-b031-15fb80904113'
p178
aa(lp179
L7000000000000000000000065343733083L
aL7000000000000000000000065344133083L
aS'49c8e04c-fbdf-11e3-8102-ccd29b2fe4f6'
p180
aI01
aI01
aS'5d9647a2-f7ef-11e3-b031-c7d12f351c70'
p181
aa(lp182
L7000000000000000000000065344133083L
aL7000000000000000000000065344533083L
aS'49c8ece0-fbdf-11e3-8102-ccd29b2fe4f6'
p183
aI01
aI01
aS'64e24560-f7ef-11e3-b031-6328b648429f'
p184
aa(lp185
L7000000000000000000000065344533083L
aL7000000000000000000000065344933083L
aS'49c8fabe-fbdf-11e3-8102-ccd29b2fe4f6'
p186
aI01
aI01
aS'39db6900-f7ef-11e3-b031-a3b0e3825347'
p187
aa(lp188
L7000000000000000000000065344933083L
aL7000000000000000000000065345333083L
aS'49c9064e-fbdf-11e3-8102-ccd29b2fe4f6'
p189
aI01
aI01
aS'60fc5d3e-f7c0-11e3-bcc6-5404a6372add'
p190
aa(lp191
L7000000000000000000000065345333083L
aL7000000000000000000000065345733083L
aS'49c9109e-fbdf-11e3-8102-ccd29b2fe4f6'
p192
aI01
aI01
aS'5dc4b5fc-f7e9-11e3-ab38-000c29e250a1'
p193
aa(lp194
L7000000000000000000000065345733083L
aL7000000000000000000000065346133083L
aS'49c91a4e-fbdf-11e3-8102-ccd29b2fe4f6'
p195
aI01
aI01
aS'63b15f48-f7c0-11e3-a0b3-5404a6372add'
p196
aa(lp197
L7000000000000000000000065346133083L
aL7000000000000000000000065346533083L
aS'49c927b4-fbdf-11e3-8102-ccd29b2fe4f6'
p198
aI01
aI01
aS'5f0eea22-f7e9-11e3-8475-000c29e250a1'
p199
aa(lp200
L7000000000000000000000065346533083L
aL7000000000000000000000065346933083L
aS'49c93236-fbdf-11e3-8102-ccd29b2fe4f6'
p201
aI01
aI01
aS'66d09644-f7c0-11e3-9beb-5404a6372add'
p202
aa(lp203
L7000000000000000000000065346933083L
aL7000000000000000000000065347333083L
aS'49c93c18-fbdf-11e3-8102-ccd29b2fe4f6'
p204
aI01
aI01
aS'71b4e054-f7ef-11e3-b031-1150fe97b6a5'
p205
aa(lp206
L7000000000000000000000065347333083L
aL7000000000000000000000065347733083L
aS'49c94834-fbdf-11e3-8102-ccd29b2fe4f6'
p207
aI01
aI01
aS'65285926-f7c0-11e3-91f4-5404a6372add'
p208
aa(lp209
L7000000000000000000000065347733083L
aL7000000000000000000000065348133083L
aS'49c9536a-fbdf-11e3-8102-ccd29b2fe4f6'
p210
aI01
aI01
aS'439a1ff6-f7c0-11e3-bb9f-00e053135587'
p211
aa(lp212
L7000000000000000000000065348133083L
aL7000000000000000000000065348533083L
aS'49c95d6a-fbdf-11e3-8102-ccd29b2fe4f6'
p213
aI01
aI01
aS'5f071938-f7c0-11e3-ab3a-5404a6372add'
p214
aa(lp215
L7000000000000000000000065348533083L
aL7000000000000000000000065348933083L
aS'49c9674c-fbdf-11e3-8102-ccd29b2fe4f6'
p216
aI01
aI01
aS'61f40dd6-f7c0-11e3-b620-5404a6372add'
p217
aa(lp218
L7000000000000000000000065348933083L
aL7000000000000000000000065349333083L
aS'49c97462-fbdf-11e3-8102-ccd29b2fe4f6'
p219
aI01
aI01
aS'49a8a4a8-f7c0-11e3-b4e4-00e053135587'
p220
aa(lp221
L7000000000000000000000065349333083L
aL7000000000000000000000065349733083L
aS'49c97ee4-fbdf-11e3-8102-ccd29b2fe4f6'
p222
aI01
aI01
aS'47579420-f7c0-11e3-be54-00e053135587'
p223
aa(lp224
L7000000000000000000000065349733083L
aL7000000000000000000000065350133083L
aS'49c988d0-fbdf-11e3-8102-ccd29b2fe4f6'
p225
aI01
aI01
aS'6164d760-f7c0-11e3-bdf0-5404a6372add'
p226
aa(lp227
L7000000000000000000000065350133083L
aL7000000000000000000000065350533083L
aS'49c992d0-fbdf-11e3-8102-ccd29b2fe4f6'
p228
aI01
aI01
aS'462c5856-f7c0-11e3-935f-00e053135587'
p229
aa(lp230
L7000000000000000000000065350533083L
aL7000000000000000000000065350933083L
aS'49c9a05e-fbdf-11e3-8102-ccd29b2fe4f6'
p231
aI01
aI01
aS'60cf8398-f7ef-11e3-b031-9be104d90b2b'
p232
aa(lp233
L7000000000000000000000065350933083L
aL7000000000000000000000065351333083L
aS'49c9aa9a-fbdf-11e3-8102-ccd29b2fe4f6'
p234
aI01
aI01
aS'3150c5a2-f7c0-11e3-b225-001cc0bffc9f'
p235
aa(lp236
L7000000000000000000000065351333083L
aL7000000000000000000000065351733083L
aS'49c9b472-fbdf-11e3-8102-ccd29b2fe4f6'
p237
aI01
aI01
aS'4ad4d022-f7c0-11e3-be8c-00e053135587'
p238
aa(lp239
L7000000000000000000000065351733083L
aL7000000000000000000000065352133083L
aS'49c9c16a-fbdf-11e3-8102-ccd29b2fe4f6'
p240
aI01
aI01
aS'0409a7bc-f7ed-11e3-8c97-bcaec562e169'
p241
aa(lp242
L7000000000000000000000065352133083L
aL7000000000000000000000065352533083L
aS'49c9cca0-fbdf-11e3-8102-ccd29b2fe4f6'
p243
aI01
aI01
aS'6059fa9e-f7c0-11e3-8c3a-5404a6372add'
p244
aa(lp245
L7000000000000000000000065352533083L
aL7000000000000000000000065352933083L
aS'49c9d6aa-fbdf-11e3-8102-ccd29b2fe4f6'
p246
aI01
aI01
aS'491601e8-f7c0-11e3-9652-00e053135587'
p247
aa(lp248
L7000000000000000000000065352933083L
aL7000000000000000000000065353333083L
aS'49c9e028-fbdf-11e3-8102-ccd29b2fe4f6'
p249
aI01
aI01
aS'2f85c9de-f7c0-11e3-90f6-001cc0bffc9f'
p250
aa(lp251
L7000000000000000000000065353333083L
aL7000000000000000000000065353733083L
aS'49c9ed34-fbdf-11e3-8102-ccd29b2fe4f6'
p252
aI01
aI01
aS'5fd14654-f7c0-11e3-bd92-5404a6372add'
p253
aa(lp254
L7000000000000000000000065353733083L
aL7000000000000000000000065354133083L
aS'49c9f7a2-fbdf-11e3-8102-ccd29b2fe4f6'
p255
aI01
aI01
aS'2a3cb260-f7ef-11e3-b031-37ac895e792a'
p256
aa(lp257
L7000000000000000000000065354133083L
aL7000000000000000000000065354533083L
aS'49ca0198-fbdf-11e3-8102-ccd29b2fe4f6'
p258
aI01
aI01
aS'5df74a4a-f7c0-11e3-94c7-5404a6372add'
p259
aa(lp260
L7000000000000000000000065354533083L
aL7000000000000000000000065354933083L
aS'49ca0e54-fbdf-11e3-8102-ccd29b2fe4f6'
p261
aI01
aI01
aS'47cc1bec-f7c0-11e3-9f29-00e053135587'
p262
aa(lp263
L7000000000000000000000065354933083L
aL7000000000000000000000065355333083L
aS'49ca1912-fbdf-11e3-8102-ccd29b2fe4f6'
p264
aI01
aI01
aS'4870730e-f7c0-11e3-8173-00e053135587'
p265
aa(lp266
L7000000000000000000000065355333083L
aL7000000000000000000000065355733083L
aS'49ca2330-fbdf-11e3-8102-ccd29b2fe4f6'
p267
aI01
aI01
aS'5ffd23ac-fbd3-11e3-93fc-bcaec562e169'
p268
aa(lp269
L7000000000000000000000065355733083L
aL7000000000000000000000065356133083L
aS'49ca3230-fbdf-11e3-8102-ccd29b2fe4f6'
p270
aI01
aI01
aS'65bcb5b2-f7c0-11e3-a574-5404a6372add'
p271
aa(lp272
L7000000000000000000000065356133083L
aL7000000000000000000000065356533083L
aS'49ca3f3c-fbdf-11e3-8102-ccd29b2fe4f6'
p273
aI01
aI01
aS'74e81f02-f7ef-11e3-b031-57b3b5f7965f'
p274
aa(lp275
L7000000000000000000000065356533083L
aL7000000000000000000000065356933083L
aS'49ca4a0e-fbdf-11e3-8102-ccd29b2fe4f6'
p276
aI01
aI01
aS'64e24560-f7ef-11e3-b031-6328b648429f'
p277
aa(lp278
L7000000000000000000000065356933083L
aL7000000000000000000000065357333083L
aS'49ca5436-fbdf-11e3-8102-ccd29b2fe4f6'
p279
aI01
aI01
aS'643555fa-f7c0-11e3-be64-5404a6372add'
p280
aa(lp281
L7000000000000000000000065357333083L
aL7000000000000000000000065357733083L
aS'49ca6228-fbdf-11e3-8102-ccd29b2fe4f6'
p282
aI01
aI01
aS'81ac6054-f7ef-11e3-b031-15fb80904113'
p283
aa(lp284
L7000000000000000000000065357733083L
aL7000000000000000000000065358133083L
aS'49ca6cf0-fbdf-11e3-8102-ccd29b2fe4f6'
p285
aI01
aI01
aS'39db6900-f7ef-11e3-b031-a3b0e3825347'
p286
aa(lp287
L7000000000000000000000065358133083L
aL7000000000000000000000065358533083L
aS'49ca7722-fbdf-11e3-8102-ccd29b2fe4f6'
p288
aI01
aI01
aS'6309116c-f7c0-11e3-9bf9-5404a6372add'
p289
aa(lp290
L7000000000000000000000065358533083L
aL7000000000000000000000065358933083L
aS'49ca838e-fbdf-11e3-8102-ccd29b2fe4f6'
p291
aI01
aI01
aS'5d9647a2-f7ef-11e3-b031-c7d12f351c70'
p292
aa(lp293
L7000000000000000000000065358933083L
aL7000000000000000000000065359333083L
aS'49ca8e24-fbdf-11e3-8102-ccd29b2fe4f6'
p294
aI01
aI01
aS'663a5cf6-f7c0-11e3-8e94-5404a6372add'
p295
aa(lp296
L7000000000000000000000065359333083L
aL7000000000000000000000065359733083L
aS'49ca97d4-fbdf-11e3-8102-ccd29b2fe4f6'
p297
aI01
aI01
aS'3150c5a2-f7c0-11e3-b225-001cc0bffc9f'
p298
aa(lp299
L7000000000000000000000065359733083L
aL7000000000000000000000065360133083L
aS'49caa12a-fbdf-11e3-8102-ccd29b2fe4f6'
p300
aI01
aI01
aS'71b4e054-f7ef-11e3-b031-1150fe97b6a5'
p301
aa(lp302
L7000000000000000000000065360133083L
aL7000000000000000000000065360533083L
aS'49caae4a-fbdf-11e3-8102-ccd29b2fe4f6'
p303
aI01
aI01
aS'60fc5d3e-f7c0-11e3-bcc6-5404a6372add'
p304
aa(lp305
L7000000000000000000000065360533083L
aL7000000000000000000000065360933083L
aS'49cab8b8-fbdf-11e3-8102-ccd29b2fe4f6'
p306
aI01
aI01
aS'2f85c9de-f7c0-11e3-90f6-001cc0bffc9f'
p307
aa(lp308
L7000000000000000000000065360933083L
aL7000000000000000000000065361333083L
aS'49cac29a-fbdf-11e3-8102-ccd29b2fe4f6'
p309
aI01
aI01
aS'64b23c28-f7c0-11e3-8272-5404a6372add'
p310
aa(lp311
L7000000000000000000000065361333083L
aL7000000000000000000000065361733083L
aS'49cad99c-fbdf-11e3-8102-ccd29b2fe4f6'
p312
aI01
aI01
aS'628c92cc-f7c0-11e3-a05e-5404a6372add'
p313
aa(lp314
L7000000000000000000000065361733083L
aL7000000000000000000000065362133083L
aS'49cae856-fbdf-11e3-8102-ccd29b2fe4f6'
p315
aI01
aI01
aS'60db2ab4-f7e9-11e3-9436-000c29e250a1'
p316
aa(lp317
L7000000000000000000000065362133083L
aL7000000000000000000000065362533083L
aS'49caf6c0-fbdf-11e3-8102-ccd29b2fe4f6'
p318
aI01
aI01
aS'66d09644-f7c0-11e3-9beb-5404a6372add'
p319
aa(lp320
L7000000000000000000000065362533083L
aL7000000000000000000000065362933083L
aS'49cb032c-fbdf-11e3-8102-ccd29b2fe4f6'
p321
aI01
aI01
aS'60cf8398-f7ef-11e3-b031-9be104d90b2b'
p322
aa(lp323
L7000000000000000000000065362933083L
aL7000000000000000000000065363333083L
aS'49cb0e76-fbdf-11e3-8102-ccd29b2fe4f6'
p324
aI01
aI01
aS'63b15f48-f7c0-11e3-a0b3-5404a6372add'
p325
aa(lp326
L7000000000000000000000065363333083L
aL7000000000000000000000065363733083L
aS'49cb18ee-fbdf-11e3-8102-ccd29b2fe4f6'
p327
aI01
aI01
aS'65285926-f7c0-11e3-91f4-5404a6372add'
p328
aa(lp329
L7000000000000000000000065363733083L
aL7000000000000000000000065364133083L
aS'49cb2726-fbdf-11e3-8102-ccd29b2fe4f6'
p330
aI01
aI01
aS'60037132-f7e9-11e3-b323-000c29e250a1'
p331
aa(lp332
L7000000000000000000000065364133083L
aL7000000000000000000000065364533083L
aS'49cb31b2-fbdf-11e3-8102-ccd29b2fe4f6'
p333
aI01
aI01
aS'61f40dd6-f7c0-11e3-b620-5404a6372add'
p334
aa(lp335
L7000000000000000000000065364533083L
aL7000000000000000000000065364933083L
aS'49cb3b9e-fbdf-11e3-8102-ccd29b2fe4f6'
p336
aI01
aI01
aS'0409a7bc-f7ed-11e3-8c97-bcaec562e169'
p337
aa(lp338
L7000000000000000000000065364933083L
aL7000000000000000000000065365333083L
aS'49cb488c-fbdf-11e3-8102-ccd29b2fe4f6'
p339
aI01
aI01
aS'5f071938-f7c0-11e3-ab3a-5404a6372add'
p340
aa(lp341
L7000000000000000000000065365333083L
aL7000000000000000000000065365733083L
aS'49cb5336-fbdf-11e3-8102-ccd29b2fe4f6'
p342
aI01
aI01
aS'6164d760-f7c0-11e3-bdf0-5404a6372add'
p343
aa(lp344
L7000000000000000000000065365733083L
aL7000000000000000000000065366133083L
aS'49cb5d40-fbdf-11e3-8102-ccd29b2fe4f6'
p345
aI01
aI01
aS'6059fa9e-f7c0-11e3-8c3a-5404a6372add'
p346
aa(lp347
L7000000000000000000000065366133083L
aL7000000000000000000000065366533083L
aS'49cb66d2-fbdf-11e3-8102-ccd29b2fe4f6'
p348
aI01
aI01
aS'2a3cb260-f7ef-11e3-b031-37ac895e792a'
p349
aa(lp350
L7000000000000000000000065366533083L
aL7000000000000000000000065366933083L
aS'49cb73d4-fbdf-11e3-8102-ccd29b2fe4f6'
p351
aI01
aI01
aS'5dc4b5fc-f7e9-11e3-ab38-000c29e250a1'
p352
aa(lp353
L7000000000000000000000065366933083L
aL7000000000000000000000065367333083L
aS'49cb7df2-fbdf-11e3-8102-ccd29b2fe4f6'
p354
aI01
aI01
aS'5f0eea22-f7e9-11e3-8475-000c29e250a1'
p355
aa(lp356
L7000000000000000000000065367333083L
aL7000000000000000000000065367733083L
aS'49cb87a2-fbdf-11e3-8102-ccd29b2fe4f6'
p357
aI01
aI01
aS'5fd14654-f7c0-11e3-bd92-5404a6372add'
p358
aa(lp359
L7000000000000000000000065367733083L
aL7000000000000000000000065368133083L
aS'49cb9396-fbdf-11e3-8102-ccd29b2fe4f6'
p360
aI01
aI01
aS'5df74a4a-f7c0-11e3-94c7-5404a6372add'
p361
aa(lp362
L7000000000000000000000065368133083L
aL7000000000000000000000065368533083L
aS'49cb9ea4-fbdf-11e3-8102-ccd29b2fe4f6'
p363
aI01
aI01
aS'5ffd23ac-fbd3-11e3-93fc-bcaec562e169'
p364
aa(lp365
L7000000000000000000000065368533083L
aL7000000000000000000000065368933083L
aS'49cba8ea-fbdf-11e3-8102-ccd29b2fe4f6'
p366
aI01
aI01
aS'64e24560-f7ef-11e3-b031-6328b648429f'
p367
aa(lp368
L7000000000000000000000065368933083L
aL7000000000000000000000065369333083L
aS'49cbb2b8-fbdf-11e3-8102-ccd29b2fe4f6'
p369
aI01
aI01
aS'74e81f02-f7ef-11e3-b031-57b3b5f7965f'
p370
aa(lp371
L7000000000000000000000065369333083L
aL7000000000000000000000065369733083L
aS'49cbe044-fbdf-11e3-8102-ccd29b2fe4f6'
p372
aI01
aI01
aS'81ac6054-f7ef-11e3-b031-15fb80904113'
p373
aa(lp374
L7000000000000000000000065369733083L
aL7000000000000000000000065370133083L
aS'49cbf25a-fbdf-11e3-8102-ccd29b2fe4f6'
p375
aI01
aI01
aS'3150c5a2-f7c0-11e3-b225-001cc0bffc9f'
p376
aa(lp377
L7000000000000000000000065370133083L
aL7000000000000000000000065370533083L
aS'49cbfe8a-fbdf-11e3-8102-ccd29b2fe4f6'
p378
aI01
aI01
aS'39db6900-f7ef-11e3-b031-a3b0e3825347'
p379
aa(lp380
L7000000000000000000000065370533083L
aL7000000000000000000000065370933083L
aS'49cc08ee-fbdf-11e3-8102-ccd29b2fe4f6'
p381
aI01
aI01
aS'5d9647a2-f7ef-11e3-b031-c7d12f351c70'
p382
aa(lp383
L7000000000000000000000065370933083L
aL7000000000000000000000065371333083L
aS'49cc164a-fbdf-11e3-8102-ccd29b2fe4f6'
p384
aI01
aI01
aS'71b4e054-f7ef-11e3-b031-1150fe97b6a5'
p385
aa(lp386
L7000000000000000000000065371333083L
aL7000000000000000000000065371733083L
aS'49cc21d0-fbdf-11e3-8102-ccd29b2fe4f6'
p387
aI01
aI01
aS'2f85c9de-f7c0-11e3-90f6-001cc0bffc9f'
p388
aa(lp389
L7000000000000000000000065371733083L
aL7000000000000000000000065372133083L
aS'49cc2c0c-fbdf-11e3-8102-ccd29b2fe4f6'
p390
aI01
aI01
aS'65bcb5b2-f7c0-11e3-a574-5404a6372add'
p391
aa(lp392
L7000000000000000000000065372133083L
aL7000000000000000000000065372533083L
aS'49cc360c-fbdf-11e3-8102-ccd29b2fe4f6'
p393
aI01
aI01
aS'6309116c-f7c0-11e3-9bf9-5404a6372add'
p394
aa(lp395
L7000000000000000000000065372533083L
aL7000000000000000000000065372933083L
aS'49cc4390-fbdf-11e3-8102-ccd29b2fe4f6'
p396
aI01
aI01
aS'663a5cf6-f7c0-11e3-8e94-5404a6372add'
p397
aa(lp398
L7000000000000000000000065372933083L
aL7000000000000000000000065373333083L
aS'49cc4e58-fbdf-11e3-8102-ccd29b2fe4f6'
p399
aI01
aI01
aS'60cf8398-f7ef-11e3-b031-9be104d90b2b'
p400
aa(lp401
L7000000000000000000000065373333083L
aL7000000000000000000000065373733083L
aS'49cc5876-fbdf-11e3-8102-ccd29b2fe4f6'
p402
aI01
aI01
aS'643555fa-f7c0-11e3-be64-5404a6372add'
p403
aa(lp404
L7000000000000000000000065373733083L
aL7000000000000000000000065374133083L
aS'49cc6532-fbdf-11e3-8102-ccd29b2fe4f6'
p405
aI01
aI01
aS'60fc5d3e-f7c0-11e3-bcc6-5404a6372add'
p406
aa(lp407
L7000000000000000000000065374133083L
aL7000000000000000000000065374533083L
aS'49cc7040-fbdf-11e3-8102-ccd29b2fe4f6'
p408
aI01
aI01
aS'0409a7bc-f7ed-11e3-8c97-bcaec562e169'
p409
aa(lp410
L7000000000000000000000065374533083L
aL7000000000000000000000065374933083L
aS'49cc7afe-fbdf-11e3-8102-ccd29b2fe4f6'
p411
aI01
aI01
aS'63b15f48-f7c0-11e3-a0b3-5404a6372add'
p412
aa(lp413
L7000000000000000000000065374933083L
aL7000000000000000000000065375333083L
aS'49cc84e0-fbdf-11e3-8102-ccd29b2fe4f6'
p414
aI01
aI01
aS'64b23c28-f7c0-11e3-8272-5404a6372add'
p415
aa(lp416
L7000000000000000000000065375333083L
aL7000000000000000000000065375733083L
aS'49cc91c4-fbdf-11e3-8102-ccd29b2fe4f6'
p417
aI01
aI01
aS'2a3cb260-f7ef-11e3-b031-37ac895e792a'
p418
aa(lp419
L7000000000000000000000065375733083L
aL7000000000000000000000065376133083L
aS'49cc9bd8-fbdf-11e3-8102-ccd29b2fe4f6'
p420
aI01
aI01
aS'628c92cc-f7c0-11e3-a05e-5404a6372add'
p421
aa(lp422
L7000000000000000000000065376133083L
aL7000000000000000000000065376533083L
aS'49cca5ce-fbdf-11e3-8102-ccd29b2fe4f6'
p423
aI01
aI01
aS'66d09644-f7c0-11e3-9beb-5404a6372add'
p424
aa(lp425
L7000000000000000000000065376533083L
aL7000000000000000000000065376933083L
aS'49ccb1d6-fbdf-11e3-8102-ccd29b2fe4f6'
p426
aI01
aI01
aS'65285926-f7c0-11e3-91f4-5404a6372add'
p427
aa(lp428
L7000000000000000000000065376933083L
aL7000000000000000000000065377333083L
aS'49ccbc94-fbdf-11e3-8102-ccd29b2fe4f6'
p429
aI01
aI01
aS'61f40dd6-f7c0-11e3-b620-5404a6372add'
p430
aa(lp431
L7000000000000000000000065377333083L
aL7000000000000000000000065377733083L
aS'49ccc69e-fbdf-11e3-8102-ccd29b2fe4f6'
p432
aI01
aI01
aS'5f071938-f7c0-11e3-ab3a-5404a6372add'
p433
aa(lp434
L7000000000000000000000065377733083L
aL7000000000000000000000065378133083L
aS'49ccd09e-fbdf-11e3-8102-ccd29b2fe4f6'
p435
aI01
aI01
aS'60db2ab4-f7e9-11e3-9436-000c29e250a1'
p436
aa(lp437
L7000000000000000000000065378133083L
aL7000000000000000000000065378533083L
aS'49ccde22-fbdf-11e3-8102-ccd29b2fe4f6'
p438
aI01
aI01
aS'6164d760-f7c0-11e3-bdf0-5404a6372add'
p439
aa(lp440
L7000000000000000000000065378533083L
aL7000000000000000000000065378933083L
aS'49cce8ae-fbdf-11e3-8102-ccd29b2fe4f6'
p441
aI01
aI01
aS'6059fa9e-f7c0-11e3-8c3a-5404a6372add'
p442
aa(lp443
L7000000000000000000000065378933083L
aL7000000000000000000000065379333083L
aS'49ccf2cc-fbdf-11e3-8102-ccd29b2fe4f6'
p444
aI01
aI01
aS'60037132-f7e9-11e3-b323-000c29e250a1'
p445
aa(lp446
L7000000000000000000000065379333083L
aL7000000000000000000000065379733083L
aS'49ccff2e-fbdf-11e3-8102-ccd29b2fe4f6'
p447
aI01
aI01
aS'74e81f02-f7ef-11e3-b031-57b3b5f7965f'
p448
aa(lp449
L7000000000000000000000065379733083L
aL7000000000000000000000065380133083L
aS'49cd0aa0-fbdf-11e3-8102-ccd29b2fe4f6'
p450
aI01
aI01
aS'64e24560-f7ef-11e3-b031-6328b648429f'
p451
aa(lp452
L7000000000000000000000065380133083L
aL7000000000000000000000065380533083L
aS'49cd1504-fbdf-11e3-8102-ccd29b2fe4f6'
p453
aI01
aI01
aS'81ac6054-f7ef-11e3-b031-15fb80904113'
p454
aa(lp455
L7000000000000000000000065380533083L
aL7000000000000000000000065380933083L
aS'49cd1ee6-fbdf-11e3-8102-ccd29b2fe4f6'
p456
aI01
aI01
aS'39db6900-f7ef-11e3-b031-a3b0e3825347'
p457
aa(lp458
L7000000000000000000000065380933083L
aL7000000000000000000000065381333083L
aS'49cd2bfc-fbdf-11e3-8102-ccd29b2fe4f6'
p459
aI01
aI01
aS'5d9647a2-f7ef-11e3-b031-c7d12f351c70'
p460
aa(lp461
L7000000000000000000000065381333083L
aL7000000000000000000000065381733083L
aS'49cd3660-fbdf-11e3-8102-ccd29b2fe4f6'
p462
aI01
aI01
aS'5fd14654-f7c0-11e3-bd92-5404a6372add'
p463
aa(lp464
L7000000000000000000000065381733083L
aL7000000000000000000000065382133083L
aS'49cd448e-fbdf-11e3-8102-ccd29b2fe4f6'
p465
aI01
aI01
aS'71b4e054-f7ef-11e3-b031-1150fe97b6a5'
p466
aa(lp467
L7000000000000000000000065382133083L
aL7000000000000000000000065382533083L
aS'49cd52d0-fbdf-11e3-8102-ccd29b2fe4f6'
p468
aI01
aI01
aS'3150c5a2-f7c0-11e3-b225-001cc0bffc9f'
p469
aa(lp470
L7000000000000000000000065382533083L
aL7000000000000000000000065382933083L
aS'49cd5d7a-fbdf-11e3-8102-ccd29b2fe4f6'
p471
aI01
aI01
aS'5ffd23ac-fbd3-11e3-93fc-bcaec562e169'
p472
aa(lp473
L7000000000000000000000065382933083L
aL7000000000000000000000065383333083L
aS'49cd6798-fbdf-11e3-8102-ccd29b2fe4f6'
p474
aI01
aI01
aS'5dc4b5fc-f7e9-11e3-ab38-000c29e250a1'
p475
aa(lp476
L7000000000000000000000065383333083L
aL7000000000000000000000065383733083L
aS'49cd73c8-fbdf-11e3-8102-ccd29b2fe4f6'
p477
aI01
aI01
aS'5f0eea22-f7e9-11e3-8475-000c29e250a1'
p478
aa(lp479
L7000000000000000000000065383733083L
aL7000000000000000000000065384133083L
aS'49cd7ee0-fbdf-11e3-8102-ccd29b2fe4f6'
p480
aI01
aI01
aS'5df74a4a-f7c0-11e3-94c7-5404a6372add'
p481
aa(lp482
L7000000000000000000000065384133083L
aL7000000000000000000000065384533083L
aS'49cd88f4-fbdf-11e3-8102-ccd29b2fe4f6'
p483
aI01
aI01
aS'60cf8398-f7ef-11e3-b031-9be104d90b2b'
p484
aa(lp485
L7000000000000000000000065384533083L
aL7000000000000000000000065384933083L
aS'49cd9290-fbdf-11e3-8102-ccd29b2fe4f6'
p486
aI01
aI01
aS'2f85c9de-f7c0-11e3-90f6-001cc0bffc9f'
p487
aa(lp488
L7000000000000000000000065384933083L
aL7000000000000000000000065385333083L
aS'49cd9f4c-fbdf-11e3-8102-ccd29b2fe4f6'
p489
aI01
aI01
aS'47579420-f7c0-11e3-be54-00e053135587'
p490
aa(lp491
L7000000000000000000000065385333083L
aL7000000000000000000000065385733083L
aS'49cda9f6-fbdf-11e3-8102-ccd29b2fe4f6'
p492
aI01
aI01
aS'439a1ff6-f7c0-11e3-bb9f-00e053135587'
p493
aa(lp494
L7000000000000000000000065385733083L
aL7000000000000000000000065386133083L
aS'49cdb432-fbdf-11e3-8102-ccd29b2fe4f6'
p495
aI01
aI01
aS'49a8a4a8-f7c0-11e3-b4e4-00e053135587'
p496
aa(lp497
L7000000000000000000000065386133083L
aL7000000000000000000000065386533083L
aS'49cdbe00-fbdf-11e3-8102-ccd29b2fe4f6'
p498
aI01
aI01
aS'462c5856-f7c0-11e3-935f-00e053135587'
p499
aa(lp500
L7000000000000000000000065386533083L
aL7000000000000000000000065386933083L
aS'49cdcb70-fbdf-11e3-8102-ccd29b2fe4f6'
p501
aI01
aI01
aS'4ad4d022-f7c0-11e3-be8c-00e053135587'
p502
aa(lp503
L7000000000000000000000065386933083L
aL7000000000000000000000065387333083L
aS'49cdd606-fbdf-11e3-8102-ccd29b2fe4f6'
p504
aI01
aI01
aS'6309116c-f7c0-11e3-9bf9-5404a6372add'
p505
aa(lp506
L7000000000000000000000065387333083L
aL7000000000000000000000065387733083L
aS'49cde01a-fbdf-11e3-8102-ccd29b2fe4f6'
p507
aI01
aI01
aS'65bcb5b2-f7c0-11e3-a574-5404a6372add'
p508
aa(lp509
L7000000000000000000000065387733083L
aL7000000000000000000000065388133083L
aS'49cded08-fbdf-11e3-8102-ccd29b2fe4f6'
p510
aI01
aI01
aS'2a3cb260-f7ef-11e3-b031-37ac895e792a'
p511
aa(lp512
L7000000000000000000000065388133083L
aL7000000000000000000000065388533083L
aS'49cdf7da-fbdf-11e3-8102-ccd29b2fe4f6'
p513
aI01
aI01
aS'663a5cf6-f7c0-11e3-8e94-5404a6372add'
p514
aa(lp515
L7000000000000000000000065388533083L
aL7000000000000000000000065388933083L
aS'49ce01bc-fbdf-11e3-8102-ccd29b2fe4f6'
p516
aI01
aI01
aS'491601e8-f7c0-11e3-9652-00e053135587'
p517
aa(lp518
L7000000000000000000000065388933083L
aL7000000000000000000000065389333083L
aS'49ce0b76-fbdf-11e3-8102-ccd29b2fe4f6'
p519
aI01
aI01
aS'0409a7bc-f7ed-11e3-8c97-bcaec562e169'
p520
aa(lp521
L7000000000000000000000065389333083L
aL7000000000000000000000065389733083L
aS'49ce18aa-fbdf-11e3-8102-ccd29b2fe4f6'
p522
aI01
aI01
aS'60fc5d3e-f7c0-11e3-bcc6-5404a6372add'
p523
aa(lp524
L7000000000000000000000065389733083L
aL7000000000000000000000065390133083L
aS'49ce230e-fbdf-11e3-8102-ccd29b2fe4f6'
p525
aI01
aI01
aS'643555fa-f7c0-11e3-be64-5404a6372add'
p526
aa(lp527
L7000000000000000000000065390133083L
aL7000000000000000000000065390533083L
aS'49ce2caa-fbdf-11e3-8102-ccd29b2fe4f6'
p528
aI01
aI01
aS'66d09644-f7c0-11e3-9beb-5404a6372add'
p529
aa(lp530
L7000000000000000000000065390533083L
aL7000000000000000000000065390933083L
aS'49ce392a-fbdf-11e3-8102-ccd29b2fe4f6'
p531
aI01
aI01
aS'65285926-f7c0-11e3-91f4-5404a6372add'
p532
aa(lp533
L7000000000000000000000065390933083L
aL7000000000000000000000065391333083L
aS'49ce43e8-fbdf-11e3-8102-ccd29b2fe4f6'
p534
aI01
aI01
aS'63b15f48-f7c0-11e3-a0b3-5404a6372add'
p535
aa(lp536
L7000000000000000000000065391333083L
aL7000000000000000000000065391733083L
aS'49ce4e06-fbdf-11e3-8102-ccd29b2fe4f6'
p537
aI01
aI01
aS'628c92cc-f7c0-11e3-a05e-5404a6372add'
p538
aa(lp539
L7000000000000000000000065391733083L
aL7000000000000000000000065392133083L
aS'49ce57a2-fbdf-11e3-8102-ccd29b2fe4f6'
p540
aI01
aI01
aS'64b23c28-f7c0-11e3-8272-5404a6372add'
p541
aa(lp542
L7000000000000000000000065392133083L
aL7000000000000000000000065392533083L
aS'49ce64cc-fbdf-11e3-8102-ccd29b2fe4f6'
p543
aI01
aI01
aS'64e24560-f7ef-11e3-b031-6328b648429f'
p544
aa(lp545
L7000000000000000000000065392533083L
aL7000000000000000000000065392933083L
aS'49ce6f30-fbdf-11e3-8102-ccd29b2fe4f6'
p546
aI01
aI01
aS'61f40dd6-f7c0-11e3-b620-5404a6372add'
p547
aa(lp548
L7000000000000000000000065392933083L
aL7000000000000000000000065393333083L
aS'49ce78fe-fbdf-11e3-8102-ccd29b2fe4f6'
p549
aI01
aI01
aS'81ac6054-f7ef-11e3-b031-15fb80904113'
p550
aa(lp551
L7000000000000000000000065393333083L
aL7000000000000000000000065393733083L
aS'49ce8556-fbdf-11e3-8102-ccd29b2fe4f6'
p552
aI01
aI01
aS'39db6900-f7ef-11e3-b031-a3b0e3825347'
p553
aa(lp554
L7000000000000000000000065393733083L
aL7000000000000000000000065394133083L
aS'49ce90aa-fbdf-11e3-8102-ccd29b2fe4f6'
p555
aI01
aI01
aS'5d9647a2-f7ef-11e3-b031-c7d12f351c70'
p556
aa(lp557
L7000000000000000000000065394133083L
aL7000000000000000000000065394533083L
aS'49ce9ad2-fbdf-11e3-8102-ccd29b2fe4f6'
p558
aI01
aI01
aS'74e81f02-f7ef-11e3-b031-57b3b5f7965f'
p559
aa(lp560
L7000000000000000000000065394533083L
aL7000000000000000000000065394933083L
aS'49cea4b4-fbdf-11e3-8102-ccd29b2fe4f6'
p561
aI01
aI01
aS'6164d760-f7c0-11e3-bdf0-5404a6372add'
p562
aa(lp563
L7000000000000000000000065394933083L
aL7000000000000000000000065395333083L
aS'49ceb224-fbdf-11e3-8102-ccd29b2fe4f6'
p564
aI01
aI01
aS'4870730e-f7c0-11e3-8173-00e053135587'
p565
aa(lp566
L7000000000000000000000065395333083L
aL7000000000000000000000065395733083L
aS'49cebd1e-fbdf-11e3-8102-ccd29b2fe4f6'
p567
aI01
aI01
aS'71b4e054-f7ef-11e3-b031-1150fe97b6a5'
p568
aa(lp569
L7000000000000000000000065395733083L
aL7000000000000000000000065396133083L
aS'49ced88a-fbdf-11e3-8102-ccd29b2fe4f6'
p570
aI01
aI01
aS'47cc1bec-f7c0-11e3-9f29-00e053135587'
p571
aa(lp572
L7000000000000000000000065396133083L
aL7000000000000000000000065396533083L
aS'49cee55a-fbdf-11e3-8102-ccd29b2fe4f6'
p573
aI01
aI01
aS'5f071938-f7c0-11e3-ab3a-5404a6372add'
p574
aa(lp575
L7000000000000000000000065396533083L
aL7000000000000000000000065396933083L
aS'49cef00e-fbdf-11e3-8102-ccd29b2fe4f6'
p576
aI01
aI01
aS'6059fa9e-f7c0-11e3-8c3a-5404a6372add'
p577
aa(lp578
L7000000000000000000000065396933083L
aL7000000000000000000000065397333083L
aS'49cefd88-fbdf-11e3-8102-ccd29b2fe4f6'
p579
aI01
aI01
aS'5ffd23ac-fbd3-11e3-93fc-bcaec562e169'
p580
aa(lp581
L7000000000000000000000065397333083L
aL7000000000000000000000065397733083L
aS'49cf088c-fbdf-11e3-8102-ccd29b2fe4f6'
p582
aI01
aI01
aS'3150c5a2-f7c0-11e3-b225-001cc0bffc9f'
p583
aa(lp584
L7000000000000000000000065397733083L
aL7000000000000000000000065398133083L
aS'49cf12be-fbdf-11e3-8102-ccd29b2fe4f6'
p585
aI01
aI01
aS'60cf8398-f7ef-11e3-b031-9be104d90b2b'
p586
aa(lp587
L7000000000000000000000065398133083L
aL7000000000000000000000065398533083L
aS'49cf1c8c-fbdf-11e3-8102-ccd29b2fe4f6'
p588
aI01
aI01
aS'5fd14654-f7c0-11e3-bd92-5404a6372add'
p589
aa(lp590
L7000000000000000000000065398533083L
aL7000000000000000000000065398933083L
aS'49cf29c0-fbdf-11e3-8102-ccd29b2fe4f6'
p591
aI01
aI01
aS'2f85c9de-f7c0-11e3-90f6-001cc0bffc9f'
p592
aa(lp593
L7000000000000000000000065398933083L
aL7000000000000000000000065399333083L
aS'49cf3442-fbdf-11e3-8102-ccd29b2fe4f6'
p594
aI01
aI01
aS'60037132-f7e9-11e3-b323-000c29e250a1'
p595
aa(lp596
L7000000000000000000000065399333083L
aL7000000000000000000000065399733083L
aS'49cf3e38-fbdf-11e3-8102-ccd29b2fe4f6'
p597
aI01
aI01
aS'60db2ab4-f7e9-11e3-9436-000c29e250a1'
p598
aa(lp599
L7000000000000000000000065399733083L
aL7000000000000000000000065400133083L
aS'49cf4af4-fbdf-11e3-8102-ccd29b2fe4f6'
p600
aI01
aI01
aS'2a3cb260-f7ef-11e3-b031-37ac895e792a'
p601
aa(lp602
L7000000000000000000000065400133083L
aL7000000000000000000000065400533083L
aS'49cf55bc-fbdf-11e3-8102-ccd29b2fe4f6'
p603
aI01
aI01
aS'5df74a4a-f7c0-11e3-94c7-5404a6372add'
p604
aa(lp605
L7000000000000000000000065400533083L
aL7000000000000000000000065400933083L
aS'49cf6052-fbdf-11e3-8102-ccd29b2fe4f6'
p606
aI01
aI01
aS'6309116c-f7c0-11e3-9bf9-5404a6372add'
p607
aa(lp608
L7000000000000000000000065400933083L
aL7000000000000000000000065401333083L
aS'49cf6a98-fbdf-11e3-8102-ccd29b2fe4f6'
p609
aI01
aI01
aS'65bcb5b2-f7c0-11e3-a574-5404a6372add'
p610
aa(lp611
L7000000000000000000000065401333083L
aL7000000000000000000000065401733083L
aS'49cf783a-fbdf-11e3-8102-ccd29b2fe4f6'
p612
aI01
aI01
aS'0409a7bc-f7ed-11e3-8c97-bcaec562e169'
p613
aa(lp614
L7000000000000000000000065401733083L
aL7000000000000000000000065402133083L
aS'49cf8348-fbdf-11e3-8102-ccd29b2fe4f6'
p615
aI01
aI01
aS'5dc4b5fc-f7e9-11e3-ab38-000c29e250a1'
p616
aa(lp617
L7000000000000000000000065402133083L
aL7000000000000000000000065402533083L
aS'49cf8d2a-fbdf-11e3-8102-ccd29b2fe4f6'
p618
aI01
aI01
aS'663a5cf6-f7c0-11e3-8e94-5404a6372add'
p619
aa(lp620
L7000000000000000000000065402533083L
aL7000000000000000000000065402933083L
aS'49cf9a4a-fbdf-11e3-8102-ccd29b2fe4f6'
p621
aI01
aI01
aS'5f0eea22-f7e9-11e3-8475-000c29e250a1'
p622
aa(lp623
L7000000000000000000000065402933083L
aL7000000000000000000000065403333083L
aS'49cfa512-fbdf-11e3-8102-ccd29b2fe4f6'
p624
aI01
aI01
aS'64e24560-f7ef-11e3-b031-6328b648429f'
p625
aa(lp626
L7000000000000000000000065403333083L
aL7000000000000000000000065403733083L
aS'49cfaf30-fbdf-11e3-8102-ccd29b2fe4f6'
p627
aI01
aI01
aS'81ac6054-f7ef-11e3-b031-15fb80904113'
p628
aa(lp629
L7000000000000000000000065403733083L
aL7000000000000000000000065404133083L
aS'49cfb8d6-fbdf-11e3-8102-ccd29b2fe4f6'
p630
aI01
aI01
aS'5d9647a2-f7ef-11e3-b031-c7d12f351c70'
p631
aa(lp632
L7000000000000000000000065404133083L
aL7000000000000000000000065404533083L
aS'49cfd050-fbdf-11e3-8102-ccd29b2fe4f6'
p633
aI01
aI01
aS'74e81f02-f7ef-11e3-b031-57b3b5f7965f'
p634
aa(lp635
L7000000000000000000000065404533083L
aL7000000000000000000000065404933083L
aS'49cfdbe0-fbdf-11e3-8102-ccd29b2fe4f6'
p636
aI01
aI01
aS'643555fa-f7c0-11e3-be64-5404a6372add'
p637
aa(lp638
L7000000000000000000000065404933083L
aL7000000000000000000000065405333083L
aS'49cfea04-fbdf-11e3-8102-ccd29b2fe4f6'
p639
aI01
aI01
aS'39db6900-f7ef-11e3-b031-a3b0e3825347'
p640
aa(lp641
L7000000000000000000000065405333083L
aL7000000000000000000000065405733083L
aS'49cff4f4-fbdf-11e3-8102-ccd29b2fe4f6'
p642
aI01
aI01
aS'60fc5d3e-f7c0-11e3-bcc6-5404a6372add'
p643
aa(lp644
L7000000000000000000000065405733083L
aL7000000000000000000000065406133083L
aS'49cffecc-fbdf-11e3-8102-ccd29b2fe4f6'
p645
aI01
aI01
aS'71b4e054-f7ef-11e3-b031-1150fe97b6a5'
p646
aa(lp647
L7000000000000000000000065406133083L
aL7000000000000000000000065406533083L
aS'49d00b42-fbdf-11e3-8102-ccd29b2fe4f6'
p648
aI01
aI01
aS'66d09644-f7c0-11e3-9beb-5404a6372add'
p649
aa(lp650
L7000000000000000000000065406533083L
aL7000000000000000000000065406933083L
aS'49d016fa-fbdf-11e3-8102-ccd29b2fe4f6'
p651
aI01
aI01
aS'63b15f48-f7c0-11e3-a0b3-5404a6372add'
p652
aa(lp653
L7000000000000000000000065406933083L
aL7000000000000000000000065407333083L
aS'49d02136-fbdf-11e3-8102-ccd29b2fe4f6'
p654
aI01
aI01
aS'64b23c28-f7c0-11e3-8272-5404a6372add'
p655
aa(lp656
L7000000000000000000000065407333083L
aL7000000000000000000000065407733083L
aS'49d02b18-fbdf-11e3-8102-ccd29b2fe4f6'
p657
aI01
aI01
aS'3150c5a2-f7c0-11e3-b225-001cc0bffc9f'
p658
aa(lp659
L7000000000000000000000065407733083L
aL7000000000000000000000065408133083L
aS'49d03842-fbdf-11e3-8102-ccd29b2fe4f6'
p660
aI01
aI01
aS'65285926-f7c0-11e3-91f4-5404a6372add'
p661
aa(lp662
L7000000000000000000000065408133083L
aL7000000000000000000000065408533083L
aS'49d044c2-fbdf-11e3-8102-ccd29b2fe4f6'
p663
aI01
aI01
aS'61f40dd6-f7c0-11e3-b620-5404a6372add'
p664
aa(lp665
L7000000000000000000000065408533083L
aL7000000000000000000000065408933083L
aS'49d05318-fbdf-11e3-8102-ccd29b2fe4f6'
p666
aI01
aI01
aS'2f85c9de-f7c0-11e3-90f6-001cc0bffc9f'
p667
aa(lp668
L7000000000000000000000065408933083L
aL7000000000000000000000065409333083L
aS'49d0629a-fbdf-11e3-8102-ccd29b2fe4f6'
p669
aI01
aI01
aS'6164d760-f7c0-11e3-bdf0-5404a6372add'
p670
aa(lp671
L7000000000000000000000065409333083L
aL7000000000000000000000065409733083L
aS'49d06dc6-fbdf-11e3-8102-ccd29b2fe4f6'
p672
aI01
aI01
aS'628c92cc-f7c0-11e3-a05e-5404a6372add'
p673
aa(lp674
L7000000000000000000000065409733083L
aL7000000000000000000000065410133083L
aS'49d07802-fbdf-11e3-8102-ccd29b2fe4f6'
p675
aI01
aI01
aS'60cf8398-f7ef-11e3-b031-9be104d90b2b'
p676
aa(lp677
L7000000000000000000000065410133083L
aL7000000000000000000000065410533083L
aS'49d084be-fbdf-11e3-8102-ccd29b2fe4f6'
p678
aI01
aI01
aS'5ffd23ac-fbd3-11e3-93fc-bcaec562e169'
p679
aa(lp680
L7000000000000000000000065410533083L
aL7000000000000000000000065410933083L
aS'49d08f5e-fbdf-11e3-8102-ccd29b2fe4f6'
p681
aI01
aI01
aS'5f071938-f7c0-11e3-ab3a-5404a6372add'
p682
aa(lp683
L7000000000000000000000065410933083L
aL7000000000000000000000065411333083L
aS'49d09954-fbdf-11e3-8102-ccd29b2fe4f6'
p684
aI01
aI01
aS'6059fa9e-f7c0-11e3-8c3a-5404a6372add'
p685
aa(lp686
L7000000000000000000000065411333083L
aL7000000000000000000000065411733083L
aS'49d0a304-fbdf-11e3-8102-ccd29b2fe4f6'
p687
aI01
aI01
aS'2a3cb260-f7ef-11e3-b031-37ac895e792a'
p688
aa(lp689
L7000000000000000000000065411733083L
aL7000000000000000000000065412133083L
aS'49d0b02e-fbdf-11e3-8102-ccd29b2fe4f6'
p690
aI01
aI01
aS'5fd14654-f7c0-11e3-bd92-5404a6372add'
p691
aa(lp692
L7000000000000000000000065412133083L
aL7000000000000000000000065412533083L
aS'49d0ba9c-fbdf-11e3-8102-ccd29b2fe4f6'
p693
aI01
aI01
aS'5df74a4a-f7c0-11e3-94c7-5404a6372add'
p694
aa(lp695
L7000000000000000000000065412533083L
aL7000000000000000000000065412933083L
aS'49d0c456-fbdf-11e3-8102-ccd29b2fe4f6'
p696
aI01
aI01
aS'64e24560-f7ef-11e3-b031-6328b648429f'
p697
aa(lp698
L7000000000000000000000065412933083L
aL7000000000000000000000065413333083L
aS'49d0d0ae-fbdf-11e3-8102-ccd29b2fe4f6'
p699
aI01
aI01
aS'0409a7bc-f7ed-11e3-8c97-bcaec562e169'
p700
aa(lp701
L7000000000000000000000065413333083L
aL7000000000000000000000065413733083L
aS'49d0dc16-fbdf-11e3-8102-ccd29b2fe4f6'
p702
aI01
aI01
aS'81ac6054-f7ef-11e3-b031-15fb80904113'
p703
aa(lp704
L7000000000000000000000065413733083L
aL7000000000000000000000065414133083L
aS'49d0e6e8-fbdf-11e3-8102-ccd29b2fe4f6'
p705
aI01
aI01
aS'6309116c-f7c0-11e3-9bf9-5404a6372add'
p706
aa(lp707
L7000000000000000000000065414133083L
aL7000000000000000000000065414533083L
aS'49d0f11a-fbdf-11e3-8102-ccd29b2fe4f6'
p708
aI01
aI01
aS'5d9647a2-f7ef-11e3-b031-c7d12f351c70'
p709
aa(lp710
L7000000000000000000000065414533083L
aL7000000000000000000000065414933083L
aS'49d0feda-fbdf-11e3-8102-ccd29b2fe4f6'
p711
aI01
aI01
aS'74e81f02-f7ef-11e3-b031-57b3b5f7965f'
p712
aa(lp713
L7000000000000000000000065414933083L
aL7000000000000000000000065415333083L
aS'49d10966-fbdf-11e3-8102-ccd29b2fe4f6'
p714
aI01
aI01
aS'39db6900-f7ef-11e3-b031-a3b0e3825347'
p715
aa(lp716
L7000000000000000000000065415333083L
aL7000000000000000000000065415733083L
aS'49d1133e-fbdf-11e3-8102-ccd29b2fe4f6'
p717
aI01
aI00
aNaa(lp718
L7000000000000000000000065415733083L
aL7000000000000000000000065416133083L
aS'49d11fbe-fbdf-11e3-8102-ccd29b2fe4f6'
p719
aI01
aI01
aS'71b4e054-f7ef-11e3-b031-1150fe97b6a5'
p720
aa(lp721
L7000000000000000000000065416133083L
aL7000000000000000000000065416533083L
aS'49d12a90-fbdf-11e3-8102-ccd29b2fe4f6'
p722
aI01
aI01
aS'3150c5a2-f7c0-11e3-b225-001cc0bffc9f'
p723
aa(lp724
L7000000000000000000000065416533083L
aL7000000000000000000000065416933083L
aS'49d134cc-fbdf-11e3-8102-ccd29b2fe4f6'
p725
aI01
aI00
aNaa(lp726
L7000000000000000000000065416933083L
aL7000000000000000000000065417333083L
aS'49d13eae-fbdf-11e3-8102-ccd29b2fe4f6'
p727
aI01
aI01
aS'663a5cf6-f7c0-11e3-8e94-5404a6372add'
p728
aa(lp729
L7000000000000000000000065417333083L
aL7000000000000000000000065417733083L
aS'49d14bd8-fbdf-11e3-8102-ccd29b2fe4f6'
p730
aI01
aI01
aS'65bcb5b2-f7c0-11e3-a574-5404a6372add'
p731
aa(lp732
L7000000000000000000000065417733083L
aL7000000000000000000000065418133083L
aS'49d155f6-fbdf-11e3-8102-ccd29b2fe4f6'
p733
aI01
aI01
aS'2f85c9de-f7c0-11e3-90f6-001cc0bffc9f'
p734
aa(lp735
L7000000000000000000000065418133083L
aL7000000000000000000000065418533083L
aS'49d15f88-fbdf-11e3-8102-ccd29b2fe4f6'
p736
aI01
aI00
aNaa(lp737
L7000000000000000000000065418533083L
aL7000000000000000000000065418933083L
aS'49d16b5e-fbdf-11e3-8102-ccd29b2fe4f6'
p738
aI01
aI00
aNaa(lp739
L7000000000000000000000065418933083L
aL7000000000000000000000065419333083L
aS'49d17658-fbdf-11e3-8102-ccd29b2fe4f6'
p740
aI01
aI01
aS'60cf8398-f7ef-11e3-b031-9be104d90b2b'
p741
aa(lp742
L7000000000000000000000065419333083L
aL7000000000000000000000065419733083L
aS'49d1808a-fbdf-11e3-8102-ccd29b2fe4f6'
p743
aI01
aI00
aNaa(lp744
L7000000000000000000000065419733083L
aL7000000000000000000000065420133083L
aS'49d18a12-fbdf-11e3-8102-ccd29b2fe4f6'
p745
aI01
aI01
aS'47cc1bec-f7c0-11e3-9f29-00e053135587'
p746
aa.