(lp1
(lp2
L700000000000000000000000017000000L
aL700000000000000000000000017010000L
aS'7946599a-833f-11e2-a9e0-000c29b76fa4'
p3
aI01
aI01
aa(lp4
L700000000000000000000000017010000L
aL700000000000000000000000017020000L
aS'79465fa8-833f-11e2-a9e0-000c29b76fa4'
p5
aI01
aI01
aa(lp6
L700000000000000000000000017020000L
aL700000000000000000000000017030000L
aS'79466494-833f-11e2-a9e0-000c29b76fa4'
p7
aI01
aI01
aa(lp8
L700000000000000000000000017030000L
aL700000000000000000000000017040000L
aS'79466c82-833f-11e2-a9e0-000c29b76fa4'
p9
aI01
aI01
aa(lp10
L700000000000000000000000017040000L
aL700000000000000000000000017050000L
aS'79467178-833f-11e2-a9e0-000c29b76fa4'
p11
aI01
aI01
aa(lp12
L700000000000000000000000017050000L
aL700000000000000000000000017060000L
aS'7946763c-833f-11e2-a9e0-000c29b76fa4'
p13
aI01
aI01
aa(lp14
L700000000000000000000000017060000L
aL700000000000000000000000017070000L
aS'79467ae2-833f-11e2-a9e0-000c29b76fa4'
p15
aI01
aI01
aa(lp16
L700000000000000000000000017070000L
aL700000000000000000000000017080000L
aS'79467f7e-833f-11e2-a9e0-000c29b76fa4'
p17
aI01
aI01
aa(lp18
L700000000000000000000000017080000L
aL700000000000000000000000017090000L
aS'7946844c-833f-11e2-a9e0-000c29b76fa4'
p19
aI01
aI01
aa(lp20
L700000000000000000000000017090000L
aL700000000000000000000000017100000L
aS'7946892e-833f-11e2-a9e0-000c29b76fa4'
p21
aI01
aI01
aa(lp22
L700000000000000000000000017100000L
aL700000000000000000000000017110000L
aS'79468ed8-833f-11e2-a9e0-000c29b76fa4'
p23
aI01
aI01
aa(lp24
L700000000000000000000000017110000L
aL700000000000000000000000017120000L
aS'794693a6-833f-11e2-a9e0-000c29b76fa4'
p25
aI01
aI01
aa(lp26
L700000000000000000000000017120000L
aL700000000000000000000000017130000L
aS'7946984c-833f-11e2-a9e0-000c29b76fa4'
p27
aI01
aI01
aa(lp28
L700000000000000000000000017130000L
aL700000000000000000000000017140000L
aS'79469d06-833f-11e2-a9e0-000c29b76fa4'
p29
aI01
aI01
aa(lp30
L700000000000000000000000017140000L
aL700000000000000000000000017150000L
aS'7946a1d4-833f-11e2-a9e0-000c29b76fa4'
p31
aI01
aI01
aa(lp32
L700000000000000000000000017150000L
aL700000000000000000000000017160000L
aS'7946a67a-833f-11e2-a9e0-000c29b76fa4'
p33
aI01
aI01
aa(lp34
L700000000000000000000000017160000L
aL700000000000000000000000017170000L
aS'7946ab0c-833f-11e2-a9e0-000c29b76fa4'
p35
aI01
aI01
aa(lp36
L700000000000000000000000017170000L
aL700000000000000000000000017180000L
aS'7946b1f6-833f-11e2-a9e0-000c29b76fa4'
p37
aI01
aI01
aa(lp38
L700000000000000000000000017180000L
aL700000000000000000000000017190000L
aS'7946b7fa-833f-11e2-a9e0-000c29b76fa4'
p39
aI01
aI01
aa(lp40
L700000000000000000000000017190000L
aL700000000000000000000000017200000L
aS'7946bcc8-833f-11e2-a9e0-000c29b76fa4'
p41
aI01
aI01
aa(lp42
L700000000000000000000000017200000L
aL700000000000000000000000017210000L
aS'7946c178-833f-11e2-a9e0-000c29b76fa4'
p43
aI01
aI01
aa(lp44
L700000000000000000000000017210000L
aL700000000000000000000000017220000L
aS'7946c61e-833f-11e2-a9e0-000c29b76fa4'
p45
aI01
aI01
aa(lp46
L700000000000000000000000017220000L
aL700000000000000000000000017230000L
aS'7946cac4-833f-11e2-a9e0-000c29b76fa4'
p47
aI01
aI01
aa(lp48
L700000000000000000000000017230000L
aL700000000000000000000000017240000L
aS'7946cf92-833f-11e2-a9e0-000c29b76fa4'
p49
aI01
aI01
aa(lp50
L700000000000000000000000017240000L
aL700000000000000000000000017250000L
aS'7946d456-833f-11e2-a9e0-000c29b76fa4'
p51
aI01
aI01
aa(lp52
L700000000000000000000000017250000L
aL700000000000000000000000017260000L
aS'7946d8f2-833f-11e2-a9e0-000c29b76fa4'
p53
aI01
aI01
aa(lp54
L700000000000000000000000017260000L
aL700000000000000000000000017270000L
aS'7946dfaa-833f-11e2-a9e0-000c29b76fa4'
p55
aI01
aI01
aa(lp56
L700000000000000000000000017270000L
aL700000000000000000000000017280000L
aS'7946e45a-833f-11e2-a9e0-000c29b76fa4'
p57
aI01
aI01
aa(lp58
L700000000000000000000000017280000L
aL700000000000000000000000017290000L
aS'7946e90a-833f-11e2-a9e0-000c29b76fa4'
p59
aI01
aI01
aa(lp60
L700000000000000000000000017290000L
aL700000000000000000000000017300000L
aS'7946edce-833f-11e2-a9e0-000c29b76fa4'
p61
aI01
aI01
aa(lp62
L700000000000000000000000017300000L
aL700000000000000000000000017310000L
aS'7946f256-833f-11e2-a9e0-000c29b76fa4'
p63
aI01
aI01
aa(lp64
L700000000000000000000000017310000L
aL700000000000000000000000017320000L
aS'7946f6f2-833f-11e2-a9e0-000c29b76fa4'
p65
aI01
aI01
aa(lp66
L700000000000000000000000017320000L
aL700000000000000000000000017330000L
aS'7946fb70-833f-11e2-a9e0-000c29b76fa4'
p67
aI01
aI01
aa(lp68
L700000000000000000000000017330000L
aL700000000000000000000000017340000L
aS'79470002-833f-11e2-a9e0-000c29b76fa4'
p69
aI01
aI01
aa(lp70
L700000000000000000000000017340000L
aL700000000000000000000000017350000L
aS'794705f2-833f-11e2-a9e0-000c29b76fa4'
p71
aI01
aI01
aa(lp72
L700000000000000000000000017350000L
aL700000000000000000000000017360000L
aS'79470a98-833f-11e2-a9e0-000c29b76fa4'
p73
aI01
aI01
aa(lp74
L700000000000000000000000017360000L
aL700000000000000000000000017370000L
aS'79470f2a-833f-11e2-a9e0-000c29b76fa4'
p75
aI01
aI01
aa(lp76
L700000000000000000000000017370000L
aL700000000000000000000000017380000L
aS'794713a8-833f-11e2-a9e0-000c29b76fa4'
p77
aI01
aI01
aa(lp78
L700000000000000000000000017380000L
aL700000000000000000000000017390000L
aS'79471830-833f-11e2-a9e0-000c29b76fa4'
p79
aI01
aI00
aa(lp80
L700000000000000000000000017390000L
aL700000000000000000000000017400000L
aS'79471cf4-833f-11e2-a9e0-000c29b76fa4'
p81
aI01
aI00
aa(lp82
L700000000000000000000000017400000L
aL700000000000000000000000017410000L
aS'7947219a-833f-11e2-a9e0-000c29b76fa4'
p83
aI01
aI00
aa(lp84
L700000000000000000000000017410000L
aL700000000000000000000000017420000L
aS'79472848-833f-11e2-a9e0-000c29b76fa4'
p85
aI01
aI00
aa(lp86
L700000000000000000000000017420000L
aL700000000000000000000000017430000L
aS'7947c866-833f-11e2-a9e0-000c29b76fa4'
p87
aI00
aI00
aa(lp88
L700000000000000000000000017430000L
aL700000000000000000000000017440000L
aS'7947ce38-833f-11e2-a9e0-000c29b76fa4'
p89
aI00
aI00
aa(lp90
L700000000000000000000000017440000L
aL700000000000000000000000017450000L
aS'7947d34c-833f-11e2-a9e0-000c29b76fa4'
p91
aI00
aI00
aa(lp92
L700000000000000000000000017450000L
aL700000000000000000000000017460000L
aS'7947d838-833f-11e2-a9e0-000c29b76fa4'
p93
aI00
aI00
aa(lp94
L700000000000000000000000017460000L
aL700000000000000000000000017470000L
aS'7947dcf2-833f-11e2-a9e0-000c29b76fa4'
p95
aI00
aI00
aa(lp96
L700000000000000000000000017470000L
aL700000000000000000000000017480000L
aS'7947e1b6-833f-11e2-a9e0-000c29b76fa4'
p97
aI00
aI00
aa(lp98
L700000000000000000000000017480000L
aL700000000000000000000000017490000L
aS'7947e698-833f-11e2-a9e0-000c29b76fa4'
p99
aI00
aI00
aa(lp100
L700000000000000000000000017490000L
aL700000000000000000000000017500000L
aS'7947eb84-833f-11e2-a9e0-000c29b76fa4'
p101
aI00
aI00
aa(lp102
L700000000000000000000000017500000L
aL700000000000000000000000017510000L
aS'7947f188-833f-11e2-a9e0-000c29b76fa4'
p103
aI00
aI00
aa(lp104
L700000000000000000000000017510000L
aL700000000000000000000000017520000L
aS'7947f692-833f-11e2-a9e0-000c29b76fa4'
p105
aI00
aI00
aa(lp106
L700000000000000000000000017520000L
aL700000000000000000000000017530000L
aS'7947fb2e-833f-11e2-a9e0-000c29b76fa4'
p107
aI00
aI00
aa(lp108
L700000000000000000000000017530000L
aL700000000000000000000000017540000L
aS'7947ffd4-833f-11e2-a9e0-000c29b76fa4'
p109
aI00
aI00
aa(lp110
L700000000000000000000000017540000L
aL700000000000000000000000017550000L
aS'79480498-833f-11e2-a9e0-000c29b76fa4'
p111
aI00
aI00
aa(lp112
L700000000000000000000000017550000L
aL700000000000000000000000017560000L
aS'7948095c-833f-11e2-a9e0-000c29b76fa4'
p113
aI00
aI00
aa(lp114
L700000000000000000000000017560000L
aL700000000000000000000000017570000L
aS'79480e02-833f-11e2-a9e0-000c29b76fa4'
p115
aI00
aI00
aa(lp116
L700000000000000000000000017570000L
aL700000000000000000000000017580000L
aS'794812b2-833f-11e2-a9e0-000c29b76fa4'
p117
aI00
aI00
aa(lp118
L700000000000000000000000017580000L
aL700000000000000000000000017590000L
aS'794819b0-833f-11e2-a9e0-000c29b76fa4'
p119
aI00
aI00
aa(lp120
L700000000000000000000000017590000L
aL700000000000000000000000017600000L
aS'79481e92-833f-11e2-a9e0-000c29b76fa4'
p121
aI00
aI00
aa(lp122
L700000000000000000000000017600000L
aL700000000000000000000000017610000L
aS'79482360-833f-11e2-a9e0-000c29b76fa4'
p123
aI00
aI00
aa(lp124
L700000000000000000000000017610000L
aL700000000000000000000000017620000L
aS'79482806-833f-11e2-a9e0-000c29b76fa4'
p125
aI00
aI00
aa(lp126
L700000000000000000000000017620000L
aL700000000000000000000000017630000L
aS'79482cac-833f-11e2-a9e0-000c29b76fa4'
p127
aI00
aI00
aa(lp128
L700000000000000000000000017630000L
aL700000000000000000000000017640000L
aS'79483166-833f-11e2-a9e0-000c29b76fa4'
p129
aI00
aI00
aa(lp130
L700000000000000000000000017640000L
aL700000000000000000000000017650000L
aS'79483634-833f-11e2-a9e0-000c29b76fa4'
p131
aI00
aI00
aa(lp132
L700000000000000000000000017650000L
aL700000000000000000000000017660000L
aS'79483bf2-833f-11e2-a9e0-000c29b76fa4'
p133
aI00
aI00
aa(lp134
L700000000000000000000000017660000L
aL700000000000000000000000017670000L
aS'794840ca-833f-11e2-a9e0-000c29b76fa4'
p135
aI00
aI00
aa(lp136
L700000000000000000000000017670000L
aL700000000000000000000000017680000L
aS'7948457a-833f-11e2-a9e0-000c29b76fa4'
p137
aI00
aI00
aa(lp138
L700000000000000000000000017680000L
aL700000000000000000000000017690000L
aS'79484a16-833f-11e2-a9e0-000c29b76fa4'
p139
aI00
aI00
aa(lp140
L700000000000000000000000017690000L
aL700000000000000000000000017700000L
aS'79484ebc-833f-11e2-a9e0-000c29b76fa4'
p141
aI00
aI00
aa(lp142
L700000000000000000000000017700000L
aL700000000000000000000000017710000L
aS'79485394-833f-11e2-a9e0-000c29b76fa4'
p143
aI00
aI00
aa(lp144
L700000000000000000000000017710000L
aL700000000000000000000000017720000L
aS'7948583a-833f-11e2-a9e0-000c29b76fa4'
p145
aI00
aI00
aa(lp146
L700000000000000000000000017720000L
aL700000000000000000000000017730000L
aS'79485cb8-833f-11e2-a9e0-000c29b76fa4'
p147
aI00
aI00
aa(lp148
L700000000000000000000000017730000L
aL700000000000000000000000017740000L
aS'7948621c-833f-11e2-a9e0-000c29b76fa4'
p149
aI00
aI00
aa(lp150
L700000000000000000000000017740000L
aL700000000000000000000000017750000L
aS'79486708-833f-11e2-a9e0-000c29b76fa4'
p151
aI00
aI00
aa(lp152
L700000000000000000000000017750000L
aL700000000000000000000000017760000L
aS'79486bc2-833f-11e2-a9e0-000c29b76fa4'
p153
aI00
aI00
aa(lp154
L700000000000000000000000017760000L
aL700000000000000000000000017770000L
aS'7948705e-833f-11e2-a9e0-000c29b76fa4'
p155
aI00
aI00
aa(lp156
L700000000000000000000000017770000L
aL700000000000000000000000017780000L
aS'794874e6-833f-11e2-a9e0-000c29b76fa4'
p157
aI00
aI00
aa(lp158
L700000000000000000000000017780000L
aL700000000000000000000000017790000L
aS'7948796e-833f-11e2-a9e0-000c29b76fa4'
p159
aI00
aI00
aa(lp160
L700000000000000000000000017790000L
aL700000000000000000000000017800000L
aS'79487df6-833f-11e2-a9e0-000c29b76fa4'
p161
aI00
aI00
aa(lp162
L700000000000000000000000017800000L
aL700000000000000000000000017810000L
aS'7948829c-833f-11e2-a9e0-000c29b76fa4'
p163
aI00
aI00
aa(lp164
L700000000000000000000000017810000L
aL700000000000000000000000017820000L
aS'79488756-833f-11e2-a9e0-000c29b76fa4'
p165
aI00
aI00
aa(lp166
L700000000000000000000000017820000L
aL700000000000000000000000017830000L
aS'79488cec-833f-11e2-a9e0-000c29b76fa4'
p167
aI00
aI00
aa(lp168
L700000000000000000000000017830000L
aL700000000000000000000000017840000L
aS'7948917e-833f-11e2-a9e0-000c29b76fa4'
p169
aI00
aI00
aa(lp170
L700000000000000000000000017840000L
aL700000000000000000000000017850000L
aS'79489610-833f-11e2-a9e0-000c29b76fa4'
p171
aI00
aI00
aa(lp172
L700000000000000000000000017850000L
aL700000000000000000000000017860000L
aS'79489ab6-833f-11e2-a9e0-000c29b76fa4'
p173
aI00
aI00
aa(lp174
L700000000000000000000000017860000L
aL700000000000000000000000017870000L
aS'79489f70-833f-11e2-a9e0-000c29b76fa4'
p175
aI00
aI00
aa(lp176
L700000000000000000000000017870000L
aL700000000000000000000000017880000L
aS'7948a3f8-833f-11e2-a9e0-000c29b76fa4'
p177
aI00
aI00
aa(lp178
L700000000000000000000000017880000L
aL700000000000000000000000017890000L
aS'7948a876-833f-11e2-a9e0-000c29b76fa4'
p179
aI00
aI00
aa(lp180
L700000000000000000000000017890000L
aL700000000000000000000000017900000L
aS'7948ad08-833f-11e2-a9e0-000c29b76fa4'
p181
aI00
aI00
aa(lp182
L700000000000000000000000017900000L
aL700000000000000000000000017910000L
aS'7948b370-833f-11e2-a9e0-000c29b76fa4'
p183
aI00
aI00
aa(lp184
L700000000000000000000000017910000L
aL700000000000000000000000017920000L
aS'7948b848-833f-11e2-a9e0-000c29b76fa4'
p185
aI00
aI00
aa(lp186
L700000000000000000000000017920000L
aL700000000000000000000000017930000L
aS'7948bcda-833f-11e2-a9e0-000c29b76fa4'
p187
aI00
aI00
aa(lp188
L700000000000000000000000017930000L
aL700000000000000000000000017940000L
aS'7948c16c-833f-11e2-a9e0-000c29b76fa4'
p189
aI00
aI00
aa(lp190
L700000000000000000000000017940000L
aL700000000000000000000000017950000L
aS'7948c5fe-833f-11e2-a9e0-000c29b76fa4'
p191
aI00
aI00
aa(lp192
L700000000000000000000000017950000L
aL700000000000000000000000017960000L
aS'7948ca7c-833f-11e2-a9e0-000c29b76fa4'
p193
aI00
aI00
aa(lp194
L700000000000000000000000017960000L
aL700000000000000000000000017970000L
aS'7948cf36-833f-11e2-a9e0-000c29b76fa4'
p195
aI00
aI00
aa(lp196
L700000000000000000000000017970000L
aL700000000000000000000000017980000L
aS'7948d3e6-833f-11e2-a9e0-000c29b76fa4'
p197
aI00
aI00
aa(lp198
L700000000000000000000000017980000L
aL700000000000000000000000017990000L
aS'7948d968-833f-11e2-a9e0-000c29b76fa4'
p199
aI00
aI00
aa(lp200
L700000000000000000000000017990000L
aL700000000000000000000000018000000L
aS'7948de18-833f-11e2-a9e0-000c29b76fa4'
p201
aI00
aI01
aa.