(lp1
(lp2
L7000000000000000000000008235000000L
aL7000000000000000000000008235010000L
aS'367dc388-8820-11e2-a0a0-000c29e250a1'
p3
aI01
aI01
aS'936be846-86bc-11e2-921f-001cc0bffc9f'
p4
aa(lp5
L7000000000000000000000008235010000L
aL7000000000000000000000008235020000L
aS'367dc7c0-8820-11e2-a0a0-000c29e250a1'
p6
aI01
aI01
aS'5e10baa4-86bd-11e2-b8c0-001cc0bffc9f'
p7
aa(lp8
L7000000000000000000000008235020000L
aL7000000000000000000000008235030000L
aS'367dcac2-8820-11e2-a0a0-000c29e250a1'
p9
aI01
aI01
aS'fd0107e2-86bb-11e2-80cc-fa163e065d0c'
p10
aa(lp11
L7000000000000000000000008235030000L
aL7000000000000000000000008235040000L
aS'367dcdf6-8820-11e2-a0a0-000c29e250a1'
p12
aI01
aI01
aS'fb051a5a-86bb-11e2-bf39-fa163e065d0c'
p13
aa(lp14
L7000000000000000000000008235040000L
aL7000000000000000000000008235050000L
aS'367dd3c8-8820-11e2-a0a0-000c29e250a1'
p15
aI01
aI01
aS'f9f7009c-86bb-11e2-a0b6-fa163e065d0c'
p16
aa(lp17
L7000000000000000000000008235050000L
aL7000000000000000000000008235060000L
aS'367dd7ec-8820-11e2-a0a0-000c29e250a1'
p18
aI01
aI01
aS'fc94b060-86bb-11e2-acb1-fa163e065d0c'
p19
aa(lp20
L7000000000000000000000008235060000L
aL7000000000000000000000008235070000L
aS'367ddc7e-8820-11e2-a0a0-000c29e250a1'
p21
aI01
aI01
aS'fc1b6e62-86bb-11e2-98f6-fa163e065d0c'
p22
aa(lp23
L7000000000000000000000008235070000L
aL7000000000000000000000008235080000L
aS'367de228-8820-11e2-a0a0-000c29e250a1'
p24
aI01
aI01
aS'ab1cfc00-86bc-11e2-b908-fa163e065d0c'
p25
aa(lp26
L7000000000000000000000008235080000L
aL7000000000000000000000008235090000L
aS'367de64c-8820-11e2-a0a0-000c29e250a1'
p27
aI01
aI01
aS'fba6e02e-86bb-11e2-a775-fa163e065d0c'
p28
aa(lp29
L7000000000000000000000008235090000L
aL7000000000000000000000008235100000L
aS'367dea7a-8820-11e2-a0a0-000c29e250a1'
p30
aI01
aI01
aS'aa94c808-86bc-11e2-931d-fa163e065d0c'
p31
aa(lp32
L7000000000000000000000008235100000L
aL7000000000000000000000008235110000L
aS'367dedae-8820-11e2-a0a0-000c29e250a1'
p33
aI01
aI01
aS'8d67384c-86bc-11e2-860a-001cc0bffc9f'
p34
aa(lp35
L7000000000000000000000008235110000L
aL7000000000000000000000008235120000L
aS'367df434-8820-11e2-a0a0-000c29e250a1'
p36
aI01
aI01
aS'2603497e-8820-11e2-b8cb-000c295aaa91'
p37
aa(lp38
L7000000000000000000000008235120000L
aL7000000000000000000000008235130000L
aS'367df83a-8820-11e2-a0a0-000c29e250a1'
p39
aI01
aI01
aS'fd0107e2-86bb-11e2-80cc-fa163e065d0c'
p40
aa(lp41
L7000000000000000000000008235130000L
aL7000000000000000000000008235140000L
aS'367dfc2c-8820-11e2-a0a0-000c29e250a1'
p42
aI01
aI01
aS'fb051a5a-86bb-11e2-bf39-fa163e065d0c'
p43
aa(lp44
L7000000000000000000000008235140000L
aL7000000000000000000000008235150000L
aS'367e0000-8820-11e2-a0a0-000c29e250a1'
p45
aI01
aI01
aS'f9f7009c-86bb-11e2-a0b6-fa163e065d0c'
p46
aa(lp47
L7000000000000000000000008235150000L
aL7000000000000000000000008235160000L
aS'367e0406-8820-11e2-a0a0-000c29e250a1'
p48
aI01
aI01
aS'fc94b060-86bb-11e2-acb1-fa163e065d0c'
p49
aa(lp50
L7000000000000000000000008235160000L
aL7000000000000000000000008235170000L
aS'367e0816-8820-11e2-a0a0-000c29e250a1'
p51
aI01
aI01
aS'fc1b6e62-86bb-11e2-98f6-fa163e065d0c'
p52
aa(lp53
L7000000000000000000000008235170000L
aL7000000000000000000000008235180000L
aS'367e0c08-8820-11e2-a0a0-000c29e250a1'
p54
aI01
aI01
aS'fba6e02e-86bb-11e2-a775-fa163e065d0c'
p55
aa(lp56
L7000000000000000000000008235180000L
aL7000000000000000000000008235190000L
aS'367e0fdc-8820-11e2-a0a0-000c29e250a1'
p57
aI01
aI01
aS'ab1cfc00-86bc-11e2-b908-fa163e065d0c'
p58
aa(lp59
L7000000000000000000000008235190000L
aL7000000000000000000000008235200000L
aS'367e13e2-8820-11e2-a0a0-000c29e250a1'
p60
aI01
aI01
aS'aa94c808-86bc-11e2-931d-fa163e065d0c'
p61
aa(lp62
L7000000000000000000000008235200000L
aL7000000000000000000000008235210000L
aS'367e17e8-8820-11e2-a0a0-000c29e250a1'
p63
aI01
aI01
aS'4beb25da-86bd-11e2-8881-001cc0bffc9f'
p64
aa(lp65
L7000000000000000000000008235210000L
aL7000000000000000000000008235220000L
aS'367e1bda-8820-11e2-a0a0-000c29e250a1'
p66
aI01
aI01
aS'6be45f5a-86bd-11e2-93ab-001cc0bffc9f'
p67
aa(lp68
L7000000000000000000000008235220000L
aL7000000000000000000000008235230000L
aS'367e1fae-8820-11e2-a0a0-000c29e250a1'
p69
aI01
aI01
aS'2603497e-8820-11e2-b8cb-000c295aaa91'
p70
aa(lp71
L7000000000000000000000008235230000L
aL7000000000000000000000008235240000L
aS'367e23aa-8820-11e2-a0a0-000c29e250a1'
p72
aI01
aI01
aS'fd0107e2-86bb-11e2-80cc-fa163e065d0c'
p73
aa(lp74
L7000000000000000000000008235240000L
aL7000000000000000000000008235250000L
aS'367e27ba-8820-11e2-a0a0-000c29e250a1'
p75
aI01
aI01
aS'fb051a5a-86bb-11e2-bf39-fa163e065d0c'
p76
aa(lp77
L7000000000000000000000008235250000L
aL7000000000000000000000008235260000L
aS'367e2b98-8820-11e2-a0a0-000c29e250a1'
p78
aI01
aI01
aS'f9f7009c-86bb-11e2-a0b6-fa163e065d0c'
p79
aa(lp80
L7000000000000000000000008235260000L
aL7000000000000000000000008235270000L
aS'367e2f8a-8820-11e2-a0a0-000c29e250a1'
p81
aI01
aI01
aS'fc94b060-86bb-11e2-acb1-fa163e065d0c'
p82
aa(lp83
L7000000000000000000000008235270000L
aL7000000000000000000000008235280000L
aS'367e3390-8820-11e2-a0a0-000c29e250a1'
p84
aI01
aI01
aS'fc1b6e62-86bb-11e2-98f6-fa163e065d0c'
p85
aa(lp86
L7000000000000000000000008235280000L
aL7000000000000000000000008235290000L
aS'367e3796-8820-11e2-a0a0-000c29e250a1'
p87
aI01
aI01
aS'fba6e02e-86bb-11e2-a775-fa163e065d0c'
p88
aa(lp89
L7000000000000000000000008235290000L
aL7000000000000000000000008235300000L
aS'367e3aa2-8820-11e2-a0a0-000c29e250a1'
p90
aI01
aI01
aS'aa94c808-86bc-11e2-931d-fa163e065d0c'
p91
aa(lp92
L7000000000000000000000008235300000L
aL7000000000000000000000008235310000L
aS'367e3d90-8820-11e2-a0a0-000c29e250a1'
p93
aI01
aI01
aS'ab1cfc00-86bc-11e2-b908-fa163e065d0c'
p94
aa(lp95
L7000000000000000000000008235310000L
aL7000000000000000000000008235320000L
aS'367e4092-8820-11e2-a0a0-000c29e250a1'
p96
aI01
aI01
aS'5e10baa4-86bd-11e2-b8c0-001cc0bffc9f'
p97
aa(lp98
L7000000000000000000000008235320000L
aL7000000000000000000000008235330000L
aS'367e4376-8820-11e2-a0a0-000c29e250a1'
p99
aI01
aI01
aS'fd0107e2-86bb-11e2-80cc-fa163e065d0c'
p100
aa(lp101
L7000000000000000000000008235330000L
aL7000000000000000000000008235340000L
aS'367e4664-8820-11e2-a0a0-000c29e250a1'
p102
aI01
aI01
aS'fb051a5a-86bb-11e2-bf39-fa163e065d0c'
p103
aa(lp104
L7000000000000000000000008235340000L
aL7000000000000000000000008235350000L
aS'367e4966-8820-11e2-a0a0-000c29e250a1'
p105
aI01
aI01
aS'f9f7009c-86bb-11e2-a0b6-fa163e065d0c'
p106
aa(lp107
L7000000000000000000000008235350000L
aL7000000000000000000000008235360000L
aS'367e4c54-8820-11e2-a0a0-000c29e250a1'
p108
aI01
aI01
aS'fc94b060-86bb-11e2-acb1-fa163e065d0c'
p109
aa(lp110
L7000000000000000000000008235360000L
aL7000000000000000000000008235370000L
aS'367e4f42-8820-11e2-a0a0-000c29e250a1'
p111
aI01
aI01
aS'2603497e-8820-11e2-b8cb-000c295aaa91'
p112
aa(lp113
L7000000000000000000000008235370000L
aL7000000000000000000000008235380000L
aS'367e523a-8820-11e2-a0a0-000c29e250a1'
p114
aI01
aI01
aS'fc1b6e62-86bb-11e2-98f6-fa163e065d0c'
p115
aa(lp116
L7000000000000000000000008235380000L
aL7000000000000000000000008235390000L
aS'367e551e-8820-11e2-a0a0-000c29e250a1'
p117
aI01
aI01
aS'936be846-86bc-11e2-921f-001cc0bffc9f'
p118
aa(lp119
L7000000000000000000000008235390000L
aL7000000000000000000000008235400000L
aS'367e5802-8820-11e2-a0a0-000c29e250a1'
p120
aI01
aI01
aS'fba6e02e-86bb-11e2-a775-fa163e065d0c'
p121
aa(lp122
L7000000000000000000000008235400000L
aL7000000000000000000000008235410000L
aS'367e5c8a-8820-11e2-a0a0-000c29e250a1'
p123
aI01
aI01
aS'aa94c808-86bc-11e2-931d-fa163e065d0c'
p124
aa(lp125
L7000000000000000000000008235410000L
aL7000000000000000000000008235420000L
aS'367e5f8c-8820-11e2-a0a0-000c29e250a1'
p126
aI01
aI01
aS'ab1cfc00-86bc-11e2-b908-fa163e065d0c'
p127
aa(lp128
L7000000000000000000000008235420000L
aL7000000000000000000000008235430000L
aS'367e6266-8820-11e2-a0a0-000c29e250a1'
p129
aI01
aI01
aS'fb051a5a-86bb-11e2-bf39-fa163e065d0c'
p130
aa(lp131
L7000000000000000000000008235430000L
aL7000000000000000000000008235440000L
aS'367e6540-8820-11e2-a0a0-000c29e250a1'
p132
aI01
aI01
aS'fd0107e2-86bb-11e2-80cc-fa163e065d0c'
p133
aa(lp134
L7000000000000000000000008235440000L
aL7000000000000000000000008235450000L
aS'367e6838-8820-11e2-a0a0-000c29e250a1'
p135
aI01
aI01
aS'f9f7009c-86bb-11e2-a0b6-fa163e065d0c'
p136
aa(lp137
L7000000000000000000000008235450000L
aL7000000000000000000000008235460000L
aS'367e6b26-8820-11e2-a0a0-000c29e250a1'
p138
aI01
aI01
aS'8d67384c-86bc-11e2-860a-001cc0bffc9f'
p139
aa(lp140
L7000000000000000000000008235460000L
aL7000000000000000000000008235470000L
aS'367e6e0a-8820-11e2-a0a0-000c29e250a1'
p141
aI01
aI01
aS'fc94b060-86bb-11e2-acb1-fa163e065d0c'
p142
aa(lp143
L7000000000000000000000008235470000L
aL7000000000000000000000008235480000L
aS'367e70f8-8820-11e2-a0a0-000c29e250a1'
p144
aI01
aI01
aS'fc1b6e62-86bb-11e2-98f6-fa163e065d0c'
p145
aa(lp146
L7000000000000000000000008235480000L
aL7000000000000000000000008235490000L
aS'367e73fa-8820-11e2-a0a0-000c29e250a1'
p147
aI01
aI01
aS'6be45f5a-86bd-11e2-93ab-001cc0bffc9f'
p148
aa(lp149
L7000000000000000000000008235490000L
aL7000000000000000000000008235500000L
aS'367e788c-8820-11e2-a0a0-000c29e250a1'
p150
aI01
aI01
aS'aa94c808-86bc-11e2-931d-fa163e065d0c'
p151
aa(lp152
L7000000000000000000000008235500000L
aL7000000000000000000000008235510000L
aS'367e7b8e-8820-11e2-a0a0-000c29e250a1'
p153
aI01
aI01
aS'2603497e-8820-11e2-b8cb-000c295aaa91'
p154
aa(lp155
L7000000000000000000000008235510000L
aL7000000000000000000000008235520000L
aS'367e7e7c-8820-11e2-a0a0-000c29e250a1'
p156
aI01
aI01
aS'fba6e02e-86bb-11e2-a775-fa163e065d0c'
p157
aa(lp158
L7000000000000000000000008235520000L
aL7000000000000000000000008235530000L
aS'367e817e-8820-11e2-a0a0-000c29e250a1'
p159
aI01
aI01
aS'ab1cfc00-86bc-11e2-b908-fa163e065d0c'
p160
aa(lp161
L7000000000000000000000008235530000L
aL7000000000000000000000008235540000L
aS'367e848a-8820-11e2-a0a0-000c29e250a1'
p162
aI01
aI01
aS'4beb25da-86bd-11e2-8881-001cc0bffc9f'
p163
aa(lp164
L7000000000000000000000008235540000L
aL7000000000000000000000008235550000L
aS'367e8778-8820-11e2-a0a0-000c29e250a1'
p165
aI01
aI01
aS'fb051a5a-86bb-11e2-bf39-fa163e065d0c'
p166
aa(lp167
L7000000000000000000000008235550000L
aL7000000000000000000000008235560000L
aS'367e8a7a-8820-11e2-a0a0-000c29e250a1'
p168
aI01
aI01
aS'f9f7009c-86bb-11e2-a0b6-fa163e065d0c'
p169
aa(lp170
L7000000000000000000000008235560000L
aL7000000000000000000000008235570000L
aS'367e8d68-8820-11e2-a0a0-000c29e250a1'
p171
aI01
aI01
aS'fd0107e2-86bb-11e2-80cc-fa163e065d0c'
p172
aa(lp173
L7000000000000000000000008235570000L
aL7000000000000000000000008235580000L
aS'367e9042-8820-11e2-a0a0-000c29e250a1'
p174
aI01
aI01
aS'fc94b060-86bb-11e2-acb1-fa163e065d0c'
p175
aa(lp176
L7000000000000000000000008235580000L
aL7000000000000000000000008235590000L
aS'367e933a-8820-11e2-a0a0-000c29e250a1'
p177
aI01
aI01
aS'5e10baa4-86bd-11e2-b8c0-001cc0bffc9f'
p178
aa(lp179
L7000000000000000000000008235590000L
aL7000000000000000000000008235600000L
aS'367e9632-8820-11e2-a0a0-000c29e250a1'
p180
aI01
aI01
aS'fc1b6e62-86bb-11e2-98f6-fa163e065d0c'
p181
aa(lp182
L7000000000000000000000008235600000L
aL7000000000000000000000008235610000L
aS'367e9916-8820-11e2-a0a0-000c29e250a1'
p183
aI01
aI01
aS'aa94c808-86bc-11e2-931d-fa163e065d0c'
p184
aa(lp185
L7000000000000000000000008235610000L
aL7000000000000000000000008235620000L
aS'367e9c0e-8820-11e2-a0a0-000c29e250a1'
p186
aI01
aI01
aS'fba6e02e-86bb-11e2-a775-fa163e065d0c'
p187
aa(lp188
L7000000000000000000000008235620000L
aL7000000000000000000000008235630000L
aS'367ea08c-8820-11e2-a0a0-000c29e250a1'
p189
aI01
aI01
aS'ab1cfc00-86bc-11e2-b908-fa163e065d0c'
p190
aa(lp191
L7000000000000000000000008235630000L
aL7000000000000000000000008235640000L
aS'367ea3de-8820-11e2-a0a0-000c29e250a1'
p192
aI01
aI01
aS'2603497e-8820-11e2-b8cb-000c295aaa91'
p193
aa(lp194
L7000000000000000000000008235640000L
aL7000000000000000000000008235650000L
aS'367ea6c2-8820-11e2-a0a0-000c29e250a1'
p195
aI01
aI01
aS'f9f7009c-86bb-11e2-a0b6-fa163e065d0c'
p196
aa(lp197
L7000000000000000000000008235650000L
aL7000000000000000000000008235660000L
aS'367ea9b0-8820-11e2-a0a0-000c29e250a1'
p198
aI01
aI01
aS'fb051a5a-86bb-11e2-bf39-fa163e065d0c'
p199
aa(lp200
L7000000000000000000000008235660000L
aL7000000000000000000000008235670000L
aS'367eaca8-8820-11e2-a0a0-000c29e250a1'
p201
aI01
aI01
aS'fd0107e2-86bb-11e2-80cc-fa163e065d0c'
p202
aa(lp203
L7000000000000000000000008235670000L
aL7000000000000000000000008235680000L
aS'367eaf8c-8820-11e2-a0a0-000c29e250a1'
p204
aI01
aI01
aS'fc94b060-86bb-11e2-acb1-fa163e065d0c'
p205
aa(lp206
L7000000000000000000000008235680000L
aL7000000000000000000000008235690000L
aS'367eb270-8820-11e2-a0a0-000c29e250a1'
p207
aI01
aI01
aS'fc1b6e62-86bb-11e2-98f6-fa163e065d0c'
p208
aa(lp209
L7000000000000000000000008235690000L
aL7000000000000000000000008235700000L
aS'367eb572-8820-11e2-a0a0-000c29e250a1'
p210
aI01
aI01
aS'aa94c808-86bc-11e2-931d-fa163e065d0c'
p211
aa(lp212
L7000000000000000000000008235700000L
aL7000000000000000000000008235710000L
aS'367eb84c-8820-11e2-a0a0-000c29e250a1'
p213
aI01
aI01
aS'fba6e02e-86bb-11e2-a775-fa163e065d0c'
p214
aa(lp215
L7000000000000000000000008235710000L
aL7000000000000000000000008235720000L
aS'367ebb30-8820-11e2-a0a0-000c29e250a1'
p216
aI01
aI01
aS'ab1cfc00-86bc-11e2-b908-fa163e065d0c'
p217
aa(lp218
L7000000000000000000000008235720000L
aL7000000000000000000000008235730000L
aS'367ebe1e-8820-11e2-a0a0-000c29e250a1'
p219
aI01
aI01
aS'aa94c808-86bc-11e2-931d-fa163e065d0c'
p220
aa(lp221
L7000000000000000000000008235730000L
aL7000000000000000000000008235740000L
aS'367ec116-8820-11e2-a0a0-000c29e250a1'
p222
aI01
aI01
aS'f9f7009c-86bb-11e2-a0b6-fa163e065d0c'
p223
aa(lp224
L7000000000000000000000008235740000L
aL7000000000000000000000008235750000L
aS'367ec404-8820-11e2-a0a0-000c29e250a1'
p225
aI01
aI01
aS'fb051a5a-86bb-11e2-bf39-fa163e065d0c'
p226
aa(lp227
L7000000000000000000000008235750000L
aL7000000000000000000000008235760000L
aS'367ec6e8-8820-11e2-a0a0-000c29e250a1'
p228
aI01
aI01
aS'6be45f5a-86bd-11e2-93ab-001cc0bffc9f'
p229
aa(lp230
L7000000000000000000000008235760000L
aL7000000000000000000000008235770000L
aS'367ec9ea-8820-11e2-a0a0-000c29e250a1'
p231
aI01
aI01
aS'fd0107e2-86bb-11e2-80cc-fa163e065d0c'
p232
aa(lp233
L7000000000000000000000008235770000L
aL7000000000000000000000008235780000L
aS'367eccce-8820-11e2-a0a0-000c29e250a1'
p234
aI01
aI01
aS'fc94b060-86bb-11e2-acb1-fa163e065d0c'
p235
aa(lp236
L7000000000000000000000008235780000L
aL7000000000000000000000008235790000L
aS'367ecf9e-8820-11e2-a0a0-000c29e250a1'
p237
aI01
aI01
aS'2603497e-8820-11e2-b8cb-000c295aaa91'
p238
aa(lp239
L7000000000000000000000008235790000L
aL7000000000000000000000008235800000L
aS'367ed28c-8820-11e2-a0a0-000c29e250a1'
p240
aI01
aI01
aS'fc1b6e62-86bb-11e2-98f6-fa163e065d0c'
p241
aa(lp242
L7000000000000000000000008235800000L
aL7000000000000000000000008235810000L
aS'367ed584-8820-11e2-a0a0-000c29e250a1'
p243
aI01
aI01
aS'aa94c808-86bc-11e2-931d-fa163e065d0c'
p244
aa(lp245
L7000000000000000000000008235810000L
aL7000000000000000000000008235820000L
aS'367ed868-8820-11e2-a0a0-000c29e250a1'
p246
aI01
aI00
aNaa(lp247
L7000000000000000000000008235820000L
aL7000000000000000000000008235830000L
aS'367edb4c-8820-11e2-a0a0-000c29e250a1'
p248
aI01
aI01
aS'fba6e02e-86bb-11e2-a775-fa163e065d0c'
p249
aa(lp250
L7000000000000000000000008235830000L
aL7000000000000000000000008235840000L
aS'367ede3a-8820-11e2-a0a0-000c29e250a1'
p251
aI01
aI01
aS'ab1cfc00-86bc-11e2-b908-fa163e065d0c'
p252
aa(lp253
L7000000000000000000000008235840000L
aL7000000000000000000000008235850000L
aS'367ee11e-8820-11e2-a0a0-000c29e250a1'
p254
aI01
aI01
aS'f9f7009c-86bb-11e2-a0b6-fa163e065d0c'
p255
aa(lp256
L7000000000000000000000008235850000L
aL7000000000000000000000008235860000L
aS'367ee402-8820-11e2-a0a0-000c29e250a1'
p257
aI01
aI01
aS'fb051a5a-86bb-11e2-bf39-fa163e065d0c'
p258
aa(lp259
L7000000000000000000000008235860000L
aL7000000000000000000000008235870000L
aS'367ee6e6-8820-11e2-a0a0-000c29e250a1'
p260
aI01
aI00
aNaa(lp261
L7000000000000000000000008235870000L
aL7000000000000000000000008235880000L
aS'367ee9de-8820-11e2-a0a0-000c29e250a1'
p262
aI01
aI01
aS'fc94b060-86bb-11e2-acb1-fa163e065d0c'
p263
aa(lp264
L7000000000000000000000008235880000L
aL7000000000000000000000008235890000L
aS'3680103e-8820-11e2-a0a0-000c29e250a1'
p265
aI01
aI01
aS'fd0107e2-86bb-11e2-80cc-fa163e065d0c'
p266
aa(lp267
L7000000000000000000000008235890000L
aL7000000000000000000000008235900000L
aS'368016c4-8820-11e2-a0a0-000c29e250a1'
p268
aI01
aI00
aNaa(lp269
L7000000000000000000000008235900000L
aL7000000000000000000000008235910000L
aS'36801a66-8820-11e2-a0a0-000c29e250a1'
p270
aI01
aI01
aS'fc1b6e62-86bb-11e2-98f6-fa163e065d0c'
p271
aa(lp272
L7000000000000000000000008235910000L
aL7000000000000000000000008235920000L
aS'3680215a-8820-11e2-a0a0-000c29e250a1'
p273
aI01
aI01
aS'aa94c808-86bc-11e2-931d-fa163e065d0c'
p274
aa(lp275
L7000000000000000000000008235920000L
aL7000000000000000000000008235930000L
aS'36802452-8820-11e2-a0a0-000c29e250a1'
p276
aI01
aI01
aS'fba6e02e-86bb-11e2-a775-fa163e065d0c'
p277
aa(lp278
L7000000000000000000000008235930000L
aL7000000000000000000000008235940000L
aS'3680274a-8820-11e2-a0a0-000c29e250a1'
p279
aI01
aI01
aS'2603497e-8820-11e2-b8cb-000c295aaa91'
p280
aa(lp281
L7000000000000000000000008235940000L
aL7000000000000000000000008235950000L
aS'36802ab0-8820-11e2-a0a0-000c29e250a1'
p282
aI01
aI01
aS'ab1cfc00-86bc-11e2-b908-fa163e065d0c'
p283
aa(lp284
L7000000000000000000000008235950000L
aL7000000000000000000000008235960000L
aS'36802d80-8820-11e2-a0a0-000c29e250a1'
p285
aI01
aI01
aS'f9f7009c-86bb-11e2-a0b6-fa163e065d0c'
p286
aa(lp287
L7000000000000000000000008235960000L
aL7000000000000000000000008235970000L
aS'3680300a-8820-11e2-a0a0-000c29e250a1'
p288
aI01
aI01
aS'fb051a5a-86bb-11e2-bf39-fa163e065d0c'
p289
aa(lp290
L7000000000000000000000008235970000L
aL7000000000000000000000008235980000L
aS'36803280-8820-11e2-a0a0-000c29e250a1'
p291
aI01
aI01
aS'fc94b060-86bb-11e2-acb1-fa163e065d0c'
p292
aa(lp293
L7000000000000000000000008235980000L
aL7000000000000000000000008235990000L
aS'368034ec-8820-11e2-a0a0-000c29e250a1'
p294
aI01
aI01
aS'fd0107e2-86bb-11e2-80cc-fa163e065d0c'
p295
aa(lp296
L7000000000000000000000008235990000L
aL7000000000000000000000008236000000L
aS'36803758-8820-11e2-a0a0-000c29e250a1'
p297
aI01
aI01
aS'fc1b6e62-86bb-11e2-98f6-fa163e065d0c'
p298
aa.