(lp1
(lp2
I1
aI1000
aS'89bc6184-82ae-11e2-a53c-000c29e250a1'
p3
aI01
aI01
aa(lp4
I1001
aI2000
aS'89bd0e4a-82ae-11e2-a53c-000c29e250a1'
p5
aI01
aI01
aa(lp6
I2001
aI3000
aS'89bd8eba-82ae-11e2-a53c-000c29e250a1'
p7
aI01
aI01
aa(lp8
I3001
aI4000
aS'89bdd76c-82ae-11e2-a53c-000c29e250a1'
p9
aI01
aI01
aa(lp10
I4001
aI5000
aS'89be2104-82ae-11e2-a53c-000c29e250a1'
p11
aI01
aI01
aa(lp12
I5001
aI6000
aS'89be2c26-82ae-11e2-a53c-000c29e250a1'
p13
aI01
aI01
aa(lp14
I6001
aI7000
aS'89be31b2-82ae-11e2-a53c-000c29e250a1'
p15
aI01
aI01
aa(lp16
I7001
aI8000
aS'89be373e-82ae-11e2-a53c-000c29e250a1'
p17
aI01
aI01
aa(lp18
I8001
aI9000
aS'89be3cc0-82ae-11e2-a53c-000c29e250a1'
p19
aI01
aI01
aa(lp20
I9001
aI10000
aS'89be426a-82ae-11e2-a53c-000c29e250a1'
p21
aI01
aI01
aa.