(lp1
(lp2
L5752090994058710841686393953731520L
aL5752090994058710841686393973731520L
aS'41041c30-42e0-11e5-aa2b-bcaec562e169'
p3
aI01
aI01
aS'17f0c7d6-42d5-11e5-85b8-bcaec562e169'
p4
aa(lp5
L5752090994058710841686393973731520L
aL5752090994058710841686393993731520L
aS'41041e9c-42e0-11e5-aa2b-bcaec562e169'
p6
aI01
aI01
aS'ac7a6ca6-42d3-11e5-a225-bcaec562e169'
p7
aa(lp8
L5752090994058710841686393993731520L
aL5752090994058710841686394013731520L
aS'41042022-42e0-11e5-aa2b-bcaec562e169'
p9
aI01
aI01
aS'db7412da-42d5-11e5-9c29-bcaec562e169'
p10
aa(lp11
L5752090994058710841686394013731520L
aL5752090994058710841686394033731520L
aS'410421a8-42e0-11e5-aa2b-bcaec562e169'
p12
aI01
aI01
aS'43135870-42d5-11e5-9583-bcaec562e169'
p13
aa(lp14
L5752090994058710841686394033731520L
aL5752090994058710841686394053731520L
aS'4104232e-42e0-11e5-aa2b-bcaec562e169'
p15
aI01
aI01
aS'2e8632fa-42d6-11e5-84ee-bcaec562e169'
p16
aa(lp17
L5752090994058710841686394053731520L
aL5752090994058710841686394073731520L
aS'410424aa-42e0-11e5-aa2b-bcaec562e169'
p18
aI01
aI01
aS'17f0c7d6-42d5-11e5-85b8-bcaec562e169'
p19
aa(lp20
L5752090994058710841686394073731520L
aL5752090994058710841686394093731520L
aS'41042630-42e0-11e5-aa2b-bcaec562e169'
p21
aI01
aI01
aS'ac7a6ca6-42d3-11e5-a225-bcaec562e169'
p22
aa(lp23
L5752090994058710841686394093731520L
aL5752090994058710841686394113731520L
aS'410427ac-42e0-11e5-aa2b-bcaec562e169'
p24
aI01
aI01
aS'db7412da-42d5-11e5-9c29-bcaec562e169'
p25
aa(lp26
L5752090994058710841686394113731520L
aL5752090994058710841686394133731520L
aS'4104293c-42e0-11e5-aa2b-bcaec562e169'
p27
aI01
aI01
aS'43135870-42d5-11e5-9583-bcaec562e169'
p28
aa(lp29
L5752090994058710841686394133731520L
aL5752090994058710841686394153731520L
aS'41042ac2-42e0-11e5-aa2b-bcaec562e169'
p30
aI01
aI01
aS'2e8632fa-42d6-11e5-84ee-bcaec562e169'
p31
aa(lp32
L5752090994058710841686394153731520L
aL5752090994058710841686394173731520L
aS'41042c34-42e0-11e5-aa2b-bcaec562e169'
p33
aI01
aI01
aS'ac7a6ca6-42d3-11e5-a225-bcaec562e169'
p34
aa(lp35
L5752090994058710841686394173731520L
aL5752090994058710841686394193731520L
aS'41042db0-42e0-11e5-aa2b-bcaec562e169'
p36
aI01
aI01
aS'17f0c7d6-42d5-11e5-85b8-bcaec562e169'
p37
aa(lp38
L5752090994058710841686394193731520L
aL5752090994058710841686394213731520L
aS'41042f2c-42e0-11e5-aa2b-bcaec562e169'
p39
aI01
aI01
aS'ac7a6ca6-42d3-11e5-a225-bcaec562e169'
p40
aa(lp41
L5752090994058710841686394213731520L
aL5752090994058710841686394233731520L
aS'4104309e-42e0-11e5-aa2b-bcaec562e169'
p42
aI01
aI01
aS'db7412da-42d5-11e5-9c29-bcaec562e169'
p43
aa(lp44
L5752090994058710841686394233731520L
aL5752090994058710841686394253731520L
aS'41043224-42e0-11e5-aa2b-bcaec562e169'
p45
aI01
aI01
aS'43135870-42d5-11e5-9583-bcaec562e169'
p46
aa(lp47
L5752090994058710841686394253731520L
aL5752090994058710841686394273731520L
aS'410433a0-42e0-11e5-aa2b-bcaec562e169'
p48
aI01
aI01
aS'17f0c7d6-42d5-11e5-85b8-bcaec562e169'
p49
aa(lp50
L5752090994058710841686394273731520L
aL5752090994058710841686394293731520L
aS'4104353a-42e0-11e5-aa2b-bcaec562e169'
p51
aI01
aI01
aS'2e8632fa-42d6-11e5-84ee-bcaec562e169'
p52
aa(lp53
L5752090994058710841686394293731520L
aL5752090994058710841686394313731520L
aS'410436ca-42e0-11e5-aa2b-bcaec562e169'
p54
aI01
aI01
aS'ac7a6ca6-42d3-11e5-a225-bcaec562e169'
p55
aa(lp56
L5752090994058710841686394313731520L
aL5752090994058710841686394333731520L
aS'41043850-42e0-11e5-aa2b-bcaec562e169'
p57
aI01
aI01
aS'17f0c7d6-42d5-11e5-85b8-bcaec562e169'
p58
aa(lp59
L5752090994058710841686394333731520L
aL5752090994058710841686394353731520L
aS'410439cc-42e0-11e5-aa2b-bcaec562e169'
p60
aI01
aI01
aS'db7412da-42d5-11e5-9c29-bcaec562e169'
p61
aa(lp62
L5752090994058710841686394353731520L
aL5752090994058710841686394373731520L
aS'41043b3e-42e0-11e5-aa2b-bcaec562e169'
p63
aI01
aI01
aS'43135870-42d5-11e5-9583-bcaec562e169'
p64
aa(lp65
L5752090994058710841686394373731520L
aL5752090994058710841686394393731520L
aS'41043cba-42e0-11e5-aa2b-bcaec562e169'
p66
aI01
aI01
aS'2e8632fa-42d6-11e5-84ee-bcaec562e169'
p67
aa(lp68
L5752090994058710841686394393731520L
aL5752090994058710841686394413731520L
aS'41043e36-42e0-11e5-aa2b-bcaec562e169'
p69
aI01
aI01
aS'ac7a6ca6-42d3-11e5-a225-bcaec562e169'
p70
aa(lp71
L5752090994058710841686394413731520L
aL5752090994058710841686394433731520L
aS'41043fb2-42e0-11e5-aa2b-bcaec562e169'
p72
aI01
aI01
aS'17f0c7d6-42d5-11e5-85b8-bcaec562e169'
p73
aa(lp74
L5752090994058710841686394433731520L
aL5752090994058710841686394453731520L
aS'41044138-42e0-11e5-aa2b-bcaec562e169'
p75
aI01
aI01
aS'db7412da-42d5-11e5-9c29-bcaec562e169'
p76
aa(lp77
L5752090994058710841686394453731520L
aL5752090994058710841686394473731520L
aS'410442be-42e0-11e5-aa2b-bcaec562e169'
p78
aI01
aI01
aS'43135870-42d5-11e5-9583-bcaec562e169'
p79
aa(lp80
L5752090994058710841686394473731520L
aL5752090994058710841686394493731520L
aS'41044430-42e0-11e5-aa2b-bcaec562e169'
p81
aI01
aI01
aS'2e8632fa-42d6-11e5-84ee-bcaec562e169'
p82
aa(lp83
L5752090994058710841686394493731520L
aL5752090994058710841686394513731520L
aS'410445a2-42e0-11e5-aa2b-bcaec562e169'
p84
aI01
aI01
aS'ac7a6ca6-42d3-11e5-a225-bcaec562e169'
p85
aa(lp86
L5752090994058710841686394513731520L
aL5752090994058710841686394533731520L
aS'41044714-42e0-11e5-aa2b-bcaec562e169'
p87
aI01
aI01
aS'17f0c7d6-42d5-11e5-85b8-bcaec562e169'
p88
aa(lp89
L5752090994058710841686394533731520L
aL5752090994058710841686394553731520L
aS'4104487c-42e0-11e5-aa2b-bcaec562e169'
p90
aI01
aI01
aS'db7412da-42d5-11e5-9c29-bcaec562e169'
p91
aa(lp92
L5752090994058710841686394553731520L
aL5752090994058710841686394573731520L
aS'410449ee-42e0-11e5-aa2b-bcaec562e169'
p93
aI01
aI01
aS'ac7a6ca6-42d3-11e5-a225-bcaec562e169'
p94
aa(lp95
L5752090994058710841686394573731520L
aL5752090994058710841686394593731520L
aS'41044b56-42e0-11e5-aa2b-bcaec562e169'
p96
aI01
aI01
aS'43135870-42d5-11e5-9583-bcaec562e169'
p97
aa(lp98
L5752090994058710841686394593731520L
aL5752090994058710841686394613731520L
aS'41044cbe-42e0-11e5-aa2b-bcaec562e169'
p99
aI01
aI01
aS'2e8632fa-42d6-11e5-84ee-bcaec562e169'
p100
aa(lp101
L5752090994058710841686394613731520L
aL5752090994058710841686394633731520L
aS'41044e30-42e0-11e5-aa2b-bcaec562e169'
p102
aI01
aI01
aS'17f0c7d6-42d5-11e5-85b8-bcaec562e169'
p103
aa(lp104
L5752090994058710841686394633731520L
aL5752090994058710841686394653731520L
aS'41044fa2-42e0-11e5-aa2b-bcaec562e169'
p105
aI01
aI01
aS'ac7a6ca6-42d3-11e5-a225-bcaec562e169'
p106
aa(lp107
L5752090994058710841686394653731520L
aL5752090994058710841686394673731520L
aS'4104510a-42e0-11e5-aa2b-bcaec562e169'
p108
aI01
aI01
aS'db7412da-42d5-11e5-9c29-bcaec562e169'
p109
aa(lp110
L5752090994058710841686394673731520L
aL5752090994058710841686394693731520L
aS'41045286-42e0-11e5-aa2b-bcaec562e169'
p111
aI01
aI01
aS'43135870-42d5-11e5-9583-bcaec562e169'
p112
aa(lp113
L5752090994058710841686394693731520L
aL5752090994058710841686394713731520L
aS'410453f8-42e0-11e5-aa2b-bcaec562e169'
p114
aI01
aI01
aS'17f0c7d6-42d5-11e5-85b8-bcaec562e169'
p115
aa(lp116
L5752090994058710841686394713731520L
aL5752090994058710841686394733731520L
aS'4104556a-42e0-11e5-aa2b-bcaec562e169'
p117
aI01
aI01
aS'ac7a6ca6-42d3-11e5-a225-bcaec562e169'
p118
aa(lp119
L5752090994058710841686394733731520L
aL5752090994058710841686394753731520L
aS'410456dc-42e0-11e5-aa2b-bcaec562e169'
p120
aI01
aI01
aS'db7412da-42d5-11e5-9c29-bcaec562e169'
p121
aa(lp122
L5752090994058710841686394753731520L
aL5752090994058710841686394773731520L
aS'4104584e-42e0-11e5-aa2b-bcaec562e169'
p123
aI01
aI01
aS'43135870-42d5-11e5-9583-bcaec562e169'
p124
aa(lp125
L5752090994058710841686394773731520L
aL5752090994058710841686394793731520L
aS'410459c0-42e0-11e5-aa2b-bcaec562e169'
p126
aI01
aI01
aS'17f0c7d6-42d5-11e5-85b8-bcaec562e169'
p127
aa(lp128
L5752090994058710841686394793731520L
aL5752090994058710841686394813731520L
aS'41045b32-42e0-11e5-aa2b-bcaec562e169'
p129
aI01
aI01
aS'ac7a6ca6-42d3-11e5-a225-bcaec562e169'
p130
aa(lp131
L5752090994058710841686394813731520L
aL5752090994058710841686394833731520L
aS'41045c9a-42e0-11e5-aa2b-bcaec562e169'
p132
aI01
aI01
aS'db7412da-42d5-11e5-9c29-bcaec562e169'
p133
aa(lp134
L5752090994058710841686394833731520L
aL5752090994058710841686394853731520L
aS'41045e02-42e0-11e5-aa2b-bcaec562e169'
p135
aI01
aI01
aS'43135870-42d5-11e5-9583-bcaec562e169'
p136
aa(lp137
L5752090994058710841686394853731520L
aL5752090994058710841686394873731520L
aS'41045f60-42e0-11e5-aa2b-bcaec562e169'
p138
aI01
aI01
aS'17f0c7d6-42d5-11e5-85b8-bcaec562e169'
p139
aa(lp140
L5752090994058710841686394873731520L
aL5752090994058710841686394893731520L
aS'410460d2-42e0-11e5-aa2b-bcaec562e169'
p141
aI01
aI01
aS'ac7a6ca6-42d3-11e5-a225-bcaec562e169'
p142
aa(lp143
L5752090994058710841686394893731520L
aL5752090994058710841686394913731520L
aS'41046244-42e0-11e5-aa2b-bcaec562e169'
p144
aI01
aI01
aS'2e8632fa-42d6-11e5-84ee-bcaec562e169'
p145
aa(lp146
L5752090994058710841686394913731520L
aL5752090994058710841686394933731520L
aS'410463b6-42e0-11e5-aa2b-bcaec562e169'
p147
aI01
aI01
aS'db7412da-42d5-11e5-9c29-bcaec562e169'
p148
aa(lp149
L5752090994058710841686394933731520L
aL5752090994058710841686394953731520L
aS'4104651e-42e0-11e5-aa2b-bcaec562e169'
p150
aI01
aI01
aS'43135870-42d5-11e5-9583-bcaec562e169'
p151
aa(lp152
L5752090994058710841686394953731520L
aL5752090994058710841686394973731520L
aS'41046690-42e0-11e5-aa2b-bcaec562e169'
p153
aI01
aI01
aS'17f0c7d6-42d5-11e5-85b8-bcaec562e169'
p154
aa(lp155
L5752090994058710841686394973731520L
aL5752090994058710841686394993731520L
aS'410467f8-42e0-11e5-aa2b-bcaec562e169'
p156
aI01
aI01
aS'ac7a6ca6-42d3-11e5-a225-bcaec562e169'
p157
aa(lp158
L5752090994058710841686394993731520L
aL5752090994058710841686395013731520L
aS'41046974-42e0-11e5-aa2b-bcaec562e169'
p159
aI01
aI01
aS'2e8632fa-42d6-11e5-84ee-bcaec562e169'
p160
aa(lp161
L5752090994058710841686395013731520L
aL5752090994058710841686395033731520L
aS'41046adc-42e0-11e5-aa2b-bcaec562e169'
p162
aI01
aI01
aS'17f0c7d6-42d5-11e5-85b8-bcaec562e169'
p163
aa(lp164
L5752090994058710841686395033731520L
aL5752090994058710841686395053731520L
aS'41046c44-42e0-11e5-aa2b-bcaec562e169'
p165
aI01
aI01
aS'db7412da-42d5-11e5-9c29-bcaec562e169'
p166
aa(lp167
L5752090994058710841686395053731520L
aL5752090994058710841686395073731520L
aS'41046db6-42e0-11e5-aa2b-bcaec562e169'
p168
aI01
aI01
aS'43135870-42d5-11e5-9583-bcaec562e169'
p169
aa(lp170
L5752090994058710841686395073731520L
aL5752090994058710841686395093731520L
aS'41046f78-42e0-11e5-aa2b-bcaec562e169'
p171
aI01
aI01
aS'ac7a6ca6-42d3-11e5-a225-bcaec562e169'
p172
aa(lp173
L5752090994058710841686395093731520L
aL5752090994058710841686395113731520L
aS'410470f4-42e0-11e5-aa2b-bcaec562e169'
p174
aI01
aI01
aS'17f0c7d6-42d5-11e5-85b8-bcaec562e169'
p175
aa(lp176
L5752090994058710841686395113731520L
aL5752090994058710841686395133731520L
aS'41047284-42e0-11e5-aa2b-bcaec562e169'
p177
aI01
aI01
aS'2e8632fa-42d6-11e5-84ee-bcaec562e169'
p178
aa(lp179
L5752090994058710841686395133731520L
aL5752090994058710841686395153731520L
aS'41047400-42e0-11e5-aa2b-bcaec562e169'
p180
aI01
aI01
aS'ac7a6ca6-42d3-11e5-a225-bcaec562e169'
p181
aa(lp182
L5752090994058710841686395153731520L
aL5752090994058710841686395173731520L
aS'41047572-42e0-11e5-aa2b-bcaec562e169'
p183
aI01
aI01
aS'db7412da-42d5-11e5-9c29-bcaec562e169'
p184
aa(lp185
L5752090994058710841686395173731520L
aL5752090994058710841686395193731520L
aS'410476d0-42e0-11e5-aa2b-bcaec562e169'
p186
aI01
aI01
aS'43135870-42d5-11e5-9583-bcaec562e169'
p187
aa(lp188
L5752090994058710841686395193731520L
aL5752090994058710841686395213731520L
aS'41047842-42e0-11e5-aa2b-bcaec562e169'
p189
aI01
aI01
aS'17f0c7d6-42d5-11e5-85b8-bcaec562e169'
p190
aa(lp191
L5752090994058710841686395213731520L
aL5752090994058710841686395233731520L
aS'410479aa-42e0-11e5-aa2b-bcaec562e169'
p192
aI01
aI01
aS'ac7a6ca6-42d3-11e5-a225-bcaec562e169'
p193
aa(lp194
L5752090994058710841686395233731520L
aL5752090994058710841686395253731520L
aS'41047b12-42e0-11e5-aa2b-bcaec562e169'
p195
aI01
aI01
aS'2e8632fa-42d6-11e5-84ee-bcaec562e169'
p196
aa(lp197
L5752090994058710841686395253731520L
aL5752090994058710841686395273731520L
aS'41047c7a-42e0-11e5-aa2b-bcaec562e169'
p198
aI01
aI01
aS'db7412da-42d5-11e5-9c29-bcaec562e169'
p199
aa(lp200
L5752090994058710841686395273731520L
aL5752090994058710841686395293731520L
aS'41047dec-42e0-11e5-aa2b-bcaec562e169'
p201
aI01
aI01
aS'43135870-42d5-11e5-9583-bcaec562e169'
p202
aa(lp203
L5752090994058710841686395293731520L
aL5752090994058710841686395313731520L
aS'41047f54-42e0-11e5-aa2b-bcaec562e169'
p204
aI01
aI01
aS'17f0c7d6-42d5-11e5-85b8-bcaec562e169'
p205
aa(lp206
L5752090994058710841686395313731520L
aL5752090994058710841686395333731520L
aS'410480bc-42e0-11e5-aa2b-bcaec562e169'
p207
aI01
aI01
aS'ac7a6ca6-42d3-11e5-a225-bcaec562e169'
p208
aa(lp209
L5752090994058710841686395333731520L
aL5752090994058710841686395353731520L
aS'4104822e-42e0-11e5-aa2b-bcaec562e169'
p210
aI01
aI01
aS'2e8632fa-42d6-11e5-84ee-bcaec562e169'
p211
aa(lp212
L5752090994058710841686395353731520L
aL5752090994058710841686395373731520L
aS'41048396-42e0-11e5-aa2b-bcaec562e169'
p213
aI01
aI01
aS'db7412da-42d5-11e5-9c29-bcaec562e169'
p214
aa(lp215
L5752090994058710841686395373731520L
aL5752090994058710841686395393731520L
aS'410484fe-42e0-11e5-aa2b-bcaec562e169'
p216
aI01
aI01
aS'43135870-42d5-11e5-9583-bcaec562e169'
p217
aa(lp218
L5752090994058710841686395393731520L
aL5752090994058710841686395413731520L
aS'41048670-42e0-11e5-aa2b-bcaec562e169'
p219
aI01
aI01
aS'ac7a6ca6-42d3-11e5-a225-bcaec562e169'
p220
aa(lp221
L5752090994058710841686395413731520L
aL5752090994058710841686395433731520L
aS'410487e2-42e0-11e5-aa2b-bcaec562e169'
p222
aI01
aI01
aS'17f0c7d6-42d5-11e5-85b8-bcaec562e169'
p223
aa(lp224
L5752090994058710841686395433731520L
aL5752090994058710841686395453731520L
aS'4104894a-42e0-11e5-aa2b-bcaec562e169'
p225
aI01
aI01
aS'2e8632fa-42d6-11e5-84ee-bcaec562e169'
p226
aa(lp227
L5752090994058710841686395453731520L
aL5752090994058710841686395473731520L
aS'41048abc-42e0-11e5-aa2b-bcaec562e169'
p228
aI01
aI01
aS'db7412da-42d5-11e5-9c29-bcaec562e169'
p229
aa(lp230
L5752090994058710841686395473731520L
aL5752090994058710841686395493731520L
aS'41048c2e-42e0-11e5-aa2b-bcaec562e169'
p231
aI01
aI01
aS'ac7a6ca6-42d3-11e5-a225-bcaec562e169'
p232
aa(lp233
L5752090994058710841686395493731520L
aL5752090994058710841686395513731520L
aS'41048d96-42e0-11e5-aa2b-bcaec562e169'
p234
aI01
aI01
aS'43135870-42d5-11e5-9583-bcaec562e169'
p235
aa(lp236
L5752090994058710841686395513731520L
aL5752090994058710841686395533731520L
aS'41048f08-42e0-11e5-aa2b-bcaec562e169'
p237
aI01
aI01
aS'17f0c7d6-42d5-11e5-85b8-bcaec562e169'
p238
aa(lp239
L5752090994058710841686395533731520L
aL5752090994058710841686395553731520L
aS'4104907a-42e0-11e5-aa2b-bcaec562e169'
p240
aI01
aI01
aS'2e8632fa-42d6-11e5-84ee-bcaec562e169'
p241
aa(lp242
L5752090994058710841686395553731520L
aL5752090994058710841686395573731520L
aS'410491ec-42e0-11e5-aa2b-bcaec562e169'
p243
aI01
aI01
aS'ac7a6ca6-42d3-11e5-a225-bcaec562e169'
p244
aa(lp245
L5752090994058710841686395573731520L
aL5752090994058710841686395593731520L
aS'4104935e-42e0-11e5-aa2b-bcaec562e169'
p246
aI01
aI01
aS'17f0c7d6-42d5-11e5-85b8-bcaec562e169'
p247
aa(lp248
L5752090994058710841686395593731520L
aL5752090994058710841686395613731520L
aS'410494da-42e0-11e5-aa2b-bcaec562e169'
p249
aI01
aI01
aS'db7412da-42d5-11e5-9c29-bcaec562e169'
p250
aa(lp251
L5752090994058710841686395613731520L
aL5752090994058710841686395633731520L
aS'4104964c-42e0-11e5-aa2b-bcaec562e169'
p252
aI01
aI01
aS'43135870-42d5-11e5-9583-bcaec562e169'
p253
aa(lp254
L5752090994058710841686395633731520L
aL5752090994058710841686395653731520L
aS'410497be-42e0-11e5-aa2b-bcaec562e169'
p255
aI01
aI01
aS'ac7a6ca6-42d3-11e5-a225-bcaec562e169'
p256
aa(lp257
L5752090994058710841686395653731520L
aL5752090994058710841686395673731520L
aS'41049926-42e0-11e5-aa2b-bcaec562e169'
p258
aI01
aI01
aS'17f0c7d6-42d5-11e5-85b8-bcaec562e169'
p259
aa(lp260
L5752090994058710841686395673731520L
aL5752090994058710841686395693731520L
aS'41049a98-42e0-11e5-aa2b-bcaec562e169'
p261
aI01
aI01
aS'2e8632fa-42d6-11e5-84ee-bcaec562e169'
p262
aa(lp263
L5752090994058710841686395693731520L
aL5752090994058710841686395713731520L
aS'41049c00-42e0-11e5-aa2b-bcaec562e169'
p264
aI01
aI01
aS'db7412da-42d5-11e5-9c29-bcaec562e169'
p265
aa(lp266
L5752090994058710841686395713731520L
aL5752090994058710841686395733731520L
aS'41049d7c-42e0-11e5-aa2b-bcaec562e169'
p267
aI01
aI01
aS'43135870-42d5-11e5-9583-bcaec562e169'
p268
aa(lp269
L5752090994058710841686395733731520L
aL5752090994058710841686395753731520L
aS'41049eee-42e0-11e5-aa2b-bcaec562e169'
p270
aI01
aI01
aS'ac7a6ca6-42d3-11e5-a225-bcaec562e169'
p271
aa(lp272
L5752090994058710841686395753731520L
aL5752090994058710841686395773731520L
aS'4104a060-42e0-11e5-aa2b-bcaec562e169'
p273
aI01
aI01
aS'17f0c7d6-42d5-11e5-85b8-bcaec562e169'
p274
aa(lp275
L5752090994058710841686395773731520L
aL5752090994058710841686395793731520L
aS'4104a1c8-42e0-11e5-aa2b-bcaec562e169'
p276
aI01
aI01
aS'2e8632fa-42d6-11e5-84ee-bcaec562e169'
p277
aa(lp278
L5752090994058710841686395793731520L
aL5752090994058710841686395813731520L
aS'4104a33a-42e0-11e5-aa2b-bcaec562e169'
p279
aI01
aI01
aS'db7412da-42d5-11e5-9c29-bcaec562e169'
p280
aa(lp281
L5752090994058710841686395813731520L
aL5752090994058710841686395833731520L
aS'4104a4ac-42e0-11e5-aa2b-bcaec562e169'
p282
aI01
aI01
aS'43135870-42d5-11e5-9583-bcaec562e169'
p283
aa(lp284
L5752090994058710841686395833731520L
aL5752090994058710841686395853731520L
aS'4104a614-42e0-11e5-aa2b-bcaec562e169'
p285
aI01
aI01
aS'ac7a6ca6-42d3-11e5-a225-bcaec562e169'
p286
aa(lp287
L5752090994058710841686395853731520L
aL5752090994058710841686395873731520L
aS'4104a786-42e0-11e5-aa2b-bcaec562e169'
p288
aI01
aI01
aS'17f0c7d6-42d5-11e5-85b8-bcaec562e169'
p289
aa(lp290
L5752090994058710841686395873731520L
aL5752090994058710841686395893731520L
aS'4104a8f8-42e0-11e5-aa2b-bcaec562e169'
p291
aI01
aI01
aS'2e8632fa-42d6-11e5-84ee-bcaec562e169'
p292
aa(lp293
L5752090994058710841686395893731520L
aL5752090994058710841686395913731520L
aS'4104aa6a-42e0-11e5-aa2b-bcaec562e169'
p294
aI01
aI01
aS'ac7a6ca6-42d3-11e5-a225-bcaec562e169'
p295
aa(lp296
L5752090994058710841686395913731520L
aL5752090994058710841686395933731520L
aS'4104abd2-42e0-11e5-aa2b-bcaec562e169'
p297
aI01
aI01
aS'db7412da-42d5-11e5-9c29-bcaec562e169'
p298
aa(lp299
L5752090994058710841686395933731520L
aL5752090994058710841686395953731520L
aS'4104ad44-42e0-11e5-aa2b-bcaec562e169'
p300
aI01
aI01
aS'43135870-42d5-11e5-9583-bcaec562e169'
p301
aa(lp302
L5752090994058710841686395953731520L
aL5752090994058710841686395973731520L
aS'4104aeca-42e0-11e5-aa2b-bcaec562e169'
p303
aI01
aI01
aS'17f0c7d6-42d5-11e5-85b8-bcaec562e169'
p304
aa(lp305
L5752090994058710841686395973731520L
aL5752090994058710841686395993731520L
aS'4104b03c-42e0-11e5-aa2b-bcaec562e169'
p306
aI01
aI01
aS'ac7a6ca6-42d3-11e5-a225-bcaec562e169'
p307
aa(lp308
L5752090994058710841686395993731520L
aL5752090994058710841686396013731520L
aS'4104b1ae-42e0-11e5-aa2b-bcaec562e169'
p309
aI01
aI01
aS'2e8632fa-42d6-11e5-84ee-bcaec562e169'
p310
aa(lp311
L5752090994058710841686396013731520L
aL5752090994058710841686396033731520L
aS'4104b32a-42e0-11e5-aa2b-bcaec562e169'
p312
aI01
aI01
aS'db7412da-42d5-11e5-9c29-bcaec562e169'
p313
aa(lp314
L5752090994058710841686396033731520L
aL5752090994058710841686396053731520L
aS'4104b492-42e0-11e5-aa2b-bcaec562e169'
p315
aI01
aI01
aS'43135870-42d5-11e5-9583-bcaec562e169'
p316
aa(lp317
L5752090994058710841686396053731520L
aL5752090994058710841686396073731520L
aS'4104b604-42e0-11e5-aa2b-bcaec562e169'
p318
aI01
aI01
aS'17f0c7d6-42d5-11e5-85b8-bcaec562e169'
p319
aa(lp320
L5752090994058710841686396073731520L
aL5752090994058710841686396093731520L
aS'4104b76c-42e0-11e5-aa2b-bcaec562e169'
p321
aI01
aI01
aS'ac7a6ca6-42d3-11e5-a225-bcaec562e169'
p322
aa(lp323
L5752090994058710841686396093731520L
aL5752090994058710841686396113731520L
aS'4104b942-42e0-11e5-aa2b-bcaec562e169'
p324
aI01
aI01
aS'2e8632fa-42d6-11e5-84ee-bcaec562e169'
p325
aa(lp326
L5752090994058710841686396113731520L
aL5752090994058710841686396133731520L
aS'4104babe-42e0-11e5-aa2b-bcaec562e169'
p327
aI01
aI01
aS'17f0c7d6-42d5-11e5-85b8-bcaec562e169'
p328
aa(lp329
L5752090994058710841686396133731520L
aL5752090994058710841686396153731520L
aS'4104bc26-42e0-11e5-aa2b-bcaec562e169'
p330
aI01
aI01
aS'db7412da-42d5-11e5-9c29-bcaec562e169'
p331
aa(lp332
L5752090994058710841686396153731520L
aL5752090994058710841686396173731520L
aS'4104bd98-42e0-11e5-aa2b-bcaec562e169'
p333
aI01
aI01
aS'43135870-42d5-11e5-9583-bcaec562e169'
p334
aa(lp335
L5752090994058710841686396173731520L
aL5752090994058710841686396193731520L
aS'4104bf0a-42e0-11e5-aa2b-bcaec562e169'
p336
aI01
aI01
aS'ac7a6ca6-42d3-11e5-a225-bcaec562e169'
p337
aa(lp338
L5752090994058710841686396193731520L
aL5752090994058710841686396213731520L
aS'4104c07c-42e0-11e5-aa2b-bcaec562e169'
p339
aI01
aI01
aS'2e8632fa-42d6-11e5-84ee-bcaec562e169'
p340
aa(lp341
L5752090994058710841686396213731520L
aL5752090994058710841686396233731520L
aS'4104c1e4-42e0-11e5-aa2b-bcaec562e169'
p342
aI01
aI01
aS'17f0c7d6-42d5-11e5-85b8-bcaec562e169'
p343
aa(lp344
L5752090994058710841686396233731520L
aL5752090994058710841686396253731520L
aS'4104c34c-42e0-11e5-aa2b-bcaec562e169'
p345
aI01
aI01
aS'db7412da-42d5-11e5-9c29-bcaec562e169'
p346
aa(lp347
L5752090994058710841686396253731520L
aL5752090994058710841686396273731520L
aS'4104c4be-42e0-11e5-aa2b-bcaec562e169'
p348
aI01
aI01
aS'43135870-42d5-11e5-9583-bcaec562e169'
p349
aa(lp350
L5752090994058710841686396273731520L
aL5752090994058710841686396293731520L
aS'4104c626-42e0-11e5-aa2b-bcaec562e169'
p351
aI01
aI01
aS'ac7a6ca6-42d3-11e5-a225-bcaec562e169'
p352
aa(lp353
L5752090994058710841686396293731520L
aL5752090994058710841686396313731520L
aS'4104c78e-42e0-11e5-aa2b-bcaec562e169'
p354
aI01
aI01
aS'17f0c7d6-42d5-11e5-85b8-bcaec562e169'
p355
aa(lp356
L5752090994058710841686396313731520L
aL5752090994058710841686396333731520L
aS'4104c900-42e0-11e5-aa2b-bcaec562e169'
p357
aI01
aI01
aS'2e8632fa-42d6-11e5-84ee-bcaec562e169'
p358
aa(lp359
L5752090994058710841686396333731520L
aL5752090994058710841686396353731520L
aS'4104ca72-42e0-11e5-aa2b-bcaec562e169'
p360
aI01
aI01
aS'ac7a6ca6-42d3-11e5-a225-bcaec562e169'
p361
aa(lp362
L5752090994058710841686396353731520L
aL5752090994058710841686396373731520L
aS'4104cbda-42e0-11e5-aa2b-bcaec562e169'
p363
aI01
aI01
aS'db7412da-42d5-11e5-9c29-bcaec562e169'
p364
aa(lp365
L5752090994058710841686396373731520L
aL5752090994058710841686396393731520L
aS'4104cd42-42e0-11e5-aa2b-bcaec562e169'
p366
aI01
aI01
aS'43135870-42d5-11e5-9583-bcaec562e169'
p367
aa(lp368
L5752090994058710841686396393731520L
aL5752090994058710841686396413731520L
aS'4104ceb4-42e0-11e5-aa2b-bcaec562e169'
p369
aI01
aI01
aS'17f0c7d6-42d5-11e5-85b8-bcaec562e169'
p370
aa(lp371
L5752090994058710841686396413731520L
aL5752090994058710841686396433731520L
aS'4104d026-42e0-11e5-aa2b-bcaec562e169'
p372
aI01
aI01
aS'ac7a6ca6-42d3-11e5-a225-bcaec562e169'
p373
aa(lp374
L5752090994058710841686396433731520L
aL5752090994058710841686396453731520L
aS'4104d198-42e0-11e5-aa2b-bcaec562e169'
p375
aI01
aI01
aS'2e8632fa-42d6-11e5-84ee-bcaec562e169'
p376
aa(lp377
L5752090994058710841686396453731520L
aL5752090994058710841686396473731520L
aS'4104d300-42e0-11e5-aa2b-bcaec562e169'
p378
aI01
aI01
aS'db7412da-42d5-11e5-9c29-bcaec562e169'
p379
aa(lp380
L5752090994058710841686396473731520L
aL5752090994058710841686396493731520L
aS'4104d468-42e0-11e5-aa2b-bcaec562e169'
p381
aI01
aI01
aS'43135870-42d5-11e5-9583-bcaec562e169'
p382
aa(lp383
L5752090994058710841686396493731520L
aL5752090994058710841686396513731520L
aS'4104d5e4-42e0-11e5-aa2b-bcaec562e169'
p384
aI01
aI01
aS'17f0c7d6-42d5-11e5-85b8-bcaec562e169'
p385
aa(lp386
L5752090994058710841686396513731520L
aL5752090994058710841686396533731520L
aS'4104d74c-42e0-11e5-aa2b-bcaec562e169'
p387
aI01
aI01
aS'ac7a6ca6-42d3-11e5-a225-bcaec562e169'
p388
aa(lp389
L5752090994058710841686396533731520L
aL5752090994058710841686396553731520L
aS'4104d8b4-42e0-11e5-aa2b-bcaec562e169'
p390
aI01
aI01
aS'2e8632fa-42d6-11e5-84ee-bcaec562e169'
p391
aa(lp392
L5752090994058710841686396553731520L
aL5752090994058710841686396573731520L
aS'4104da26-42e0-11e5-aa2b-bcaec562e169'
p393
aI01
aI01
aS'db7412da-42d5-11e5-9c29-bcaec562e169'
p394
aa(lp395
L5752090994058710841686396573731520L
aL5752090994058710841686396593731520L
aS'4104db98-42e0-11e5-aa2b-bcaec562e169'
p396
aI01
aI01
aS'43135870-42d5-11e5-9583-bcaec562e169'
p397
aa(lp398
L5752090994058710841686396593731520L
aL5752090994058710841686396613731520L
aS'4104dd00-42e0-11e5-aa2b-bcaec562e169'
p399
aI01
aI01
aS'17f0c7d6-42d5-11e5-85b8-bcaec562e169'
p400
aa(lp401
L5752090994058710841686396613731520L
aL5752090994058710841686396633731520L
aS'4104dea4-42e0-11e5-aa2b-bcaec562e169'
p402
aI01
aI01
aS'ac7a6ca6-42d3-11e5-a225-bcaec562e169'
p403
aa(lp404
L5752090994058710841686396633731520L
aL5752090994058710841686396653731520L
aS'4104e070-42e0-11e5-aa2b-bcaec562e169'
p405
aI01
aI01
aS'2e8632fa-42d6-11e5-84ee-bcaec562e169'
p406
aa(lp407
L5752090994058710841686396653731520L
aL5752090994058710841686396673731520L
aS'4104e214-42e0-11e5-aa2b-bcaec562e169'
p408
aI01
aI01
aS'db7412da-42d5-11e5-9c29-bcaec562e169'
p409
aa(lp410
L5752090994058710841686396673731520L
aL5752090994058710841686396693731520L
aS'4104e3c2-42e0-11e5-aa2b-bcaec562e169'
p411
aI01
aI01
aS'43135870-42d5-11e5-9583-bcaec562e169'
p412
aa(lp413
L5752090994058710841686396693731520L
aL5752090994058710841686396713731520L
aS'4104e566-42e0-11e5-aa2b-bcaec562e169'
p414
aI01
aI01
aS'17f0c7d6-42d5-11e5-85b8-bcaec562e169'
p415
aa(lp416
L5752090994058710841686396713731520L
aL5752090994058710841686396733731520L
aS'4104e6d8-42e0-11e5-aa2b-bcaec562e169'
p417
aI01
aI01
aS'ac7a6ca6-42d3-11e5-a225-bcaec562e169'
p418
aa(lp419
L5752090994058710841686396733731520L
aL5752090994058710841686396753731520L
aS'4104e84a-42e0-11e5-aa2b-bcaec562e169'
p420
aI01
aI01
aS'2e8632fa-42d6-11e5-84ee-bcaec562e169'
p421
aa(lp422
L5752090994058710841686396753731520L
aL5752090994058710841686396773731520L
aS'4104e9bc-42e0-11e5-aa2b-bcaec562e169'
p423
aI01
aI01
aS'ac7a6ca6-42d3-11e5-a225-bcaec562e169'
p424
aa(lp425
L5752090994058710841686396773731520L
aL5752090994058710841686396793731520L
aS'4104eb38-42e0-11e5-aa2b-bcaec562e169'
p426
aI01
aI01
aS'17f0c7d6-42d5-11e5-85b8-bcaec562e169'
p427
aa(lp428
L5752090994058710841686396793731520L
aL5752090994058710841686396813731520L
aS'4104ecbe-42e0-11e5-aa2b-bcaec562e169'
p429
aI01
aI01
aS'db7412da-42d5-11e5-9c29-bcaec562e169'
p430
aa(lp431
L5752090994058710841686396813731520L
aL5752090994058710841686396833731520L
aS'4104ee30-42e0-11e5-aa2b-bcaec562e169'
p432
aI01
aI01
aS'43135870-42d5-11e5-9583-bcaec562e169'
p433
aa(lp434
L5752090994058710841686396833731520L
aL5752090994058710841686396853731520L
aS'4104efa2-42e0-11e5-aa2b-bcaec562e169'
p435
aI01
aI01
aS'ac7a6ca6-42d3-11e5-a225-bcaec562e169'
p436
aa(lp437
L5752090994058710841686396853731520L
aL5752090994058710841686396873731520L
aS'4104f114-42e0-11e5-aa2b-bcaec562e169'
p438
aI01
aI01
aS'17f0c7d6-42d5-11e5-85b8-bcaec562e169'
p439
aa(lp440
L5752090994058710841686396873731520L
aL5752090994058710841686396893731520L
aS'4104f27c-42e0-11e5-aa2b-bcaec562e169'
p441
aI01
aI01
aS'2e8632fa-42d6-11e5-84ee-bcaec562e169'
p442
aa(lp443
L5752090994058710841686396893731520L
aL5752090994058710841686396913731520L
aS'4104f3ee-42e0-11e5-aa2b-bcaec562e169'
p444
aI01
aI01
aS'db7412da-42d5-11e5-9c29-bcaec562e169'
p445
aa(lp446
L5752090994058710841686396913731520L
aL5752090994058710841686396933731520L
aS'4104f556-42e0-11e5-aa2b-bcaec562e169'
p447
aI01
aI01
aS'43135870-42d5-11e5-9583-bcaec562e169'
p448
aa(lp449
L5752090994058710841686396933731520L
aL5752090994058710841686396953731520L
aS'4104f6d2-42e0-11e5-aa2b-bcaec562e169'
p450
aI01
aI01
aS'ac7a6ca6-42d3-11e5-a225-bcaec562e169'
p451
aa(lp452
L5752090994058710841686396953731520L
aL5752090994058710841686396973731520L
aS'4104f844-42e0-11e5-aa2b-bcaec562e169'
p453
aI01
aI01
aS'17f0c7d6-42d5-11e5-85b8-bcaec562e169'
p454
aa(lp455
L5752090994058710841686396973731520L
aL5752090994058710841686396993731520L
aS'4104f9b6-42e0-11e5-aa2b-bcaec562e169'
p456
aI01
aI01
aS'2e8632fa-42d6-11e5-84ee-bcaec562e169'
p457
aa(lp458
L5752090994058710841686396993731520L
aL5752090994058710841686397013731520L
aS'4104fb1e-42e0-11e5-aa2b-bcaec562e169'
p459
aI01
aI01
aS'43135870-42d5-11e5-9583-bcaec562e169'
p460
aa(lp461
L5752090994058710841686397013731520L
aL5752090994058710841686397033731520L
aS'4104fc90-42e0-11e5-aa2b-bcaec562e169'
p462
aI01
aI01
aS'db7412da-42d5-11e5-9c29-bcaec562e169'
p463
aa(lp464
L5752090994058710841686397033731520L
aL5752090994058710841686397053731520L
aS'4104fe02-42e0-11e5-aa2b-bcaec562e169'
p465
aI01
aI01
aS'ac7a6ca6-42d3-11e5-a225-bcaec562e169'
p466
aa(lp467
L5752090994058710841686397053731520L
aL5752090994058710841686397073731520L
aS'4104ff60-42e0-11e5-aa2b-bcaec562e169'
p468
aI01
aI01
aS'17f0c7d6-42d5-11e5-85b8-bcaec562e169'
p469
aa(lp470
L5752090994058710841686397073731520L
aL5752090994058710841686397093731520L
aS'410500d2-42e0-11e5-aa2b-bcaec562e169'
p471
aI01
aI01
aS'2e8632fa-42d6-11e5-84ee-bcaec562e169'
p472
aa(lp473
L5752090994058710841686397093731520L
aL5752090994058710841686397113731520L
aS'4105023a-42e0-11e5-aa2b-bcaec562e169'
p474
aI01
aI01
aS'43135870-42d5-11e5-9583-bcaec562e169'
p475
aa(lp476
L5752090994058710841686397113731520L
aL5752090994058710841686397133731520L
aS'410503a2-42e0-11e5-aa2b-bcaec562e169'
p477
aI01
aI01
aS'ac7a6ca6-42d3-11e5-a225-bcaec562e169'
p478
aa(lp479
L5752090994058710841686397133731520L
aL5752090994058710841686397153731520L
aS'4105050a-42e0-11e5-aa2b-bcaec562e169'
p480
aI01
aI01
aS'db7412da-42d5-11e5-9c29-bcaec562e169'
p481
aa(lp482
L5752090994058710841686397153731520L
aL5752090994058710841686397173731520L
aS'41050672-42e0-11e5-aa2b-bcaec562e169'
p483
aI01
aI01
aS'17f0c7d6-42d5-11e5-85b8-bcaec562e169'
p484
aa(lp485
L5752090994058710841686397173731520L
aL5752090994058710841686397193731520L
aS'410507e4-42e0-11e5-aa2b-bcaec562e169'
p486
aI01
aI01
aS'ac7a6ca6-42d3-11e5-a225-bcaec562e169'
p487
aa(lp488
L5752090994058710841686397193731520L
aL5752090994058710841686397213731520L
aS'4105094c-42e0-11e5-aa2b-bcaec562e169'
p489
aI01
aI01
aS'2e8632fa-42d6-11e5-84ee-bcaec562e169'
p490
aa(lp491
L5752090994058710841686397213731520L
aL5752090994058710841686397233731520L
aS'41050b40-42e0-11e5-aa2b-bcaec562e169'
p492
aI01
aI01
aS'43135870-42d5-11e5-9583-bcaec562e169'
p493
aa(lp494
L5752090994058710841686397233731520L
aL5752090994058710841686397253731520L
aS'41050cb2-42e0-11e5-aa2b-bcaec562e169'
p495
aI01
aI01
aS'17f0c7d6-42d5-11e5-85b8-bcaec562e169'
p496
aa(lp497
L5752090994058710841686397253731520L
aL5752090994058710841686397273731520L
aS'41050e24-42e0-11e5-aa2b-bcaec562e169'
p498
aI01
aI01
aS'db7412da-42d5-11e5-9c29-bcaec562e169'
p499
aa(lp500
L5752090994058710841686397273731520L
aL5752090994058710841686397293731520L
aS'41050f96-42e0-11e5-aa2b-bcaec562e169'
p501
aI01
aI01
aS'ac7a6ca6-42d3-11e5-a225-bcaec562e169'
p502
aa(lp503
L5752090994058710841686397293731520L
aL5752090994058710841686397313731520L
aS'410510fe-42e0-11e5-aa2b-bcaec562e169'
p504
aI01
aI01
aS'43135870-42d5-11e5-9583-bcaec562e169'
p505
aa(lp506
L5752090994058710841686397313731520L
aL5752090994058710841686397333731520L
aS'41051266-42e0-11e5-aa2b-bcaec562e169'
p507
aI01
aI01
aS'17f0c7d6-42d5-11e5-85b8-bcaec562e169'
p508
aa(lp509
L5752090994058710841686397333731520L
aL5752090994058710841686397353731520L
aS'410513d8-42e0-11e5-aa2b-bcaec562e169'
p510
aI01
aI01
aS'2e8632fa-42d6-11e5-84ee-bcaec562e169'
p511
aa(lp512
L5752090994058710841686397353731520L
aL5752090994058710841686397373731520L
aS'41051540-42e0-11e5-aa2b-bcaec562e169'
p513
aI01
aI01
aS'db7412da-42d5-11e5-9c29-bcaec562e169'
p514
aa(lp515
L5752090994058710841686397373731520L
aL5752090994058710841686397393731520L
aS'410516a8-42e0-11e5-aa2b-bcaec562e169'
p516
aI01
aI01
aS'ac7a6ca6-42d3-11e5-a225-bcaec562e169'
p517
aa(lp518
L5752090994058710841686397393731520L
aL5752090994058710841686397413731520L
aS'41051824-42e0-11e5-aa2b-bcaec562e169'
p519
aI01
aI01
aS'17f0c7d6-42d5-11e5-85b8-bcaec562e169'
p520
aa(lp521
L5752090994058710841686397413731520L
aL5752090994058710841686397433731520L
aS'4105198c-42e0-11e5-aa2b-bcaec562e169'
p522
aI01
aI01
aS'43135870-42d5-11e5-9583-bcaec562e169'
p523
aa(lp524
L5752090994058710841686397433731520L
aL5752090994058710841686397453731520L
aS'41051b08-42e0-11e5-aa2b-bcaec562e169'
p525
aI01
aI01
aS'2e8632fa-42d6-11e5-84ee-bcaec562e169'
p526
aa(lp527
L5752090994058710841686397453731520L
aL5752090994058710841686397473731520L
aS'41051c7a-42e0-11e5-aa2b-bcaec562e169'
p528
aI01
aI01
aS'db7412da-42d5-11e5-9c29-bcaec562e169'
p529
aa(lp530
L5752090994058710841686397473731520L
aL5752090994058710841686397493731520L
aS'41051dec-42e0-11e5-aa2b-bcaec562e169'
p531
aI01
aI01
aS'ac7a6ca6-42d3-11e5-a225-bcaec562e169'
p532
aa(lp533
L5752090994058710841686397493731520L
aL5752090994058710841686397513731520L
aS'41051f5e-42e0-11e5-aa2b-bcaec562e169'
p534
aI01
aI01
aS'17f0c7d6-42d5-11e5-85b8-bcaec562e169'
p535
aa(lp536
L5752090994058710841686397513731520L
aL5752090994058710841686397533731520L
aS'410520c6-42e0-11e5-aa2b-bcaec562e169'
p537
aI01
aI01
aS'43135870-42d5-11e5-9583-bcaec562e169'
p538
aa(lp539
L5752090994058710841686397533731520L
aL5752090994058710841686397553731520L
aS'4105222e-42e0-11e5-aa2b-bcaec562e169'
p540
aI01
aI01
aS'ac7a6ca6-42d3-11e5-a225-bcaec562e169'
p541
aa(lp542
L5752090994058710841686397553731520L
aL5752090994058710841686397573731520L
aS'410523a0-42e0-11e5-aa2b-bcaec562e169'
p543
aI01
aI01
aS'2e8632fa-42d6-11e5-84ee-bcaec562e169'
p544
aa(lp545
L5752090994058710841686397573731520L
aL5752090994058710841686397593731520L
aS'41052508-42e0-11e5-aa2b-bcaec562e169'
p546
aI01
aI01
aS'db7412da-42d5-11e5-9c29-bcaec562e169'
p547
aa(lp548
L5752090994058710841686397593731520L
aL5752090994058710841686397613731520L
aS'4105267a-42e0-11e5-aa2b-bcaec562e169'
p549
aI01
aI01
aS'17f0c7d6-42d5-11e5-85b8-bcaec562e169'
p550
aa(lp551
L5752090994058710841686397613731520L
aL5752090994058710841686397633731520L
aS'410527ec-42e0-11e5-aa2b-bcaec562e169'
p552
aI01
aI01
aS'43135870-42d5-11e5-9583-bcaec562e169'
p553
aa(lp554
L5752090994058710841686397633731520L
aL5752090994058710841686397653731520L
aS'41052972-42e0-11e5-aa2b-bcaec562e169'
p555
aI01
aI01
aS'ac7a6ca6-42d3-11e5-a225-bcaec562e169'
p556
aa(lp557
L5752090994058710841686397653731520L
aL5752090994058710841686397673731520L
aS'41052aee-42e0-11e5-aa2b-bcaec562e169'
p558
aI01
aI01
aS'2e8632fa-42d6-11e5-84ee-bcaec562e169'
p559
aa(lp560
L5752090994058710841686397673731520L
aL5752090994058710841686397693731520L
aS'41052d78-42e0-11e5-aa2b-bcaec562e169'
p561
aI01
aI01
aS'db7412da-42d5-11e5-9c29-bcaec562e169'
p562
aa(lp563
L5752090994058710841686397693731520L
aL5752090994058710841686397713731520L
aS'41052ef4-42e0-11e5-aa2b-bcaec562e169'
p564
aI01
aI01
aS'17f0c7d6-42d5-11e5-85b8-bcaec562e169'
p565
aa(lp566
L5752090994058710841686397713731520L
aL5752090994058710841686397733731520L
aS'4105305c-42e0-11e5-aa2b-bcaec562e169'
p567
aI01
aI01
aS'ac7a6ca6-42d3-11e5-a225-bcaec562e169'
p568
aa(lp569
L5752090994058710841686397733731520L
aL5752090994058710841686397753731520L
aS'410531ce-42e0-11e5-aa2b-bcaec562e169'
p570
aI01
aI01
aS'43135870-42d5-11e5-9583-bcaec562e169'
p571
aa(lp572
L5752090994058710841686397753731520L
aL5752090994058710841686397773731520L
aS'41053336-42e0-11e5-aa2b-bcaec562e169'
p573
aI01
aI01
aS'2e8632fa-42d6-11e5-84ee-bcaec562e169'
p574
aa(lp575
L5752090994058710841686397773731520L
aL5752090994058710841686397793731520L
aS'4105349e-42e0-11e5-aa2b-bcaec562e169'
p576
aI01
aI01
aS'17f0c7d6-42d5-11e5-85b8-bcaec562e169'
p577
aa(lp578
L5752090994058710841686397793731520L
aL5752090994058710841686397813731520L
aS'41053610-42e0-11e5-aa2b-bcaec562e169'
p579
aI01
aI01
aS'db7412da-42d5-11e5-9c29-bcaec562e169'
p580
aa(lp581
L5752090994058710841686397813731520L
aL5752090994058710841686397833731520L
aS'41053782-42e0-11e5-aa2b-bcaec562e169'
p582
aI01
aI01
aS'ac7a6ca6-42d3-11e5-a225-bcaec562e169'
p583
aa(lp584
L5752090994058710841686397833731520L
aL5752090994058710841686397853731520L
aS'410538f4-42e0-11e5-aa2b-bcaec562e169'
p585
aI01
aI01
aS'43135870-42d5-11e5-9583-bcaec562e169'
p586
aa(lp587
L5752090994058710841686397853731520L
aL5752090994058710841686397873731520L
aS'41053a66-42e0-11e5-aa2b-bcaec562e169'
p588
aI01
aI01
aS'17f0c7d6-42d5-11e5-85b8-bcaec562e169'
p589
aa(lp590
L5752090994058710841686397873731520L
aL5752090994058710841686397893731520L
aS'41053bce-42e0-11e5-aa2b-bcaec562e169'
p591
aI01
aI01
aS'ac7a6ca6-42d3-11e5-a225-bcaec562e169'
p592
aa(lp593
L5752090994058710841686397893731520L
aL5752090994058710841686397913731520L
aS'41053d36-42e0-11e5-aa2b-bcaec562e169'
p594
aI01
aI01
aS'2e8632fa-42d6-11e5-84ee-bcaec562e169'
p595
aa(lp596
L5752090994058710841686397913731520L
aL5752090994058710841686397933731520L
aS'41053ea8-42e0-11e5-aa2b-bcaec562e169'
p597
aI01
aI01
aS'db7412da-42d5-11e5-9c29-bcaec562e169'
p598
aa(lp599
L5752090994058710841686397933731520L
aL5752090994058710841686397953731520L
aS'41054010-42e0-11e5-aa2b-bcaec562e169'
p600
aI01
aI01
aS'43135870-42d5-11e5-9583-bcaec562e169'
p601
aa(lp602
L5752090994058710841686397953731520L
aL5752090994058710841686397973731520L
aS'41054178-42e0-11e5-aa2b-bcaec562e169'
p603
aI01
aI01
aS'17f0c7d6-42d5-11e5-85b8-bcaec562e169'
p604
aa(lp605
L5752090994058710841686397973731520L
aL5752090994058710841686397993731520L
aS'410542e0-42e0-11e5-aa2b-bcaec562e169'
p606
aI01
aI01
aS'ac7a6ca6-42d3-11e5-a225-bcaec562e169'
p607
aa(lp608
L5752090994058710841686397993731520L
aL5752090994058710841686398013731520L
aS'4105445c-42e0-11e5-aa2b-bcaec562e169'
p609
aI01
aI01
aS'2e8632fa-42d6-11e5-84ee-bcaec562e169'
p610
aa(lp611
L5752090994058710841686398013731520L
aL5752090994058710841686398033731520L
aS'410545ce-42e0-11e5-aa2b-bcaec562e169'
p612
aI01
aI01
aS'db7412da-42d5-11e5-9c29-bcaec562e169'
p613
aa(lp614
L5752090994058710841686398033731520L
aL5752090994058710841686398053731520L
aS'4105474a-42e0-11e5-aa2b-bcaec562e169'
p615
aI01
aI01
aS'43135870-42d5-11e5-9583-bcaec562e169'
p616
aa(lp617
L5752090994058710841686398053731520L
aL5752090994058710841686398073731520L
aS'410548b2-42e0-11e5-aa2b-bcaec562e169'
p618
aI01
aI01
aS'17f0c7d6-42d5-11e5-85b8-bcaec562e169'
p619
aa(lp620
L5752090994058710841686398073731520L
aL5752090994058710841686398093731520L
aS'41054a24-42e0-11e5-aa2b-bcaec562e169'
p621
aI01
aI01
aS'ac7a6ca6-42d3-11e5-a225-bcaec562e169'
p622
aa(lp623
L5752090994058710841686398093731520L
aL5752090994058710841686398113731520L
aS'41054b8c-42e0-11e5-aa2b-bcaec562e169'
p624
aI01
aI01
aS'2e8632fa-42d6-11e5-84ee-bcaec562e169'
p625
aa(lp626
L5752090994058710841686398113731520L
aL5752090994058710841686398133731520L
aS'41054cf4-42e0-11e5-aa2b-bcaec562e169'
p627
aI01
aI01
aS'db7412da-42d5-11e5-9c29-bcaec562e169'
p628
aa(lp629
L5752090994058710841686398133731520L
aL5752090994058710841686398153731520L
aS'41054e5c-42e0-11e5-aa2b-bcaec562e169'
p630
aI01
aI01
aS'43135870-42d5-11e5-9583-bcaec562e169'
p631
aa(lp632
L5752090994058710841686398153731520L
aL5752090994058710841686398173731520L
aS'41054fc4-42e0-11e5-aa2b-bcaec562e169'
p633
aI01
aI01
aS'17f0c7d6-42d5-11e5-85b8-bcaec562e169'
p634
aa(lp635
L5752090994058710841686398173731520L
aL5752090994058710841686398193731520L
aS'41055136-42e0-11e5-aa2b-bcaec562e169'
p636
aI01
aI01
aS'ac7a6ca6-42d3-11e5-a225-bcaec562e169'
p637
aa(lp638
L5752090994058710841686398193731520L
aL5752090994058710841686398213731520L
aS'4105529e-42e0-11e5-aa2b-bcaec562e169'
p639
aI01
aI01
aS'2e8632fa-42d6-11e5-84ee-bcaec562e169'
p640
aa(lp641
L5752090994058710841686398213731520L
aL5752090994058710841686398233731520L
aS'410554ba-42e0-11e5-aa2b-bcaec562e169'
p642
aI01
aI01
aS'43135870-42d5-11e5-9583-bcaec562e169'
p643
aa(lp644
L5752090994058710841686398233731520L
aL5752090994058710841686398253731520L
aS'41055636-42e0-11e5-aa2b-bcaec562e169'
p645
aI01
aI01
aS'ac7a6ca6-42d3-11e5-a225-bcaec562e169'
p646
aa(lp647
L5752090994058710841686398253731520L
aL5752090994058710841686398273731520L
aS'4105a32a-42e0-11e5-aa2b-bcaec562e169'
p648
aI01
aI01
aS'db7412da-42d5-11e5-9c29-bcaec562e169'
p649
aa(lp650
L5752090994058710841686398273731520L
aL5752090994058710841686398293731520L
aS'4105a514-42e0-11e5-aa2b-bcaec562e169'
p651
aI01
aI01
aS'17f0c7d6-42d5-11e5-85b8-bcaec562e169'
p652
aa(lp653
L5752090994058710841686398293731520L
aL5752090994058710841686398313731520L
aS'4105a6d6-42e0-11e5-aa2b-bcaec562e169'
p654
aI01
aI01
aS'ac7a6ca6-42d3-11e5-a225-bcaec562e169'
p655
aa(lp656
L5752090994058710841686398313731520L
aL5752090994058710841686398333731520L
aS'4105a866-42e0-11e5-aa2b-bcaec562e169'
p657
aI01
aI01
aS'17f0c7d6-42d5-11e5-85b8-bcaec562e169'
p658
aa(lp659
L5752090994058710841686398333731520L
aL5752090994058710841686398353731520L
aS'4105a9d8-42e0-11e5-aa2b-bcaec562e169'
p660
aI01
aI01
aS'43135870-42d5-11e5-9583-bcaec562e169'
p661
aa(lp662
L5752090994058710841686398353731520L
aL5752090994058710841686398373731520L
aS'4105ab4a-42e0-11e5-aa2b-bcaec562e169'
p663
aI01
aI01
aS'2e8632fa-42d6-11e5-84ee-bcaec562e169'
p664
aa(lp665
L5752090994058710841686398373731520L
aL5752090994058710841686398393731520L
aS'4105acb2-42e0-11e5-aa2b-bcaec562e169'
p666
aI01
aI01
aS'db7412da-42d5-11e5-9c29-bcaec562e169'
p667
aa(lp668
L5752090994058710841686398393731520L
aL5752090994058710841686398413731520L
aS'4105ae2e-42e0-11e5-aa2b-bcaec562e169'
p669
aI01
aI00
aNaa(lp670
L5752090994058710841686398413731520L
aL5752090994058710841686398433731520L
aS'4105afa0-42e0-11e5-aa2b-bcaec562e169'
p671
aI01
aI00
aNaa(lp672
L5752090994058710841686398433731520L
aL5752090994058710841686398453731520L
aS'4105b112-42e0-11e5-aa2b-bcaec562e169'
p673
aI01
aI00
aNaa(lp674
L5752090994058710841686398453731520L
aL5752090994058710841686398473731520L
aS'4105b284-42e0-11e5-aa2b-bcaec562e169'
p675
aI01
aI00
aNaa(lp676
L5752090994058710841686398473731520L
aL5752090994058710841686398493731520L
aS'4105b414-42e0-11e5-aa2b-bcaec562e169'
p677
aI01
aI00
aNaa(lp678
L5752090994058710841686398493731520L
aL5752090994058710841686398513731520L
aS'4105b586-42e0-11e5-aa2b-bcaec562e169'
p679
aI00
aI00
aNaa(lp680
L5752090994058710841686398513731520L
aL5752090994058710841686398533731520L
aS'4105b70c-42e0-11e5-aa2b-bcaec562e169'
p681
aI00
aI00
aNaa(lp682
L5752090994058710841686398533731520L
aL5752090994058710841686398553731520L
aS'4105b8ba-42e0-11e5-aa2b-bcaec562e169'
p683
aI00
aI00
aNaa(lp684
L5752090994058710841686398553731520L
aL5752090994058710841686398573731520L
aS'4105ba5e-42e0-11e5-aa2b-bcaec562e169'
p685
aI00
aI00
aNaa(lp686
L5752090994058710841686398573731520L
aL5752090994058710841686398593731520L
aS'4105bc02-42e0-11e5-aa2b-bcaec562e169'
p687
aI00
aI00
aNaa(lp688
L5752090994058710841686398593731520L
aL5752090994058710841686398613731520L
aS'4105bd88-42e0-11e5-aa2b-bcaec562e169'
p689
aI00
aI00
aNaa(lp690
L5752090994058710841686398613731520L
aL5752090994058710841686398633731520L
aS'4105bf22-42e0-11e5-aa2b-bcaec562e169'
p691
aI00
aI00
aNaa(lp692
L5752090994058710841686398633731520L
aL5752090994058710841686398653731520L
aS'4105c0ee-42e0-11e5-aa2b-bcaec562e169'
p693
aI00
aI00
aNaa(lp694
L5752090994058710841686398653731520L
aL5752090994058710841686398673731520L
aS'4105c26a-42e0-11e5-aa2b-bcaec562e169'
p695
aI00
aI00
aNaa(lp696
L5752090994058710841686398673731520L
aL5752090994058710841686398693731520L
aS'4105c3e6-42e0-11e5-aa2b-bcaec562e169'
p697
aI00
aI00
aNaa(lp698
L5752090994058710841686398693731520L
aL5752090994058710841686398713731520L
aS'4105c54e-42e0-11e5-aa2b-bcaec562e169'
p699
aI00
aI00
aNaa(lp700
L5752090994058710841686398713731520L
aL5752090994058710841686398733731520L
aS'4105c6b6-42e0-11e5-aa2b-bcaec562e169'
p701
aI00
aI00
aNaa(lp702
L5752090994058710841686398733731520L
aL5752090994058710841686398753731520L
aS'4105c828-42e0-11e5-aa2b-bcaec562e169'
p703
aI00
aI00
aNaa(lp704
L5752090994058710841686398753731520L
aL5752090994058710841686398773731520L
aS'4105c99a-42e0-11e5-aa2b-bcaec562e169'
p705
aI00
aI00
aNaa(lp706
L5752090994058710841686398773731520L
aL5752090994058710841686398793731520L
aS'4105cb02-42e0-11e5-aa2b-bcaec562e169'
p707
aI00
aI00
aNaa(lp708
L5752090994058710841686398793731520L
aL5752090994058710841686398813731520L
aS'4105cc6a-42e0-11e5-aa2b-bcaec562e169'
p709
aI00
aI00
aNaa(lp710
L5752090994058710841686398813731520L
aL5752090994058710841686398833731520L
aS'4105cdd2-42e0-11e5-aa2b-bcaec562e169'
p711
aI00
aI00
aNaa(lp712
L5752090994058710841686398833731520L
aL5752090994058710841686398853731520L
aS'4105cf3a-42e0-11e5-aa2b-bcaec562e169'
p713
aI00
aI00
aNaa(lp714
L5752090994058710841686398853731520L
aL5752090994058710841686398873731520L
aS'4105d0a2-42e0-11e5-aa2b-bcaec562e169'
p715
aI00
aI00
aNaa(lp716
L5752090994058710841686398873731520L
aL5752090994058710841686398893731520L
aS'4105d20a-42e0-11e5-aa2b-bcaec562e169'
p717
aI00
aI00
aNaa(lp718
L5752090994058710841686398893731520L
aL5752090994058710841686398913731520L
aS'4105d372-42e0-11e5-aa2b-bcaec562e169'
p719
aI00
aI00
aNaa(lp720
L5752090994058710841686398913731520L
aL5752090994058710841686398933731520L
aS'4105d4e4-42e0-11e5-aa2b-bcaec562e169'
p721
aI00
aI00
aNaa(lp722
L5752090994058710841686398933731520L
aL5752090994058710841686398953731520L
aS'4105d64c-42e0-11e5-aa2b-bcaec562e169'
p723
aI00
aI00
aNaa(lp724
L5752090994058710841686398953731520L
aL5752090994058710841686398973731520L
aS'4105d7be-42e0-11e5-aa2b-bcaec562e169'
p725
aI00
aI00
aNaa(lp726
L5752090994058710841686398973731520L
aL5752090994058710841686398993731520L
aS'4105d926-42e0-11e5-aa2b-bcaec562e169'
p727
aI00
aI00
aNaa(lp728
L5752090994058710841686398993731520L
aL5752090994058710841686399013731520L
aS'4105da8e-42e0-11e5-aa2b-bcaec562e169'
p729
aI00
aI00
aNaa(lp730
L5752090994058710841686399013731520L
aL5752090994058710841686399033731520L
aS'4105dc00-42e0-11e5-aa2b-bcaec562e169'
p731
aI00
aI00
aNaa(lp732
L5752090994058710841686399033731520L
aL5752090994058710841686399053731520L
aS'4105dd72-42e0-11e5-aa2b-bcaec562e169'
p733
aI00
aI00
aNaa(lp734
L5752090994058710841686399053731520L
aL5752090994058710841686399073731520L
aS'4105deda-42e0-11e5-aa2b-bcaec562e169'
p735
aI00
aI00
aNaa(lp736
L5752090994058710841686399073731520L
aL5752090994058710841686399093731520L
aS'4105e04c-42e0-11e5-aa2b-bcaec562e169'
p737
aI00
aI00
aNaa(lp738
L5752090994058710841686399093731520L
aL5752090994058710841686399113731520L
aS'4105e1c8-42e0-11e5-aa2b-bcaec562e169'
p739
aI00
aI00
aNaa(lp740
L5752090994058710841686399113731520L
aL5752090994058710841686399133731520L
aS'4105e330-42e0-11e5-aa2b-bcaec562e169'
p741
aI00
aI00
aNaa(lp742
L5752090994058710841686399133731520L
aL5752090994058710841686399153731520L
aS'4105e4a2-42e0-11e5-aa2b-bcaec562e169'
p743
aI00
aI00
aNaa(lp744
L5752090994058710841686399153731520L
aL5752090994058710841686399173731520L
aS'4105e60a-42e0-11e5-aa2b-bcaec562e169'
p745
aI00
aI00
aNaa(lp746
L5752090994058710841686399173731520L
aL5752090994058710841686399193731520L
aS'4105e772-42e0-11e5-aa2b-bcaec562e169'
p747
aI00
aI00
aNaa(lp748
L5752090994058710841686399193731520L
aL5752090994058710841686399213731520L
aS'4105e8da-42e0-11e5-aa2b-bcaec562e169'
p749
aI00
aI00
aNaa(lp750
L5752090994058710841686399213731520L
aL5752090994058710841686399233731520L
aS'4105ea4c-42e0-11e5-aa2b-bcaec562e169'
p751
aI00
aI00
aNaa(lp752
L5752090994058710841686399233731520L
aL5752090994058710841686399253731520L
aS'4105ebb4-42e0-11e5-aa2b-bcaec562e169'
p753
aI00
aI00
aNaa(lp754
L5752090994058710841686399253731520L
aL5752090994058710841686399273731520L
aS'4105ed30-42e0-11e5-aa2b-bcaec562e169'
p755
aI00
aI00
aNaa(lp756
L5752090994058710841686399273731520L
aL5752090994058710841686399293731520L
aS'4105ee98-42e0-11e5-aa2b-bcaec562e169'
p757
aI00
aI00
aNaa(lp758
L5752090994058710841686399293731520L
aL5752090994058710841686399313731520L
aS'4105f00a-42e0-11e5-aa2b-bcaec562e169'
p759
aI00
aI00
aNaa(lp760
L5752090994058710841686399313731520L
aL5752090994058710841686399333731520L
aS'4105f190-42e0-11e5-aa2b-bcaec562e169'
p761
aI00
aI00
aNaa(lp762
L5752090994058710841686399333731520L
aL5752090994058710841686399353731520L
aS'4105f30c-42e0-11e5-aa2b-bcaec562e169'
p763
aI00
aI00
aNaa(lp764
L5752090994058710841686399353731520L
aL5752090994058710841686399373731520L
aS'4105f488-42e0-11e5-aa2b-bcaec562e169'
p765
aI00
aI00
aNaa(lp766
L5752090994058710841686399373731520L
aL5752090994058710841686399393731520L
aS'4105f5f0-42e0-11e5-aa2b-bcaec562e169'
p767
aI00
aI00
aNaa(lp768
L5752090994058710841686399393731520L
aL5752090994058710841686399413731520L
aS'4105f762-42e0-11e5-aa2b-bcaec562e169'
p769
aI00
aI00
aNaa(lp770
L5752090994058710841686399413731520L
aL5752090994058710841686399433731520L
aS'4105f8d4-42e0-11e5-aa2b-bcaec562e169'
p771
aI00
aI00
aNaa(lp772
L5752090994058710841686399433731520L
aL5752090994058710841686399453731520L
aS'4105fa3c-42e0-11e5-aa2b-bcaec562e169'
p773
aI00
aI00
aNaa(lp774
L5752090994058710841686399453731520L
aL5752090994058710841686399473731520L
aS'4105fbae-42e0-11e5-aa2b-bcaec562e169'
p775
aI00
aI00
aNaa(lp776
L5752090994058710841686399473731520L
aL5752090994058710841686399493731520L
aS'4105fd20-42e0-11e5-aa2b-bcaec562e169'
p777
aI00
aI00
aNaa(lp778
L5752090994058710841686399493731520L
aL5752090994058710841686399513731520L
aS'4105fe92-42e0-11e5-aa2b-bcaec562e169'
p779
aI00
aI00
aNaa(lp780
L5752090994058710841686399513731520L
aL5752090994058710841686399533731520L
aS'41060004-42e0-11e5-aa2b-bcaec562e169'
p781
aI00
aI00
aNaa(lp782
L5752090994058710841686399533731520L
aL5752090994058710841686399553731520L
aS'4106016c-42e0-11e5-aa2b-bcaec562e169'
p783
aI00
aI00
aNaa(lp784
L5752090994058710841686399553731520L
aL5752090994058710841686399573731520L
aS'410602de-42e0-11e5-aa2b-bcaec562e169'
p785
aI00
aI00
aNaa(lp786
L5752090994058710841686399573731520L
aL5752090994058710841686399593731520L
aS'41060446-42e0-11e5-aa2b-bcaec562e169'
p787
aI00
aI00
aNaa(lp788
L5752090994058710841686399593731520L
aL5752090994058710841686399613731520L
aS'410605ae-42e0-11e5-aa2b-bcaec562e169'
p789
aI00
aI00
aNaa(lp790
L5752090994058710841686399613731520L
aL5752090994058710841686399633731520L
aS'41060720-42e0-11e5-aa2b-bcaec562e169'
p791
aI00
aI00
aNaa(lp792
L5752090994058710841686399633731520L
aL5752090994058710841686399653731520L
aS'41060892-42e0-11e5-aa2b-bcaec562e169'
p793
aI00
aI00
aNaa(lp794
L5752090994058710841686399653731520L
aL5752090994058710841686399673731520L
aS'410609fa-42e0-11e5-aa2b-bcaec562e169'
p795
aI00
aI00
aNaa(lp796
L5752090994058710841686399673731520L
aL5752090994058710841686399693731520L
aS'41060b62-42e0-11e5-aa2b-bcaec562e169'
p797
aI00
aI00
aNaa(lp798
L5752090994058710841686399693731520L
aL5752090994058710841686399713731520L
aS'41060cca-42e0-11e5-aa2b-bcaec562e169'
p799
aI00
aI00
aNaa(lp800
L5752090994058710841686399713731520L
aL5752090994058710841686399733731520L
aS'41060e28-42e0-11e5-aa2b-bcaec562e169'
p801
aI00
aI00
aNaa(lp802
L5752090994058710841686399733731520L
aL5752090994058710841686399753731520L
aS'41060f90-42e0-11e5-aa2b-bcaec562e169'
p803
aI00
aI00
aNaa(lp804
L5752090994058710841686399753731520L
aL5752090994058710841686399773731520L
aS'41061102-42e0-11e5-aa2b-bcaec562e169'
p805
aI00
aI00
aNaa(lp806
L5752090994058710841686399773731520L
aL5752090994058710841686399793731520L
aS'4106126a-42e0-11e5-aa2b-bcaec562e169'
p807
aI00
aI00
aNaa(lp808
L5752090994058710841686399793731520L
aL5752090994058710841686399813731520L
aS'410613d2-42e0-11e5-aa2b-bcaec562e169'
p809
aI00
aI00
aNaa(lp810
L5752090994058710841686399813731520L
aL5752090994058710841686399833731520L
aS'41061544-42e0-11e5-aa2b-bcaec562e169'
p811
aI00
aI00
aNaa(lp812
L5752090994058710841686399833731520L
aL5752090994058710841686399853731520L
aS'410616b6-42e0-11e5-aa2b-bcaec562e169'
p813
aI00
aI00
aNaa(lp814
L5752090994058710841686399853731520L
aL5752090994058710841686399873731520L
aS'4106181e-42e0-11e5-aa2b-bcaec562e169'
p815
aI00
aI00
aNaa(lp816
L5752090994058710841686399873731520L
aL5752090994058710841686399893731520L
aS'4106199a-42e0-11e5-aa2b-bcaec562e169'
p817
aI00
aI00
aNaa(lp818
L5752090994058710841686399893731520L
aL5752090994058710841686399913731520L
aS'41061b02-42e0-11e5-aa2b-bcaec562e169'
p819
aI00
aI00
aNaa(lp820
L5752090994058710841686399913731520L
aL5752090994058710841686399933731520L
aS'41061c74-42e0-11e5-aa2b-bcaec562e169'
p821
aI00
aI00
aNaa(lp822
L5752090994058710841686399933731520L
aL5752090994058710841686399953731520L
aS'41061de6-42e0-11e5-aa2b-bcaec562e169'
p823
aI00
aI00
aNaa(lp824
L5752090994058710841686399953731520L
aL5752090994058710841686399973731520L
aS'41061f4e-42e0-11e5-aa2b-bcaec562e169'
p825
aI00
aI00
aNaa(lp826
L5752090994058710841686399973731520L
aL5752090994058710841686399993731520L
aS'410620b6-42e0-11e5-aa2b-bcaec562e169'
p827
aI00
aI00
aNaa(lp828
L5752090994058710841686399993731520L
aL5752090994058710841686400013731520L
aS'4106221e-42e0-11e5-aa2b-bcaec562e169'
p829
aI00
aI00
aNaa(lp830
L5752090994058710841686400013731520L
aL5752090994058710841686400033731520L
aS'41062390-42e0-11e5-aa2b-bcaec562e169'
p831
aI00
aI00
aNaa(lp832
L5752090994058710841686400033731520L
aL5752090994058710841686400053731520L
aS'410624f8-42e0-11e5-aa2b-bcaec562e169'
p833
aI00
aI00
aNaa(lp834
L5752090994058710841686400053731520L
aL5752090994058710841686400073731520L
aS'41062660-42e0-11e5-aa2b-bcaec562e169'
p835
aI00
aI00
aNaa(lp836
L5752090994058710841686400073731520L
aL5752090994058710841686400093731520L
aS'410627c8-42e0-11e5-aa2b-bcaec562e169'
p837
aI00
aI00
aNaa(lp838
L5752090994058710841686400093731520L
aL5752090994058710841686400113731520L
aS'4106293a-42e0-11e5-aa2b-bcaec562e169'
p839
aI00
aI00
aNaa(lp840
L5752090994058710841686400113731520L
aL5752090994058710841686400133731520L
aS'41062aa2-42e0-11e5-aa2b-bcaec562e169'
p841
aI00
aI00
aNaa(lp842
L5752090994058710841686400133731520L
aL5752090994058710841686400153731520L
aS'41062c14-42e0-11e5-aa2b-bcaec562e169'
p843
aI00
aI00
aNaa(lp844
L5752090994058710841686400153731520L
aL5752090994058710841686400173731520L
aS'41062e4e-42e0-11e5-aa2b-bcaec562e169'
p845
aI00
aI00
aNaa(lp846
L5752090994058710841686400173731520L
aL5752090994058710841686400193731520L
aS'41062fca-42e0-11e5-aa2b-bcaec562e169'
p847
aI00
aI00
aNaa(lp848
L5752090994058710841686400193731520L
aL5752090994058710841686400213731520L
aS'4106313c-42e0-11e5-aa2b-bcaec562e169'
p849
aI00
aI00
aNaa(lp850
L5752090994058710841686400213731520L
aL5752090994058710841686400233731520L
aS'410632a4-42e0-11e5-aa2b-bcaec562e169'
p851
aI00
aI00
aNaa(lp852
L5752090994058710841686400233731520L
aL5752090994058710841686400253731520L
aS'41063416-42e0-11e5-aa2b-bcaec562e169'
p853
aI00
aI00
aNaa(lp854
L5752090994058710841686400253731520L
aL5752090994058710841686400273731520L
aS'41063588-42e0-11e5-aa2b-bcaec562e169'
p855
aI00
aI00
aNaa(lp856
L5752090994058710841686400273731520L
aL5752090994058710841686400293731520L
aS'41063704-42e0-11e5-aa2b-bcaec562e169'
p857
aI00
aI00
aNaa(lp858
L5752090994058710841686400293731520L
aL5752090994058710841686400313731520L
aS'41063876-42e0-11e5-aa2b-bcaec562e169'
p859
aI00
aI00
aNaa(lp860
L5752090994058710841686400313731520L
aL5752090994058710841686400333731520L
aS'410639de-42e0-11e5-aa2b-bcaec562e169'
p861
aI00
aI00
aNaa(lp862
L5752090994058710841686400333731520L
aL5752090994058710841686400353731520L
aS'41063b46-42e0-11e5-aa2b-bcaec562e169'
p863
aI00
aI00
aNaa(lp864
L5752090994058710841686400353731520L
aL5752090994058710841686400373731520L
aS'41063cb8-42e0-11e5-aa2b-bcaec562e169'
p865
aI00
aI00
aNaa(lp866
L5752090994058710841686400373731520L
aL5752090994058710841686400393731520L
aS'41063e20-42e0-11e5-aa2b-bcaec562e169'
p867
aI00
aI00
aNaa(lp868
L5752090994058710841686400393731520L
aL5752090994058710841686400413731520L
aS'41063f92-42e0-11e5-aa2b-bcaec562e169'
p869
aI00
aI00
aNaa(lp870
L5752090994058710841686400413731520L
aL5752090994058710841686400433731520L
aS'410640fa-42e0-11e5-aa2b-bcaec562e169'
p871
aI00
aI00
aNaa(lp872
L5752090994058710841686400433731520L
aL5752090994058710841686400453731520L
aS'4106426c-42e0-11e5-aa2b-bcaec562e169'
p873
aI00
aI00
aNaa(lp874
L5752090994058710841686400453731520L
aL5752090994058710841686400473731520L
aS'4106441a-42e0-11e5-aa2b-bcaec562e169'
p875
aI00
aI00
aNaa(lp876
L5752090994058710841686400473731520L
aL5752090994058710841686400493731520L
aS'4106458c-42e0-11e5-aa2b-bcaec562e169'
p877
aI00
aI00
aNaa(lp878
L5752090994058710841686400493731520L
aL5752090994058710841686400513731520L
aS'410646f4-42e0-11e5-aa2b-bcaec562e169'
p879
aI00
aI00
aNaa(lp880
L5752090994058710841686400513731520L
aL5752090994058710841686400533731520L
aS'41064870-42e0-11e5-aa2b-bcaec562e169'
p881
aI00
aI00
aNaa(lp882
L5752090994058710841686400533731520L
aL5752090994058710841686400553731520L
aS'410649e2-42e0-11e5-aa2b-bcaec562e169'
p883
aI00
aI00
aNaa(lp884
L5752090994058710841686400553731520L
aL5752090994058710841686400573731520L
aS'41064b54-42e0-11e5-aa2b-bcaec562e169'
p885
aI00
aI00
aNaa(lp886
L5752090994058710841686400573731520L
aL5752090994058710841686400593731520L
aS'41064cbc-42e0-11e5-aa2b-bcaec562e169'
p887
aI00
aI00
aNaa(lp888
L5752090994058710841686400593731520L
aL5752090994058710841686400613731520L
aS'41064e2e-42e0-11e5-aa2b-bcaec562e169'
p889
aI00
aI00
aNaa(lp890
L5752090994058710841686400613731520L
aL5752090994058710841686400633731520L
aS'41064f96-42e0-11e5-aa2b-bcaec562e169'
p891
aI00
aI00
aNaa(lp892
L5752090994058710841686400633731520L
aL5752090994058710841686400653731520L
aS'41065108-42e0-11e5-aa2b-bcaec562e169'
p893
aI00
aI00
aNaa(lp894
L5752090994058710841686400653731520L
aL5752090994058710841686400673731520L
aS'41065270-42e0-11e5-aa2b-bcaec562e169'
p895
aI00
aI00
aNaa(lp896
L5752090994058710841686400673731520L
aL5752090994058710841686400693731520L
aS'410653e2-42e0-11e5-aa2b-bcaec562e169'
p897
aI00
aI00
aNaa(lp898
L5752090994058710841686400693731520L
aL5752090994058710841686400713731520L
aS'4106554a-42e0-11e5-aa2b-bcaec562e169'
p899
aI00
aI00
aNaa(lp900
L5752090994058710841686400713731520L
aL5752090994058710841686400733731520L
aS'410656bc-42e0-11e5-aa2b-bcaec562e169'
p901
aI00
aI00
aNaa(lp902
L5752090994058710841686400733731520L
aL5752090994058710841686400753731520L
aS'41065838-42e0-11e5-aa2b-bcaec562e169'
p903
aI00
aI00
aNaa(lp904
L5752090994058710841686400753731520L
aL5752090994058710841686400773731520L
aS'410659a0-42e0-11e5-aa2b-bcaec562e169'
p905
aI00
aI00
aNaa(lp906
L5752090994058710841686400773731520L
aL5752090994058710841686400793731520L
aS'41065b08-42e0-11e5-aa2b-bcaec562e169'
p907
aI00
aI00
aNaa(lp908
L5752090994058710841686400793731520L
aL5752090994058710841686400813731520L
aS'41065c70-42e0-11e5-aa2b-bcaec562e169'
p909
aI00
aI00
aNaa(lp910
L5752090994058710841686400813731520L
aL5752090994058710841686400833731520L
aS'41065dec-42e0-11e5-aa2b-bcaec562e169'
p911
aI00
aI00
aNaa(lp912
L5752090994058710841686400833731520L
aL5752090994058710841686400853731520L
aS'41065f54-42e0-11e5-aa2b-bcaec562e169'
p913
aI00
aI00
aNaa(lp914
L5752090994058710841686400853731520L
aL5752090994058710841686400873731520L
aS'410660bc-42e0-11e5-aa2b-bcaec562e169'
p915
aI00
aI00
aNaa(lp916
L5752090994058710841686400873731520L
aL5752090994058710841686400893731520L
aS'4106622e-42e0-11e5-aa2b-bcaec562e169'
p917
aI00
aI00
aNaa(lp918
L5752090994058710841686400893731520L
aL5752090994058710841686400913731520L
aS'41066396-42e0-11e5-aa2b-bcaec562e169'
p919
aI00
aI00
aNaa(lp920
L5752090994058710841686400913731520L
aL5752090994058710841686400933731520L
aS'41066508-42e0-11e5-aa2b-bcaec562e169'
p921
aI00
aI00
aNaa(lp922
L5752090994058710841686400933731520L
aL5752090994058710841686400953731520L
aS'4106667a-42e0-11e5-aa2b-bcaec562e169'
p923
aI00
aI00
aNaa(lp924
L5752090994058710841686400953731520L
aL5752090994058710841686400973731520L
aS'410667e2-42e0-11e5-aa2b-bcaec562e169'
p925
aI00
aI00
aNaa(lp926
L5752090994058710841686400973731520L
aL5752090994058710841686400993731520L
aS'4106694a-42e0-11e5-aa2b-bcaec562e169'
p927
aI00
aI00
aNaa(lp928
L5752090994058710841686400993731520L
aL5752090994058710841686401013731520L
aS'41066ad0-42e0-11e5-aa2b-bcaec562e169'
p929
aI00
aI00
aNaa(lp930
L5752090994058710841686401013731520L
aL5752090994058710841686401033731520L
aS'41066c60-42e0-11e5-aa2b-bcaec562e169'
p931
aI00
aI00
aNaa(lp932
L5752090994058710841686401033731520L
aL5752090994058710841686401053731520L
aS'41066dbe-42e0-11e5-aa2b-bcaec562e169'
p933
aI00
aI00
aNaa(lp934
L5752090994058710841686401053731520L
aL5752090994058710841686401073731520L
aS'41066f3a-42e0-11e5-aa2b-bcaec562e169'
p935
aI00
aI00
aNaa(lp936
L5752090994058710841686401073731520L
aL5752090994058710841686401093731520L
aS'410670a2-42e0-11e5-aa2b-bcaec562e169'
p937
aI00
aI00
aNaa(lp938
L5752090994058710841686401093731520L
aL5752090994058710841686401113731520L
aS'4106720a-42e0-11e5-aa2b-bcaec562e169'
p939
aI00
aI00
aNaa(lp940
L5752090994058710841686401113731520L
aL5752090994058710841686401133731520L
aS'4106737c-42e0-11e5-aa2b-bcaec562e169'
p941
aI00
aI00
aNaa(lp942
L5752090994058710841686401133731520L
aL5752090994058710841686401153731520L
aS'410674ee-42e0-11e5-aa2b-bcaec562e169'
p943
aI00
aI00
aNaa(lp944
L5752090994058710841686401153731520L
aL5752090994058710841686401173731520L
aS'41067656-42e0-11e5-aa2b-bcaec562e169'
p945
aI00
aI00
aNaa(lp946
L5752090994058710841686401173731520L
aL5752090994058710841686401193731520L
aS'410677be-42e0-11e5-aa2b-bcaec562e169'
p947
aI00
aI00
aNaa(lp948
L5752090994058710841686401193731520L
aL5752090994058710841686401213731520L
aS'41067930-42e0-11e5-aa2b-bcaec562e169'
p949
aI00
aI00
aNaa(lp950
L5752090994058710841686401213731520L
aL5752090994058710841686401233731520L
aS'41067aa2-42e0-11e5-aa2b-bcaec562e169'
p951
aI00
aI00
aNaa(lp952
L5752090994058710841686401233731520L
aL5752090994058710841686401253731520L
aS'41067c0a-42e0-11e5-aa2b-bcaec562e169'
p953
aI00
aI00
aNaa(lp954
L5752090994058710841686401253731520L
aL5752090994058710841686401273731520L
aS'41067d7c-42e0-11e5-aa2b-bcaec562e169'
p955
aI00
aI00
aNaa(lp956
L5752090994058710841686401273731520L
aL5752090994058710841686401293731520L
aS'41067ee4-42e0-11e5-aa2b-bcaec562e169'
p957
aI00
aI00
aNaa(lp958
L5752090994058710841686401293731520L
aL5752090994058710841686401313731520L
aS'4106804c-42e0-11e5-aa2b-bcaec562e169'
p959
aI00
aI00
aNaa(lp960
L5752090994058710841686401313731520L
aL5752090994058710841686401333731520L
aS'410681be-42e0-11e5-aa2b-bcaec562e169'
p961
aI00
aI00
aNaa(lp962
L5752090994058710841686401333731520L
aL5752090994058710841686401353731520L
aS'4106831c-42e0-11e5-aa2b-bcaec562e169'
p963
aI00
aI00
aNaa(lp964
L5752090994058710841686401353731520L
aL5752090994058710841686401373731520L
aS'4106848e-42e0-11e5-aa2b-bcaec562e169'
p965
aI00
aI00
aNaa(lp966
L5752090994058710841686401373731520L
aL5752090994058710841686401393731520L
aS'410685f6-42e0-11e5-aa2b-bcaec562e169'
p967
aI00
aI00
aNaa(lp968
L5752090994058710841686401393731520L
aL5752090994058710841686401413731520L
aS'41068768-42e0-11e5-aa2b-bcaec562e169'
p969
aI00
aI00
aNaa(lp970
L5752090994058710841686401413731520L
aL5752090994058710841686401433731520L
aS'410688d0-42e0-11e5-aa2b-bcaec562e169'
p971
aI00
aI00
aNaa(lp972
L5752090994058710841686401433731520L
aL5752090994058710841686401453731520L
aS'41068a38-42e0-11e5-aa2b-bcaec562e169'
p973
aI00
aI00
aNaa(lp974
L5752090994058710841686401453731520L
aL5752090994058710841686401473731520L
aS'41068ba0-42e0-11e5-aa2b-bcaec562e169'
p975
aI00
aI00
aNaa(lp976
L5752090994058710841686401473731520L
aL5752090994058710841686401493731520L
aS'41068d12-42e0-11e5-aa2b-bcaec562e169'
p977
aI00
aI00
aNaa(lp978
L5752090994058710841686401493731520L
aL5752090994058710841686401513731520L
aS'41068e7a-42e0-11e5-aa2b-bcaec562e169'
p979
aI00
aI00
aNaa(lp980
L5752090994058710841686401513731520L
aL5752090994058710841686401533731520L
aS'41068fe2-42e0-11e5-aa2b-bcaec562e169'
p981
aI00
aI00
aNaa(lp982
L5752090994058710841686401533731520L
aL5752090994058710841686401553731520L
aS'4106914a-42e0-11e5-aa2b-bcaec562e169'
p983
aI00
aI00
aNaa(lp984
L5752090994058710841686401553731520L
aL5752090994058710841686401573731520L
aS'410692c6-42e0-11e5-aa2b-bcaec562e169'
p985
aI00
aI00
aNaa(lp986
L5752090994058710841686401573731520L
aL5752090994058710841686401593731520L
aS'4106949c-42e0-11e5-aa2b-bcaec562e169'
p987
aI00
aI00
aNaa(lp988
L5752090994058710841686401593731520L
aL5752090994058710841686401613731520L
aS'4106964a-42e0-11e5-aa2b-bcaec562e169'
p989
aI00
aI00
aNaa(lp990
L5752090994058710841686401613731520L
aL5752090994058710841686401633731520L
aS'410697f8-42e0-11e5-aa2b-bcaec562e169'
p991
aI00
aI00
aNaa(lp992
L5752090994058710841686401633731520L
aL5752090994058710841686401653731520L
aS'4106999c-42e0-11e5-aa2b-bcaec562e169'
p993
aI00
aI00
aNaa(lp994
L5752090994058710841686401653731520L
aL5752090994058710841686401673731520L
aS'41069b18-42e0-11e5-aa2b-bcaec562e169'
p995
aI00
aI00
aNaa(lp996
L5752090994058710841686401673731520L
aL5752090994058710841686401693731520L
aS'41069c80-42e0-11e5-aa2b-bcaec562e169'
p997
aI00
aI00
aNaa(lp998
L5752090994058710841686401693731520L
aL5752090994058710841686401713731520L
aS'41069df2-42e0-11e5-aa2b-bcaec562e169'
p999
aI00
aI00
aNaa(lp1000
L5752090994058710841686401713731520L
aL5752090994058710841686401733731520L
aS'41069f64-42e0-11e5-aa2b-bcaec562e169'
p1001
aI00
aI00
aNaa(lp1002
L5752090994058710841686401733731520L
aL5752090994058710841686401753731520L
aS'4106a0d6-42e0-11e5-aa2b-bcaec562e169'
p1003
aI00
aI00
aNaa(lp1004
L5752090994058710841686401753731520L
aL5752090994058710841686401773731520L
aS'4106a23e-42e0-11e5-aa2b-bcaec562e169'
p1005
aI00
aI00
aNaa(lp1006
L5752090994058710841686401773731520L
aL5752090994058710841686401793731520L
aS'4106a3b0-42e0-11e5-aa2b-bcaec562e169'
p1007
aI00
aI00
aNaa(lp1008
L5752090994058710841686401793731520L
aL5752090994058710841686401813731520L
aS'4106a522-42e0-11e5-aa2b-bcaec562e169'
p1009
aI00
aI00
aNaa(lp1010
L5752090994058710841686401813731520L
aL5752090994058710841686401833731520L
aS'4106a68a-42e0-11e5-aa2b-bcaec562e169'
p1011
aI00
aI00
aNaa(lp1012
L5752090994058710841686401833731520L
aL5752090994058710841686401853731520L
aS'4106a810-42e0-11e5-aa2b-bcaec562e169'
p1013
aI00
aI00
aNaa(lp1014
L5752090994058710841686401853731520L
aL5752090994058710841686401873731520L
aS'4106a982-42e0-11e5-aa2b-bcaec562e169'
p1015
aI00
aI00
aNaa(lp1016
L5752090994058710841686401873731520L
aL5752090994058710841686401893731520L
aS'4106aaf4-42e0-11e5-aa2b-bcaec562e169'
p1017
aI00
aI00
aNaa(lp1018
L5752090994058710841686401893731520L
aL5752090994058710841686401913731520L
aS'4106ac5c-42e0-11e5-aa2b-bcaec562e169'
p1019
aI00
aI00
aNaa(lp1020
L5752090994058710841686401913731520L
aL5752090994058710841686401933731520L
aS'4106adc4-42e0-11e5-aa2b-bcaec562e169'
p1021
aI00
aI00
aNaa(lp1022
L5752090994058710841686401933731520L
aL5752090994058710841686401953731520L
aS'4106af36-42e0-11e5-aa2b-bcaec562e169'
p1023
aI00
aI00
aNaa(lp1024
L5752090994058710841686401953731520L
aL5752090994058710841686401973731520L
aS'4106b09e-42e0-11e5-aa2b-bcaec562e169'
p1025
aI00
aI00
aNaa(lp1026
L5752090994058710841686401973731520L
aL5752090994058710841686401993731520L
aS'4106b206-42e0-11e5-aa2b-bcaec562e169'
p1027
aI00
aI00
aNaa(lp1028
L5752090994058710841686401993731520L
aL5752090994058710841686402013731520L
aS'4106b36e-42e0-11e5-aa2b-bcaec562e169'
p1029
aI00
aI00
aNaa(lp1030
L5752090994058710841686402013731520L
aL5752090994058710841686402033731520L
aS'4106b4e0-42e0-11e5-aa2b-bcaec562e169'
p1031
aI00
aI00
aNaa(lp1032
L5752090994058710841686402033731520L
aL5752090994058710841686402053731520L
aS'4106b648-42e0-11e5-aa2b-bcaec562e169'
p1033
aI00
aI00
aNaa(lp1034
L5752090994058710841686402053731520L
aL5752090994058710841686402073731520L
aS'4106b85a-42e0-11e5-aa2b-bcaec562e169'
p1035
aI00
aI00
aNaa(lp1036
L5752090994058710841686402073731520L
aL5752090994058710841686402093731520L
aS'4106b9cc-42e0-11e5-aa2b-bcaec562e169'
p1037
aI00
aI00
aNaa(lp1038
L5752090994058710841686402093731520L
aL5752090994058710841686402113731520L
aS'4106bb3e-42e0-11e5-aa2b-bcaec562e169'
p1039
aI00
aI00
aNaa(lp1040
L5752090994058710841686402113731520L
aL5752090994058710841686402133731520L
aS'4106bca6-42e0-11e5-aa2b-bcaec562e169'
p1041
aI00
aI00
aNaa(lp1042
L5752090994058710841686402133731520L
aL5752090994058710841686402153731520L
aS'4106be0e-42e0-11e5-aa2b-bcaec562e169'
p1043
aI00
aI00
aNaa(lp1044
L5752090994058710841686402153731520L
aL5752090994058710841686402173731520L
aS'4106bf76-42e0-11e5-aa2b-bcaec562e169'
p1045
aI00
aI00
aNaa(lp1046
L5752090994058710841686402173731520L
aL5752090994058710841686402193731520L
aS'4106c0e8-42e0-11e5-aa2b-bcaec562e169'
p1047
aI00
aI00
aNaa(lp1048
L5752090994058710841686402193731520L
aL5752090994058710841686402213731520L
aS'4106c250-42e0-11e5-aa2b-bcaec562e169'
p1049
aI00
aI00
aNaa(lp1050
L5752090994058710841686402213731520L
aL5752090994058710841686402233731520L
aS'4106c3cc-42e0-11e5-aa2b-bcaec562e169'
p1051
aI00
aI00
aNaa(lp1052
L5752090994058710841686402233731520L
aL5752090994058710841686402253731520L
aS'4106c53e-42e0-11e5-aa2b-bcaec562e169'
p1053
aI00
aI00
aNaa(lp1054
L5752090994058710841686402253731520L
aL5752090994058710841686402273731520L
aS'4106c6b0-42e0-11e5-aa2b-bcaec562e169'
p1055
aI00
aI00
aNaa(lp1056
L5752090994058710841686402273731520L
aL5752090994058710841686402293731520L
aS'4106c818-42e0-11e5-aa2b-bcaec562e169'
p1057
aI00
aI00
aNaa(lp1058
L5752090994058710841686402293731520L
aL5752090994058710841686402313731520L
aS'4106c980-42e0-11e5-aa2b-bcaec562e169'
p1059
aI00
aI00
aNaa(lp1060
L5752090994058710841686402313731520L
aL5752090994058710841686402333731520L
aS'4106cae8-42e0-11e5-aa2b-bcaec562e169'
p1061
aI00
aI00
aNaa(lp1062
L5752090994058710841686402333731520L
aL5752090994058710841686402353731520L
aS'4106cc50-42e0-11e5-aa2b-bcaec562e169'
p1063
aI00
aI00
aNaa(lp1064
L5752090994058710841686402353731520L
aL5752090994058710841686402373731520L
aS'4106cdb8-42e0-11e5-aa2b-bcaec562e169'
p1065
aI00
aI00
aNaa(lp1066
L5752090994058710841686402373731520L
aL5752090994058710841686402393731520L
aS'4106cf20-42e0-11e5-aa2b-bcaec562e169'
p1067
aI00
aI00
aNaa(lp1068
L5752090994058710841686402393731520L
aL5752090994058710841686402413731520L
aS'4106d088-42e0-11e5-aa2b-bcaec562e169'
p1069
aI00
aI00
aNaa(lp1070
L5752090994058710841686402413731520L
aL5752090994058710841686402433731520L
aS'4106d1f0-42e0-11e5-aa2b-bcaec562e169'
p1071
aI00
aI00
aNaa(lp1072
L5752090994058710841686402433731520L
aL5752090994058710841686402453731520L
aS'4106d358-42e0-11e5-aa2b-bcaec562e169'
p1073
aI00
aI00
aNaa(lp1074
L5752090994058710841686402453731520L
aL5752090994058710841686402473731520L
aS'4106d4ca-42e0-11e5-aa2b-bcaec562e169'
p1075
aI00
aI00
aNaa(lp1076
L5752090994058710841686402473731520L
aL5752090994058710841686402493731520L
aS'4106d632-42e0-11e5-aa2b-bcaec562e169'
p1077
aI00
aI00
aNaa(lp1078
L5752090994058710841686402493731520L
aL5752090994058710841686402513731520L
aS'4106d79a-42e0-11e5-aa2b-bcaec562e169'
p1079
aI00
aI00
aNaa(lp1080
L5752090994058710841686402513731520L
aL5752090994058710841686402533731520L
aS'4106d902-42e0-11e5-aa2b-bcaec562e169'
p1081
aI00
aI00
aNaa(lp1082
L5752090994058710841686402533731520L
aL5752090994058710841686402553731520L
aS'4106da74-42e0-11e5-aa2b-bcaec562e169'
p1083
aI00
aI00
aNaa(lp1084
L5752090994058710841686402553731520L
aL5752090994058710841686402573731520L
aS'4106dbdc-42e0-11e5-aa2b-bcaec562e169'
p1085
aI00
aI00
aNaa(lp1086
L5752090994058710841686402573731520L
aL5752090994058710841686402593731520L
aS'4106dd4e-42e0-11e5-aa2b-bcaec562e169'
p1087
aI00
aI00
aNaa(lp1088
L5752090994058710841686402593731520L
aL5752090994058710841686402613731520L
aS'4106e28a-42e0-11e5-aa2b-bcaec562e169'
p1089
aI00
aI00
aNaa(lp1090
L5752090994058710841686402613731520L
aL5752090994058710841686402633731520L
aS'4106e456-42e0-11e5-aa2b-bcaec562e169'
p1091
aI00
aI00
aNaa(lp1092
L5752090994058710841686402633731520L
aL5752090994058710841686402653731520L
aS'4106e5d2-42e0-11e5-aa2b-bcaec562e169'
p1093
aI00
aI00
aNaa(lp1094
L5752090994058710841686402653731520L
aL5752090994058710841686402673731520L
aS'4106e73a-42e0-11e5-aa2b-bcaec562e169'
p1095
aI00
aI00
aNaa(lp1096
L5752090994058710841686402673731520L
aL5752090994058710841686402693731520L
aS'4106e8ca-42e0-11e5-aa2b-bcaec562e169'
p1097
aI00
aI00
aNaa(lp1098
L5752090994058710841686402693731520L
aL5752090994058710841686402713731520L
aS'4106eb2c-42e0-11e5-aa2b-bcaec562e169'
p1099
aI00
aI00
aNaa(lp1100
L5752090994058710841686402713731520L
aL5752090994058710841686402733731520L
aS'4106ecb2-42e0-11e5-aa2b-bcaec562e169'
p1101
aI00
aI00
aNaa(lp1102
L5752090994058710841686402733731520L
aL5752090994058710841686402753731520L
aS'4106ee24-42e0-11e5-aa2b-bcaec562e169'
p1103
aI00
aI00
aNaa(lp1104
L5752090994058710841686402753731520L
aL5752090994058710841686402773731520L
aS'4106ef8c-42e0-11e5-aa2b-bcaec562e169'
p1105
aI00
aI00
aNaa(lp1106
L5752090994058710841686402773731520L
aL5752090994058710841686402793731520L
aS'4106f0f4-42e0-11e5-aa2b-bcaec562e169'
p1107
aI00
aI00
aNaa(lp1108
L5752090994058710841686402793731520L
aL5752090994058710841686402813731520L
aS'4106f266-42e0-11e5-aa2b-bcaec562e169'
p1109
aI00
aI00
aNaa(lp1110
L5752090994058710841686402813731520L
aL5752090994058710841686402833731520L
aS'4106f3d8-42e0-11e5-aa2b-bcaec562e169'
p1111
aI00
aI00
aNaa(lp1112
L5752090994058710841686402833731520L
aL5752090994058710841686402853731520L
aS'4106f54a-42e0-11e5-aa2b-bcaec562e169'
p1113
aI00
aI00
aNaa(lp1114
L5752090994058710841686402853731520L
aL5752090994058710841686402873731520L
aS'4106f6b2-42e0-11e5-aa2b-bcaec562e169'
p1115
aI00
aI00
aNaa(lp1116
L5752090994058710841686402873731520L
aL5752090994058710841686402893731520L
aS'4106f81a-42e0-11e5-aa2b-bcaec562e169'
p1117
aI00
aI00
aNaa(lp1118
L5752090994058710841686402893731520L
aL5752090994058710841686402913731520L
aS'4106f982-42e0-11e5-aa2b-bcaec562e169'
p1119
aI00
aI00
aNaa(lp1120
L5752090994058710841686402913731520L
aL5752090994058710841686402933731520L
aS'4106faf4-42e0-11e5-aa2b-bcaec562e169'
p1121
aI00
aI00
aNaa(lp1122
L5752090994058710841686402933731520L
aL5752090994058710841686402953731520L
aS'4106fc66-42e0-11e5-aa2b-bcaec562e169'
p1123
aI00
aI00
aNaa(lp1124
L5752090994058710841686402953731520L
aL5752090994058710841686402973731520L
aS'4106fdce-42e0-11e5-aa2b-bcaec562e169'
p1125
aI00
aI00
aNaa(lp1126
L5752090994058710841686402973731520L
aL5752090994058710841686402993731520L
aS'4106ff40-42e0-11e5-aa2b-bcaec562e169'
p1127
aI00
aI00
aNaa(lp1128
L5752090994058710841686402993731520L
aL5752090994058710841686403013731520L
aS'410700b2-42e0-11e5-aa2b-bcaec562e169'
p1129
aI00
aI00
aNaa(lp1130
L5752090994058710841686403013731520L
aL5752090994058710841686403033731520L
aS'41070224-42e0-11e5-aa2b-bcaec562e169'
p1131
aI00
aI00
aNaa(lp1132
L5752090994058710841686403033731520L
aL5752090994058710841686403053731520L
aS'4107038c-42e0-11e5-aa2b-bcaec562e169'
p1133
aI00
aI00
aNaa(lp1134
L5752090994058710841686403053731520L
aL5752090994058710841686403073731520L
aS'410704fe-42e0-11e5-aa2b-bcaec562e169'
p1135
aI00
aI00
aNaa(lp1136
L5752090994058710841686403073731520L
aL5752090994058710841686403093731520L
aS'41070670-42e0-11e5-aa2b-bcaec562e169'
p1137
aI00
aI00
aNaa(lp1138
L5752090994058710841686403093731520L
aL5752090994058710841686403113731520L
aS'410707d8-42e0-11e5-aa2b-bcaec562e169'
p1139
aI00
aI00
aNaa(lp1140
L5752090994058710841686403113731520L
aL5752090994058710841686403133731520L
aS'4107094a-42e0-11e5-aa2b-bcaec562e169'
p1141
aI00
aI00
aNaa(lp1142
L5752090994058710841686403133731520L
aL5752090994058710841686403153731520L
aS'41070abc-42e0-11e5-aa2b-bcaec562e169'
p1143
aI00
aI00
aNaa(lp1144
L5752090994058710841686403153731520L
aL5752090994058710841686403173731520L
aS'41070c2e-42e0-11e5-aa2b-bcaec562e169'
p1145
aI00
aI00
aNaa(lp1146
L5752090994058710841686403173731520L
aL5752090994058710841686403193731520L
aS'41070da0-42e0-11e5-aa2b-bcaec562e169'
p1147
aI00
aI00
aNaa(lp1148
L5752090994058710841686403193731520L
aL5752090994058710841686403213731520L
aS'41070f08-42e0-11e5-aa2b-bcaec562e169'
p1149
aI00
aI00
aNaa(lp1150
L5752090994058710841686403213731520L
aL5752090994058710841686403233731520L
aS'4107108e-42e0-11e5-aa2b-bcaec562e169'
p1151
aI00
aI00
aNaa(lp1152
L5752090994058710841686403233731520L
aL5752090994058710841686403253731520L
aS'41071200-42e0-11e5-aa2b-bcaec562e169'
p1153
aI00
aI00
aNaa(lp1154
L5752090994058710841686403253731520L
aL5752090994058710841686403273731520L
aS'41071368-42e0-11e5-aa2b-bcaec562e169'
p1155
aI00
aI00
aNaa(lp1156
L5752090994058710841686403273731520L
aL5752090994058710841686403293731520L
aS'410714d0-42e0-11e5-aa2b-bcaec562e169'
p1157
aI00
aI00
aNaa(lp1158
L5752090994058710841686403293731520L
aL5752090994058710841686403313731520L
aS'41071642-42e0-11e5-aa2b-bcaec562e169'
p1159
aI00
aI00
aNaa(lp1160
L5752090994058710841686403313731520L
aL5752090994058710841686403333731520L
aS'410717aa-42e0-11e5-aa2b-bcaec562e169'
p1161
aI00
aI00
aNaa(lp1162
L5752090994058710841686403333731520L
aL5752090994058710841686403353731520L
aS'41071926-42e0-11e5-aa2b-bcaec562e169'
p1163
aI00
aI00
aNaa(lp1164
L5752090994058710841686403353731520L
aL5752090994058710841686403373731520L
aS'41071a8e-42e0-11e5-aa2b-bcaec562e169'
p1165
aI00
aI00
aNaa(lp1166
L5752090994058710841686403373731520L
aL5752090994058710841686403393731520L
aS'41071c00-42e0-11e5-aa2b-bcaec562e169'
p1167
aI00
aI00
aNaa(lp1168
L5752090994058710841686403393731520L
aL5752090994058710841686403413731520L
aS'41071d7c-42e0-11e5-aa2b-bcaec562e169'
p1169
aI00
aI00
aNaa(lp1170
L5752090994058710841686403413731520L
aL5752090994058710841686403433731520L
aS'41071ee4-42e0-11e5-aa2b-bcaec562e169'
p1171
aI00
aI00
aNaa(lp1172
L5752090994058710841686403433731520L
aL5752090994058710841686403453731520L
aS'41072056-42e0-11e5-aa2b-bcaec562e169'
p1173
aI00
aI00
aNaa(lp1174
L5752090994058710841686403453731520L
aL5752090994058710841686403473731520L
aS'410721c8-42e0-11e5-aa2b-bcaec562e169'
p1175
aI00
aI00
aNaa(lp1176
L5752090994058710841686403473731520L
aL5752090994058710841686403493731520L
aS'4107233a-42e0-11e5-aa2b-bcaec562e169'
p1177
aI00
aI00
aNaa(lp1178
L5752090994058710841686403493731520L
aL5752090994058710841686403513731520L
aS'410724ac-42e0-11e5-aa2b-bcaec562e169'
p1179
aI00
aI00
aNaa(lp1180
L5752090994058710841686403513731520L
aL5752090994058710841686403533731520L
aS'41072632-42e0-11e5-aa2b-bcaec562e169'
p1181
aI00
aI00
aNaa(lp1182
L5752090994058710841686403533731520L
aL5752090994058710841686403553731520L
aS'410727a4-42e0-11e5-aa2b-bcaec562e169'
p1183
aI00
aI00
aNaa(lp1184
L5752090994058710841686403553731520L
aL5752090994058710841686403573731520L
aS'41072916-42e0-11e5-aa2b-bcaec562e169'
p1185
aI00
aI00
aNaa(lp1186
L5752090994058710841686403573731520L
aL5752090994058710841686403593731520L
aS'41072a88-42e0-11e5-aa2b-bcaec562e169'
p1187
aI00
aI00
aNaa(lp1188
L5752090994058710841686403593731520L
aL5752090994058710841686403613731520L
aS'41072bf0-42e0-11e5-aa2b-bcaec562e169'
p1189
aI00
aI00
aNaa(lp1190
L5752090994058710841686403613731520L
aL5752090994058710841686403633731520L
aS'41072d62-42e0-11e5-aa2b-bcaec562e169'
p1191
aI00
aI00
aNaa(lp1192
L5752090994058710841686403633731520L
aL5752090994058710841686403653731520L
aS'41072ed4-42e0-11e5-aa2b-bcaec562e169'
p1193
aI00
aI00
aNaa(lp1194
L5752090994058710841686403653731520L
aL5752090994058710841686403673731520L
aS'4107303c-42e0-11e5-aa2b-bcaec562e169'
p1195
aI00
aI00
aNaa(lp1196
L5752090994058710841686403673731520L
aL5752090994058710841686403693731520L
aS'410731a4-42e0-11e5-aa2b-bcaec562e169'
p1197
aI00
aI00
aNaa(lp1198
L5752090994058710841686403693731520L
aL5752090994058710841686403713731520L
aS'4107330c-42e0-11e5-aa2b-bcaec562e169'
p1199
aI00
aI00
aNaa(lp1200
L5752090994058710841686403713731520L
aL5752090994058710841686403733731520L
aS'4107347e-42e0-11e5-aa2b-bcaec562e169'
p1201
aI00
aI00
aNaa(lp1202
L5752090994058710841686403733731520L
aL5752090994058710841686403753731520L
aS'410735e6-42e0-11e5-aa2b-bcaec562e169'
p1203
aI00
aI00
aNaa(lp1204
L5752090994058710841686403753731520L
aL5752090994058710841686403773731520L
aS'41073758-42e0-11e5-aa2b-bcaec562e169'
p1205
aI00
aI00
aNaa(lp1206
L5752090994058710841686403773731520L
aL5752090994058710841686403793731520L
aS'410738b6-42e0-11e5-aa2b-bcaec562e169'
p1207
aI00
aI00
aNaa(lp1208
L5752090994058710841686403793731520L
aL5752090994058710841686403813731520L
aS'41073a28-42e0-11e5-aa2b-bcaec562e169'
p1209
aI00
aI00
aNaa(lp1210
L5752090994058710841686403813731520L
aL5752090994058710841686403833731520L
aS'41073ba4-42e0-11e5-aa2b-bcaec562e169'
p1211
aI00
aI00
aNaa(lp1212
L5752090994058710841686403833731520L
aL5752090994058710841686403853731520L
aS'41073d16-42e0-11e5-aa2b-bcaec562e169'
p1213
aI00
aI00
aNaa(lp1214
L5752090994058710841686403853731520L
aL5752090994058710841686403873731520L
aS'41073e88-42e0-11e5-aa2b-bcaec562e169'
p1215
aI00
aI00
aNaa(lp1216
L5752090994058710841686403873731520L
aL5752090994058710841686403893731520L
aS'41073ffa-42e0-11e5-aa2b-bcaec562e169'
p1217
aI00
aI00
aNaa(lp1218
L5752090994058710841686403893731520L
aL5752090994058710841686403913731520L
aS'4107416c-42e0-11e5-aa2b-bcaec562e169'
p1219
aI00
aI00
aNaa(lp1220
L5752090994058710841686403913731520L
aL5752090994058710841686403933731520L
aS'410742d4-42e0-11e5-aa2b-bcaec562e169'
p1221
aI00
aI00
aNaa(lp1222
L5752090994058710841686403933731520L
aL5752090994058710841686403953731520L
aS'41074446-42e0-11e5-aa2b-bcaec562e169'
p1223
aI00
aI01
aS'2e8632fa-42d6-11e5-84ee-bcaec562e169'
p1224
aa.