(lp1
(lp2
L7000000000000000000000011156750000L
aL7000000000000000000000011156760000L
aS'34eabb66-8b2c-11e2-a70d-fa163e3a40ba'
p3
aI01
aI00
aNaa(lp4
L7000000000000000000000011156760000L
aL7000000000000000000000011156770000L
aS'34eabeea-8b2c-11e2-a70d-fa163e3a40ba'
p5
aI01
aI01
aS'e5f3a1f4-8b1b-11e2-9ec6-00e07dd5df94'
p6
aa(lp7
L7000000000000000000000011156770000L
aL7000000000000000000000011156780000L
aS'34eac0ac-8b2c-11e2-a70d-fa163e3a40ba'
p8
aI01
aI01
aS'e37449ec-8b1b-11e2-a8a3-00e07dd5df94'
p9
aa(lp10
L7000000000000000000000011156780000L
aL7000000000000000000000011156790000L
aS'34eac246-8b2c-11e2-a70d-fa163e3a40ba'
p11
aI01
aI01
aS'e4d67fbc-8b1b-11e2-af62-00e07dd5df94'
p12
aa(lp13
L7000000000000000000000011156790000L
aL7000000000000000000000011156800000L
aS'34eac3fe-8b2c-11e2-a70d-fa163e3a40ba'
p14
aI01
aI01
aS'e51c0dac-8b1b-11e2-8101-00e07dd5df94'
p15
aa(lp16
L7000000000000000000000011156800000L
aL7000000000000000000000011156810000L
aS'34eac58e-8b2c-11e2-a70d-fa163e3a40ba'
p17
aI01
aI01
aS'e4a8b3d4-8b1b-11e2-99e4-00e07dd5df94'
p18
aa(lp19
L7000000000000000000000011156810000L
aL7000000000000000000000011156820000L
aS'34eac70a-8b2c-11e2-a70d-fa163e3a40ba'
p20
aI01
aI01
aS'e5f3a1f4-8b1b-11e2-9ec6-00e07dd5df94'
p21
aa(lp22
L7000000000000000000000011156820000L
aL7000000000000000000000011156830000L
aS'34eac8b8-8b2c-11e2-a70d-fa163e3a40ba'
p23
aI01
aI01
aS'e4d67fbc-8b1b-11e2-af62-00e07dd5df94'
p24
aa(lp25
L7000000000000000000000011156830000L
aL7000000000000000000000011156840000L
aS'34eaca48-8b2c-11e2-a70d-fa163e3a40ba'
p26
aI01
aI01
aS'e37449ec-8b1b-11e2-a8a3-00e07dd5df94'
p27
aa(lp28
L7000000000000000000000011156840000L
aL7000000000000000000000011156850000L
aS'34eacbec-8b2c-11e2-a70d-fa163e3a40ba'
p29
aI01
aI01
aS'e4a8b3d4-8b1b-11e2-99e4-00e07dd5df94'
p30
aa(lp31
L7000000000000000000000011156850000L
aL7000000000000000000000011156860000L
aS'34eacd86-8b2c-11e2-a70d-fa163e3a40ba'
p32
aI01
aI01
aS'e51c0dac-8b1b-11e2-8101-00e07dd5df94'
p33
aa(lp34
L7000000000000000000000011156860000L
aL7000000000000000000000011156870000L
aS'34ead1b4-8b2c-11e2-a70d-fa163e3a40ba'
p35
aI01
aI01
aS'e5f3a1f4-8b1b-11e2-9ec6-00e07dd5df94'
p36
aa(lp37
L7000000000000000000000011156870000L
aL7000000000000000000000011156880000L
aS'34ead632-8b2c-11e2-a70d-fa163e3a40ba'
p38
aI01
aI01
aS'e4d67fbc-8b1b-11e2-af62-00e07dd5df94'
p39
aa(lp40
L7000000000000000000000011156880000L
aL7000000000000000000000011156890000L
aS'34eada56-8b2c-11e2-a70d-fa163e3a40ba'
p41
aI01
aI01
aS'e37449ec-8b1b-11e2-a8a3-00e07dd5df94'
p42
aa(lp43
L7000000000000000000000011156890000L
aL7000000000000000000000011156900000L
aS'34eadec0-8b2c-11e2-a70d-fa163e3a40ba'
p44
aI01
aI01
aS'e51c0dac-8b1b-11e2-8101-00e07dd5df94'
p45
aa(lp46
L7000000000000000000000011156900000L
aL7000000000000000000000011156910000L
aS'34eae28a-8b2c-11e2-a70d-fa163e3a40ba'
p47
aI01
aI01
aS'e4a8b3d4-8b1b-11e2-99e4-00e07dd5df94'
p48
aa(lp49
L7000000000000000000000011156910000L
aL7000000000000000000000011156920000L
aS'34eae6ea-8b2c-11e2-a70d-fa163e3a40ba'
p50
aI01
aI01
aS'e5f3a1f4-8b1b-11e2-9ec6-00e07dd5df94'
p51
aa(lp52
L7000000000000000000000011156920000L
aL7000000000000000000000011156930000L
aS'34eaeb4a-8b2c-11e2-a70d-fa163e3a40ba'
p53
aI01
aI01
aS'e37449ec-8b1b-11e2-a8a3-00e07dd5df94'
p54
aa(lp55
L7000000000000000000000011156930000L
aL7000000000000000000000011156940000L
aS'34eaef0a-8b2c-11e2-a70d-fa163e3a40ba'
p56
aI01
aI01
aS'e4d67fbc-8b1b-11e2-af62-00e07dd5df94'
p57
aa(lp58
L7000000000000000000000011156940000L
aL7000000000000000000000011156950000L
aS'34eaf32e-8b2c-11e2-a70d-fa163e3a40ba'
p59
aI01
aI01
aS'e51c0dac-8b1b-11e2-8101-00e07dd5df94'
p60
aa(lp61
L7000000000000000000000011156950000L
aL7000000000000000000000011156960000L
aS'34eaf784-8b2c-11e2-a70d-fa163e3a40ba'
p62
aI01
aI01
aS'e5f3a1f4-8b1b-11e2-9ec6-00e07dd5df94'
p63
aa(lp64
L7000000000000000000000011156960000L
aL7000000000000000000000011156970000L
aS'34eafb9e-8b2c-11e2-a70d-fa163e3a40ba'
p65
aI01
aI01
aS'e4a8b3d4-8b1b-11e2-99e4-00e07dd5df94'
p66
aa(lp67
L7000000000000000000000011156970000L
aL7000000000000000000000011156980000L
aS'34eaff54-8b2c-11e2-a70d-fa163e3a40ba'
p68
aI01
aI01
aS'e4d67fbc-8b1b-11e2-af62-00e07dd5df94'
p69
aa(lp70
L7000000000000000000000011156980000L
aL7000000000000000000000011156990000L
aS'34eb0382-8b2c-11e2-a70d-fa163e3a40ba'
p71
aI01
aI01
aS'e37449ec-8b1b-11e2-a8a3-00e07dd5df94'
p72
aa(lp73
L7000000000000000000000011156990000L
aL7000000000000000000000011157000000L
aS'34eb0832-8b2c-11e2-a70d-fa163e3a40ba'
p74
aI01
aI01
aS'e51c0dac-8b1b-11e2-8101-00e07dd5df94'
p75
aa(lp76
L7000000000000000000000011157000000L
aL7000000000000000000000011157010000L
aS'34eb0c42-8b2c-11e2-a70d-fa163e3a40ba'
p77
aI01
aI01
aS'e5f3a1f4-8b1b-11e2-9ec6-00e07dd5df94'
p78
aa(lp79
L7000000000000000000000011157010000L
aL7000000000000000000000011157020000L
aS'34eb10ac-8b2c-11e2-a70d-fa163e3a40ba'
p80
aI01
aI01
aS'e4a8b3d4-8b1b-11e2-99e4-00e07dd5df94'
p81
aa(lp82
L7000000000000000000000011157020000L
aL7000000000000000000000011157030000L
aS'34eb14c6-8b2c-11e2-a70d-fa163e3a40ba'
p83
aI01
aI01
aS'e37449ec-8b1b-11e2-a8a3-00e07dd5df94'
p84
aa(lp85
L7000000000000000000000011157030000L
aL7000000000000000000000011157040000L
aS'34eb18f4-8b2c-11e2-a70d-fa163e3a40ba'
p86
aI01
aI01
aS'e4d67fbc-8b1b-11e2-af62-00e07dd5df94'
p87
aa(lp88
L7000000000000000000000011157040000L
aL7000000000000000000000011157050000L
aS'34eb1f98-8b2c-11e2-a70d-fa163e3a40ba'
p89
aI01
aI01
aS'e51c0dac-8b1b-11e2-8101-00e07dd5df94'
p90
aa(lp91
L7000000000000000000000011157050000L
aL7000000000000000000000011157060000L
aS'34eb23d0-8b2c-11e2-a70d-fa163e3a40ba'
p92
aI01
aI01
aS'e5f3a1f4-8b1b-11e2-9ec6-00e07dd5df94'
p93
aa(lp94
L7000000000000000000000011157060000L
aL7000000000000000000000011157070000L
aS'34eb27f4-8b2c-11e2-a70d-fa163e3a40ba'
p95
aI01
aI01
aS'e4a8b3d4-8b1b-11e2-99e4-00e07dd5df94'
p96
aa(lp97
L7000000000000000000000011157070000L
aL7000000000000000000000011157080000L
aS'34eb2c18-8b2c-11e2-a70d-fa163e3a40ba'
p98
aI01
aI01
aS'e4a8b3d4-8b1b-11e2-99e4-00e07dd5df94'
p99
aa(lp100
L7000000000000000000000011157080000L
aL7000000000000000000000011157090000L
aS'34eb3032-8b2c-11e2-a70d-fa163e3a40ba'
p101
aI01
aI01
aS'e4d67fbc-8b1b-11e2-af62-00e07dd5df94'
p102
aa(lp103
L7000000000000000000000011157090000L
aL7000000000000000000000011157100000L
aS'34eb3456-8b2c-11e2-a70d-fa163e3a40ba'
p104
aI01
aI01
aS'e37449ec-8b1b-11e2-a8a3-00e07dd5df94'
p105
aa(lp106
L7000000000000000000000011157100000L
aL7000000000000000000000011157110000L
aS'34eb3820-8b2c-11e2-a70d-fa163e3a40ba'
p107
aI01
aI01
aS'e5f3a1f4-8b1b-11e2-9ec6-00e07dd5df94'
p108
aa(lp109
L7000000000000000000000011157110000L
aL7000000000000000000000011157120000L
aS'34eb3c4e-8b2c-11e2-a70d-fa163e3a40ba'
p110
aI01
aI01
aS'e51c0dac-8b1b-11e2-8101-00e07dd5df94'
p111
aa(lp112
L7000000000000000000000011157120000L
aL7000000000000000000000011157130000L
aS'34eb40a4-8b2c-11e2-a70d-fa163e3a40ba'
p113
aI01
aI00
aNaa(lp114
L7000000000000000000000011157130000L
aL7000000000000000000000011157140000L
aS'34eb44be-8b2c-11e2-a70d-fa163e3a40ba'
p115
aI01
aI00
aNaa(lp116
L7000000000000000000000011157140000L
aL7000000000000000000000011157150000L
aS'34eb48d8-8b2c-11e2-a70d-fa163e3a40ba'
p117
aI01
aI00
aNaa(lp118
L7000000000000000000000011157150000L
aL7000000000000000000000011157160000L
aS'34eb4c98-8b2c-11e2-a70d-fa163e3a40ba'
p119
aI01
aI00
aNaa(lp120
L7000000000000000000000011157160000L
aL7000000000000000000000011157170000L
aS'34eb50d0-8b2c-11e2-a70d-fa163e3a40ba'
p121
aI01
aI00
aNaa(lp122
L7000000000000000000000011157170000L
aL7000000000000000000000011157180000L
aS'34eb54fe-8b2c-11e2-a70d-fa163e3a40ba'
p123
aI00
aI00
aNaa(lp124
L7000000000000000000000011157180000L
aL7000000000000000000000011157190000L
aS'34eb5922-8b2c-11e2-a70d-fa163e3a40ba'
p125
aI00
aI00
aNaa(lp126
L7000000000000000000000011157190000L
aL7000000000000000000000011157200000L
aS'34eb5d46-8b2c-11e2-a70d-fa163e3a40ba'
p127
aI00
aI00
aNaa(lp128
L7000000000000000000000011157200000L
aL7000000000000000000000011157210000L
aS'34eb6160-8b2c-11e2-a70d-fa163e3a40ba'
p129
aI00
aI00
aNaa(lp130
L7000000000000000000000011157210000L
aL7000000000000000000000011157220000L
aS'34eb65c0-8b2c-11e2-a70d-fa163e3a40ba'
p131
aI00
aI00
aNaa(lp132
L7000000000000000000000011157220000L
aL7000000000000000000000011157230000L
aS'34eb6994-8b2c-11e2-a70d-fa163e3a40ba'
p133
aI00
aI00
aNaa(lp134
L7000000000000000000000011157230000L
aL7000000000000000000000011157240000L
aS'34eb6e58-8b2c-11e2-a70d-fa163e3a40ba'
p135
aI00
aI00
aNaa(lp136
L7000000000000000000000011157240000L
aL7000000000000000000000011157250000L
aS'34eb72a4-8b2c-11e2-a70d-fa163e3a40ba'
p137
aI00
aI00
aNaa(lp138
L7000000000000000000000011157250000L
aL7000000000000000000000011157260000L
aS'34eb76d2-8b2c-11e2-a70d-fa163e3a40ba'
p139
aI00
aI00
aNaa(lp140
L7000000000000000000000011157260000L
aL7000000000000000000000011157270000L
aS'34eb7af6-8b2c-11e2-a70d-fa163e3a40ba'
p141
aI00
aI00
aNaa(lp142
L7000000000000000000000011157270000L
aL7000000000000000000000011157280000L
aS'34eb7f1a-8b2c-11e2-a70d-fa163e3a40ba'
p143
aI00
aI00
aNaa(lp144
L7000000000000000000000011157280000L
aL7000000000000000000000011157290000L
aS'34eb835c-8b2c-11e2-a70d-fa163e3a40ba'
p145
aI00
aI00
aNaa(lp146
L7000000000000000000000011157290000L
aL7000000000000000000000011157300000L
aS'34eb8780-8b2c-11e2-a70d-fa163e3a40ba'
p147
aI00
aI00
aNaa(lp148
L7000000000000000000000011157300000L
aL7000000000000000000000011157310000L
aS'34eb8b9a-8b2c-11e2-a70d-fa163e3a40ba'
p149
aI00
aI00
aNaa(lp150
L7000000000000000000000011157310000L
aL7000000000000000000000011157320000L
aS'34eb8fc8-8b2c-11e2-a70d-fa163e3a40ba'
p151
aI00
aI00
aNaa(lp152
L7000000000000000000000011157320000L
aL7000000000000000000000011157330000L
aS'34eb93e2-8b2c-11e2-a70d-fa163e3a40ba'
p153
aI00
aI00
aNaa(lp154
L7000000000000000000000011157330000L
aL7000000000000000000000011157340000L
aS'34eb9806-8b2c-11e2-a70d-fa163e3a40ba'
p155
aI00
aI00
aNaa(lp156
L7000000000000000000000011157340000L
aL7000000000000000000000011157350000L
aS'34eb9c3e-8b2c-11e2-a70d-fa163e3a40ba'
p157
aI00
aI00
aNaa(lp158
L7000000000000000000000011157350000L
aL7000000000000000000000011157360000L
aS'34eba058-8b2c-11e2-a70d-fa163e3a40ba'
p159
aI00
aI00
aNaa(lp160
L7000000000000000000000011157360000L
aL7000000000000000000000011157370000L
aS'34eba47c-8b2c-11e2-a70d-fa163e3a40ba'
p161
aI00
aI00
aNaa(lp162
L7000000000000000000000011157370000L
aL7000000000000000000000011157380000L
aS'34eba8aa-8b2c-11e2-a70d-fa163e3a40ba'
p163
aI00
aI00
aNaa(lp164
L7000000000000000000000011157380000L
aL7000000000000000000000011157390000L
aS'34ebac56-8b2c-11e2-a70d-fa163e3a40ba'
p165
aI00
aI00
aNaa(lp166
L7000000000000000000000011157390000L
aL7000000000000000000000011157400000L
aS'34ebb07a-8b2c-11e2-a70d-fa163e3a40ba'
p167
aI00
aI00
aNaa(lp168
L7000000000000000000000011157400000L
aL7000000000000000000000011157410000L
aS'34ebb430-8b2c-11e2-a70d-fa163e3a40ba'
p169
aI00
aI00
aNaa(lp170
L7000000000000000000000011157410000L
aL7000000000000000000000011157420000L
aS'34ebba8e-8b2c-11e2-a70d-fa163e3a40ba'
p171
aI00
aI00
aNaa(lp172
L7000000000000000000000011157420000L
aL7000000000000000000000011157430000L
aS'34ebbed0-8b2c-11e2-a70d-fa163e3a40ba'
p173
aI00
aI00
aNaa(lp174
L7000000000000000000000011157430000L
aL7000000000000000000000011157440000L
aS'34ebc2fe-8b2c-11e2-a70d-fa163e3a40ba'
p175
aI00
aI00
aNaa(lp176
L7000000000000000000000011157440000L
aL7000000000000000000000011157450000L
aS'34ebc718-8b2c-11e2-a70d-fa163e3a40ba'
p177
aI00
aI00
aNaa(lp178
L7000000000000000000000011157450000L
aL7000000000000000000000011157460000L
aS'34ebcba0-8b2c-11e2-a70d-fa163e3a40ba'
p179
aI00
aI00
aNaa(lp180
L7000000000000000000000011157460000L
aL7000000000000000000000011157470000L
aS'34ebcfba-8b2c-11e2-a70d-fa163e3a40ba'
p181
aI00
aI00
aNaa(lp182
L7000000000000000000000011157470000L
aL7000000000000000000000011157480000L
aS'34ebd41a-8b2c-11e2-a70d-fa163e3a40ba'
p183
aI00
aI00
aNaa(lp184
L7000000000000000000000011157480000L
aL7000000000000000000000011157490000L
aS'34ebd83e-8b2c-11e2-a70d-fa163e3a40ba'
p185
aI00
aI00
aNaa(lp186
L7000000000000000000000011157490000L
aL7000000000000000000000011157500000L
aS'34ebdc62-8b2c-11e2-a70d-fa163e3a40ba'
p187
aI00
aI00
aNaa(lp188
L7000000000000000000000011157500000L
aL7000000000000000000000011157510000L
aS'34ebe0b8-8b2c-11e2-a70d-fa163e3a40ba'
p189
aI00
aI00
aNaa(lp190
L7000000000000000000000011157510000L
aL7000000000000000000000011157520000L
aS'34ebe482-8b2c-11e2-a70d-fa163e3a40ba'
p191
aI00
aI00
aNaa(lp192
L7000000000000000000000011157520000L
aL7000000000000000000000011157530000L
aS'34ebe8ec-8b2c-11e2-a70d-fa163e3a40ba'
p193
aI00
aI00
aNaa(lp194
L7000000000000000000000011157530000L
aL7000000000000000000000011157540000L
aS'34ebed10-8b2c-11e2-a70d-fa163e3a40ba'
p195
aI00
aI00
aNaa(lp196
L7000000000000000000000011157540000L
aL7000000000000000000000011157550000L
aS'34ebf12a-8b2c-11e2-a70d-fa163e3a40ba'
p197
aI00
aI00
aNaa(lp198
L7000000000000000000000011157550000L
aL7000000000000000000000011157560000L
aS'34ebf544-8b2c-11e2-a70d-fa163e3a40ba'
p199
aI00
aI00
aNaa(lp200
L7000000000000000000000011157560000L
aL7000000000000000000000011157570000L
aS'34ebf972-8b2c-11e2-a70d-fa163e3a40ba'
p201
aI00
aI00
aNaa(lp202
L7000000000000000000000011157570000L
aL7000000000000000000000011157580000L
aS'34ebfd3c-8b2c-11e2-a70d-fa163e3a40ba'
p203
aI00
aI00
aNaa(lp204
L7000000000000000000000011157580000L
aL7000000000000000000000011157590000L
aS'34ec014c-8b2c-11e2-a70d-fa163e3a40ba'
p205
aI00
aI00
aNaa(lp206
L7000000000000000000000011157590000L
aL7000000000000000000000011157600000L
aS'34ec050c-8b2c-11e2-a70d-fa163e3a40ba'
p207
aI00
aI00
aNaa(lp208
L7000000000000000000000011157600000L
aL7000000000000000000000011157610000L
aS'34ec0a52-8b2c-11e2-a70d-fa163e3a40ba'
p209
aI00
aI00
aNaa(lp210
L7000000000000000000000011157610000L
aL7000000000000000000000011157620000L
aS'34ec0e30-8b2c-11e2-a70d-fa163e3a40ba'
p211
aI00
aI00
aNaa(lp212
L7000000000000000000000011157620000L
aL7000000000000000000000011157630000L
aS'34ec12b8-8b2c-11e2-a70d-fa163e3a40ba'
p213
aI00
aI00
aNaa(lp214
L7000000000000000000000011157630000L
aL7000000000000000000000011157640000L
aS'34ec16fa-8b2c-11e2-a70d-fa163e3a40ba'
p215
aI00
aI00
aNaa(lp216
L7000000000000000000000011157640000L
aL7000000000000000000000011157650000L
aS'34ec1b82-8b2c-11e2-a70d-fa163e3a40ba'
p217
aI00
aI00
aNaa(lp218
L7000000000000000000000011157650000L
aL7000000000000000000000011157660000L
aS'34ec1fb0-8b2c-11e2-a70d-fa163e3a40ba'
p219
aI00
aI00
aNaa(lp220
L7000000000000000000000011157660000L
aL7000000000000000000000011157670000L
aS'34ec2424-8b2c-11e2-a70d-fa163e3a40ba'
p221
aI00
aI00
aNaa(lp222
L7000000000000000000000011157670000L
aL7000000000000000000000011157680000L
aS'34ec27ee-8b2c-11e2-a70d-fa163e3a40ba'
p223
aI00
aI00
aNaa(lp224
L7000000000000000000000011157680000L
aL7000000000000000000000011157690000L
aS'34ec2c26-8b2c-11e2-a70d-fa163e3a40ba'
p225
aI00
aI00
aNaa(lp226
L7000000000000000000000011157690000L
aL7000000000000000000000011157700000L
aS'34ec304a-8b2c-11e2-a70d-fa163e3a40ba'
p227
aI00
aI00
aNaa(lp228
L7000000000000000000000011157700000L
aL7000000000000000000000011157710000L
aS'34ec34aa-8b2c-11e2-a70d-fa163e3a40ba'
p229
aI00
aI00
aNaa(lp230
L7000000000000000000000011157710000L
aL7000000000000000000000011157720000L
aS'34ec386a-8b2c-11e2-a70d-fa163e3a40ba'
p231
aI00
aI00
aNaa(lp232
L7000000000000000000000011157720000L
aL7000000000000000000000011157730000L
aS'34ec3c98-8b2c-11e2-a70d-fa163e3a40ba'
p233
aI00
aI00
aNaa(lp234
L7000000000000000000000011157730000L
aL7000000000000000000000011157740000L
aS'34ec40bc-8b2c-11e2-a70d-fa163e3a40ba'
p235
aI00
aI00
aNaa(lp236
L7000000000000000000000011157740000L
aL7000000000000000000000011157750000L
aS'34ec451c-8b2c-11e2-a70d-fa163e3a40ba'
p237
aI00
aI01
aS'e4a8b3d4-8b1b-11e2-99e4-00e07dd5df94'
p238
aa.