(lp1
(lp2
I34000
aI34100
aS'eec6b7fa-838a-11e2-b3c4-000c29b76fa4'
p3
aI01
aI01
aa(lp4
I34100
aI34200
aS'eec7a3ae-838a-11e2-b3c4-000c29b76fa4'
p5
aI01
aI01
aa(lp6
I34200
aI34300
aS'eec8676c-838a-11e2-b3c4-000c29b76fa4'
p7
aI01
aI01
aa(lp8
I34300
aI34400
aS'eec93372-838a-11e2-b3c4-000c29b76fa4'
p9
aI01
aI01
aa(lp10
I34400
aI34500
aS'eeca0d56-838a-11e2-b3c4-000c29b76fa4'
p11
aI01
aI01
aa(lp12
I34500
aI34600
aS'eeca2d22-838a-11e2-b3c4-000c29b76fa4'
p13
aI01
aI01
aa(lp14
I34600
aI34700
aS'eeca384e-838a-11e2-b3c4-000c29b76fa4'
p15
aI01
aI01
aa(lp16
I34700
aI34800
aS'eeca41d6-838a-11e2-b3c4-000c29b76fa4'
p17
aI01
aI01
aa(lp18
I34800
aI34900
aS'eeca4b22-838a-11e2-b3c4-000c29b76fa4'
p19
aI01
aI01
aa(lp20
I34900
aI35000
aS'eeca5856-838a-11e2-b3c4-000c29b76fa4'
p21
aI00
aI00
aa.