(lp1
(lp2
L7000000000000000000000011129000000L
aL7000000000000000000000011129010000L
aS'eb0ed936-8a8c-11e2-a37a-fa163e3a40ba'
p3
aI01
aI00
aNaa(lp4
L7000000000000000000000011129010000L
aL7000000000000000000000011129020000L
aS'eb0f4038-8a8c-11e2-a37a-fa163e3a40ba'
p5
aI01
aI00
aNaa(lp6
L7000000000000000000000011129020000L
aL7000000000000000000000011129030000L
aS'eb0fb162-8a8c-11e2-a37a-fa163e3a40ba'
p7
aI01
aI00
aNaa(lp8
L7000000000000000000000011129030000L
aL7000000000000000000000011129040000L
aS'eb10257a-8a8c-11e2-a37a-fa163e3a40ba'
p9
aI01
aI00
aNaa(lp10
L7000000000000000000000011129040000L
aL7000000000000000000000011129050000L
aS'eb107a0c-8a8c-11e2-a37a-fa163e3a40ba'
p11
aI01
aI00
aNaa(lp12
L7000000000000000000000011129050000L
aL7000000000000000000000011129060000L
aS'eb108538-8a8c-11e2-a37a-fa163e3a40ba'
p13
aI01
aI00
aNaa(lp14
L7000000000000000000000011129060000L
aL7000000000000000000000011129070000L
aS'eb108862-8a8c-11e2-a37a-fa163e3a40ba'
p15
aI01
aI00
aNaa(lp16
L7000000000000000000000011129070000L
aL7000000000000000000000011129080000L
aS'eb108baa-8a8c-11e2-a37a-fa163e3a40ba'
p17
aI01
aI00
aNaa(lp18
L7000000000000000000000011129080000L
aL7000000000000000000000011129090000L
aS'eb108e98-8a8c-11e2-a37a-fa163e3a40ba'
p19
aI01
aI00
aNaa(lp20
L7000000000000000000000011129090000L
aL7000000000000000000000011129100000L
aS'eb1090a0-8a8c-11e2-a37a-fa163e3a40ba'
p21
aI01
aI00
aNaa(lp22
L7000000000000000000000011129100000L
aL7000000000000000000000011129110000L
aS'eb1092ee-8a8c-11e2-a37a-fa163e3a40ba'
p23
aI01
aI00
aNaa(lp24
L7000000000000000000000011129110000L
aL7000000000000000000000011129120000L
aS'eb1095a0-8a8c-11e2-a37a-fa163e3a40ba'
p25
aI01
aI00
aNaa(lp26
L7000000000000000000000011129120000L
aL7000000000000000000000011129130000L
aS'eb10978a-8a8c-11e2-a37a-fa163e3a40ba'
p27
aI01
aI00
aNaa(lp28
L7000000000000000000000011129130000L
aL7000000000000000000000011129140000L
aS'eb109a32-8a8c-11e2-a37a-fa163e3a40ba'
p29
aI01
aI00
aNaa(lp30
L7000000000000000000000011129140000L
aL7000000000000000000000011129150000L
aS'eb109c9e-8a8c-11e2-a37a-fa163e3a40ba'
p31
aI01
aI00
aNaa(lp32
L7000000000000000000000011129150000L
aL7000000000000000000000011129160000L
aS'eb109f14-8a8c-11e2-a37a-fa163e3a40ba'
p33
aI01
aI00
aNaa(lp34
L7000000000000000000000011129160000L
aL7000000000000000000000011129170000L
aS'eb10a16c-8a8c-11e2-a37a-fa163e3a40ba'
p35
aI01
aI00
aNaa(lp36
L7000000000000000000000011129170000L
aL7000000000000000000000011129180000L
aS'eb10a3f6-8a8c-11e2-a37a-fa163e3a40ba'
p37
aI01
aI00
aNaa(lp38
L7000000000000000000000011129180000L
aL7000000000000000000000011129190000L
aS'eb10a5cc-8a8c-11e2-a37a-fa163e3a40ba'
p39
aI01
aI00
aNaa(lp40
L7000000000000000000000011129190000L
aL7000000000000000000000011129200000L
aS'eb10a838-8a8c-11e2-a37a-fa163e3a40ba'
p41
aI01
aI00
aNaa(lp42
L7000000000000000000000011129200000L
aL7000000000000000000000011129210000L
aS'eb10ab30-8a8c-11e2-a37a-fa163e3a40ba'
p43
aI01
aI00
aNaa(lp44
L7000000000000000000000011129210000L
aL7000000000000000000000011129220000L
aS'eb10ae50-8a8c-11e2-a37a-fa163e3a40ba'
p45
aI01
aI00
aNaa(lp46
L7000000000000000000000011129220000L
aL7000000000000000000000011129230000L
aS'eb10b1e8-8a8c-11e2-a37a-fa163e3a40ba'
p47
aI01
aI00
aNaa(lp48
L7000000000000000000000011129230000L
aL7000000000000000000000011129240000L
aS'eb10b45e-8a8c-11e2-a37a-fa163e3a40ba'
p49
aI01
aI00
aNaa(lp50
L7000000000000000000000011129240000L
aL7000000000000000000000011129250000L
aS'eb10b738-8a8c-11e2-a37a-fa163e3a40ba'
p51
aI01
aI00
aNaa(lp52
L7000000000000000000000011129250000L
aL7000000000000000000000011129260000L
aS'eb10b986-8a8c-11e2-a37a-fa163e3a40ba'
p53
aI01
aI00
aNaa(lp54
L7000000000000000000000011129260000L
aL7000000000000000000000011129270000L
aS'eb10bc06-8a8c-11e2-a37a-fa163e3a40ba'
p55
aI01
aI00
aNaa(lp56
L7000000000000000000000011129270000L
aL7000000000000000000000011129280000L
aS'eb10be9a-8a8c-11e2-a37a-fa163e3a40ba'
p57
aI01
aI00
aNaa(lp58
L7000000000000000000000011129280000L
aL7000000000000000000000011129290000L
aS'eb10c110-8a8c-11e2-a37a-fa163e3a40ba'
p59
aI01
aI00
aNaa(lp60
L7000000000000000000000011129290000L
aL7000000000000000000000011129300000L
aS'eb10c372-8a8c-11e2-a37a-fa163e3a40ba'
p61
aI01
aI00
aNaa(lp62
L7000000000000000000000011129300000L
aL7000000000000000000000011129310000L
aS'eb10c5ca-8a8c-11e2-a37a-fa163e3a40ba'
p63
aI01
aI00
aNaa(lp64
L7000000000000000000000011129310000L
aL7000000000000000000000011129320000L
aS'eb10c836-8a8c-11e2-a37a-fa163e3a40ba'
p65
aI01
aI00
aNaa(lp66
L7000000000000000000000011129320000L
aL7000000000000000000000011129330000L
aS'eb10ca98-8a8c-11e2-a37a-fa163e3a40ba'
p67
aI01
aI00
aNaa(lp68
L7000000000000000000000011129330000L
aL7000000000000000000000011129340000L
aS'eb10cd04-8a8c-11e2-a37a-fa163e3a40ba'
p69
aI01
aI00
aNaa(lp70
L7000000000000000000000011129340000L
aL7000000000000000000000011129350000L
aS'eb10cf66-8a8c-11e2-a37a-fa163e3a40ba'
p71
aI01
aI00
aNaa(lp72
L7000000000000000000000011129350000L
aL7000000000000000000000011129360000L
aS'eb10d240-8a8c-11e2-a37a-fa163e3a40ba'
p73
aI01
aI00
aNaa(lp74
L7000000000000000000000011129360000L
aL7000000000000000000000011129370000L
aS'eb10d4c0-8a8c-11e2-a37a-fa163e3a40ba'
p75
aI01
aI00
aNaa(lp76
L7000000000000000000000011129370000L
aL7000000000000000000000011129380000L
aS'eb10d736-8a8c-11e2-a37a-fa163e3a40ba'
p77
aI01
aI00
aNaa(lp78
L7000000000000000000000011129380000L
aL7000000000000000000000011129390000L
aS'eb10d9b6-8a8c-11e2-a37a-fa163e3a40ba'
p79
aI01
aI00
aNaa(lp80
L7000000000000000000000011129390000L
aL7000000000000000000000011129400000L
aS'eb10dc18-8a8c-11e2-a37a-fa163e3a40ba'
p81
aI01
aI00
aNaa(lp82
L7000000000000000000000011129400000L
aL7000000000000000000000011129410000L
aS'eb10defc-8a8c-11e2-a37a-fa163e3a40ba'
p83
aI01
aI00
aNaa(lp84
L7000000000000000000000011129410000L
aL7000000000000000000000011129420000L
aS'eb10e172-8a8c-11e2-a37a-fa163e3a40ba'
p85
aI01
aI00
aNaa(lp86
L7000000000000000000000011129420000L
aL7000000000000000000000011129430000L
aS'eb10e3fc-8a8c-11e2-a37a-fa163e3a40ba'
p87
aI01
aI00
aNaa(lp88
L7000000000000000000000011129430000L
aL7000000000000000000000011129440000L
aS'eb10e672-8a8c-11e2-a37a-fa163e3a40ba'
p89
aI01
aI00
aNaa(lp90
L7000000000000000000000011129440000L
aL7000000000000000000000011129450000L
aS'eb10e8c0-8a8c-11e2-a37a-fa163e3a40ba'
p91
aI01
aI00
aNaa(lp92
L7000000000000000000000011129450000L
aL7000000000000000000000011129460000L
aS'eb10eb9a-8a8c-11e2-a37a-fa163e3a40ba'
p93
aI01
aI00
aNaa(lp94
L7000000000000000000000011129460000L
aL7000000000000000000000011129470000L
aS'eb10ee7e-8a8c-11e2-a37a-fa163e3a40ba'
p95
aI01
aI00
aNaa(lp96
L7000000000000000000000011129470000L
aL7000000000000000000000011129480000L
aS'eb10f522-8a8c-11e2-a37a-fa163e3a40ba'
p97
aI01
aI00
aNaa(lp98
L7000000000000000000000011129480000L
aL7000000000000000000000011129490000L
aS'eb10fcca-8a8c-11e2-a37a-fa163e3a40ba'
p99
aI01
aI00
aNaa(lp100
L7000000000000000000000011129490000L
aL7000000000000000000000011129500000L
aS'eb110738-8a8c-11e2-a37a-fa163e3a40ba'
p101
aI01
aI00
aNaa(lp102
L7000000000000000000000011129500000L
aL7000000000000000000000011129510000L
aS'eb110e90-8a8c-11e2-a37a-fa163e3a40ba'
p103
aI01
aI00
aNaa(lp104
L7000000000000000000000011129510000L
aL7000000000000000000000011129520000L
aS'eb111642-8a8c-11e2-a37a-fa163e3a40ba'
p105
aI01
aI00
aNaa(lp106
L7000000000000000000000011129520000L
aL7000000000000000000000011129530000L
aS'eb111e12-8a8c-11e2-a37a-fa163e3a40ba'
p107
aI01
aI00
aNaa(lp108
L7000000000000000000000011129530000L
aL7000000000000000000000011129540000L
aS'eb11257e-8a8c-11e2-a37a-fa163e3a40ba'
p109
aI01
aI00
aNaa(lp110
L7000000000000000000000011129540000L
aL7000000000000000000000011129550000L
aS'eb112cea-8a8c-11e2-a37a-fa163e3a40ba'
p111
aI01
aI00
aNaa(lp112
L7000000000000000000000011129550000L
aL7000000000000000000000011129560000L
aS'eb1134b0-8a8c-11e2-a37a-fa163e3a40ba'
p113
aI01
aI00
aNaa(lp114
L7000000000000000000000011129560000L
aL7000000000000000000000011129570000L
aS'eb113c30-8a8c-11e2-a37a-fa163e3a40ba'
p115
aI01
aI00
aNaa(lp116
L7000000000000000000000011129570000L
aL7000000000000000000000011129580000L
aS'eb1143a6-8a8c-11e2-a37a-fa163e3a40ba'
p117
aI01
aI00
aNaa(lp118
L7000000000000000000000011129580000L
aL7000000000000000000000011129590000L
aS'eb114b08-8a8c-11e2-a37a-fa163e3a40ba'
p119
aI01
aI00
aNaa(lp120
L7000000000000000000000011129590000L
aL7000000000000000000000011129600000L
aS'eb115274-8a8c-11e2-a37a-fa163e3a40ba'
p121
aI01
aI00
aNaa(lp122
L7000000000000000000000011129600000L
aL7000000000000000000000011129610000L
aS'eb115a08-8a8c-11e2-a37a-fa163e3a40ba'
p123
aI01
aI00
aNaa(lp124
L7000000000000000000000011129610000L
aL7000000000000000000000011129620000L
aS'eb116142-8a8c-11e2-a37a-fa163e3a40ba'
p125
aI01
aI00
aNaa(lp126
L7000000000000000000000011129620000L
aL7000000000000000000000011129630000L
aS'eb1168b8-8a8c-11e2-a37a-fa163e3a40ba'
p127
aI01
aI00
aNaa(lp128
L7000000000000000000000011129630000L
aL7000000000000000000000011129640000L
aS'eb1170ba-8a8c-11e2-a37a-fa163e3a40ba'
p129
aI01
aI00
aNaa(lp130
L7000000000000000000000011129640000L
aL7000000000000000000000011129650000L
aS'eb11784e-8a8c-11e2-a37a-fa163e3a40ba'
p131
aI01
aI00
aNaa(lp132
L7000000000000000000000011129650000L
aL7000000000000000000000011129660000L
aS'eb117fe2-8a8c-11e2-a37a-fa163e3a40ba'
p133
aI01
aI00
aNaa(lp134
L7000000000000000000000011129660000L
aL7000000000000000000000011129670000L
aS'eb11873a-8a8c-11e2-a37a-fa163e3a40ba'
p135
aI01
aI00
aNaa(lp136
L7000000000000000000000011129670000L
aL7000000000000000000000011129680000L
aS'eb118f6e-8a8c-11e2-a37a-fa163e3a40ba'
p137
aI01
aI00
aNaa(lp138
L7000000000000000000000011129680000L
aL7000000000000000000000011129690000L
aS'eb1196ee-8a8c-11e2-a37a-fa163e3a40ba'
p139
aI01
aI00
aNaa(lp140
L7000000000000000000000011129690000L
aL7000000000000000000000011129700000L
aS'eb11a0f8-8a8c-11e2-a37a-fa163e3a40ba'
p141
aI01
aI00
aNaa(lp142
L7000000000000000000000011129700000L
aL7000000000000000000000011129710000L
aS'eb11a878-8a8c-11e2-a37a-fa163e3a40ba'
p143
aI01
aI00
aNaa(lp144
L7000000000000000000000011129710000L
aL7000000000000000000000011129720000L
aS'eb11afc6-8a8c-11e2-a37a-fa163e3a40ba'
p145
aI01
aI00
aNaa(lp146
L7000000000000000000000011129720000L
aL7000000000000000000000011129730000L
aS'eb11b73c-8a8c-11e2-a37a-fa163e3a40ba'
p147
aI01
aI00
aNaa(lp148
L7000000000000000000000011129730000L
aL7000000000000000000000011129740000L
aS'eb11be6c-8a8c-11e2-a37a-fa163e3a40ba'
p149
aI01
aI00
aNaa(lp150
L7000000000000000000000011129740000L
aL7000000000000000000000011129750000L
aS'eb11c59c-8a8c-11e2-a37a-fa163e3a40ba'
p151
aI01
aI00
aNaa(lp152
L7000000000000000000000011129750000L
aL7000000000000000000000011129760000L
aS'eb11ccf4-8a8c-11e2-a37a-fa163e3a40ba'
p153
aI01
aI00
aNaa(lp154
L7000000000000000000000011129760000L
aL7000000000000000000000011129770000L
aS'eb11d46a-8a8c-11e2-a37a-fa163e3a40ba'
p155
aI01
aI00
aNaa(lp156
L7000000000000000000000011129770000L
aL7000000000000000000000011129780000L
aS'eb11dbcc-8a8c-11e2-a37a-fa163e3a40ba'
p157
aI01
aI00
aNaa(lp158
L7000000000000000000000011129780000L
aL7000000000000000000000011129790000L
aS'eb11e324-8a8c-11e2-a37a-fa163e3a40ba'
p159
aI01
aI00
aNaa(lp160
L7000000000000000000000011129790000L
aL7000000000000000000000011129800000L
aS'eb11ea4a-8a8c-11e2-a37a-fa163e3a40ba'
p161
aI01
aI00
aNaa(lp162
L7000000000000000000000011129800000L
aL7000000000000000000000011129810000L
aS'eb11f1ac-8a8c-11e2-a37a-fa163e3a40ba'
p163
aI01
aI00
aNaa(lp164
L7000000000000000000000011129810000L
aL7000000000000000000000011129820000L
aS'eb11f90e-8a8c-11e2-a37a-fa163e3a40ba'
p165
aI01
aI00
aNaa(lp166
L7000000000000000000000011129820000L
aL7000000000000000000000011129830000L
aS'eb120066-8a8c-11e2-a37a-fa163e3a40ba'
p167
aI01
aI00
aNaa(lp168
L7000000000000000000000011129830000L
aL7000000000000000000000011129840000L
aS'eb1207d2-8a8c-11e2-a37a-fa163e3a40ba'
p169
aI01
aI00
aNaa(lp170
L7000000000000000000000011129840000L
aL7000000000000000000000011129850000L
aS'eb120fd4-8a8c-11e2-a37a-fa163e3a40ba'
p171
aI01
aI00
aNaa(lp172
L7000000000000000000000011129850000L
aL7000000000000000000000011129860000L
aS'eb121790-8a8c-11e2-a37a-fa163e3a40ba'
p173
aI01
aI00
aNaa(lp174
L7000000000000000000000011129860000L
aL7000000000000000000000011129870000L
aS'eb121efc-8a8c-11e2-a37a-fa163e3a40ba'
p175
aI01
aI00
aNaa(lp176
L7000000000000000000000011129870000L
aL7000000000000000000000011129880000L
aS'eb122654-8a8c-11e2-a37a-fa163e3a40ba'
p177
aI01
aI00
aNaa(lp178
L7000000000000000000000011129880000L
aL7000000000000000000000011129890000L
aS'eb122eba-8a8c-11e2-a37a-fa163e3a40ba'
p179
aI01
aI00
aNaa(lp180
L7000000000000000000000011129890000L
aL7000000000000000000000011129900000L
aS'eb1235f4-8a8c-11e2-a37a-fa163e3a40ba'
p181
aI01
aI00
aNaa(lp182
L7000000000000000000000011129900000L
aL7000000000000000000000011129910000L
aS'eb1240bc-8a8c-11e2-a37a-fa163e3a40ba'
p183
aI01
aI00
aNaa(lp184
L7000000000000000000000011129910000L
aL7000000000000000000000011129920000L
aS'eb1247ec-8a8c-11e2-a37a-fa163e3a40ba'
p185
aI01
aI00
aNaa(lp186
L7000000000000000000000011129920000L
aL7000000000000000000000011129930000L
aS'eb124f58-8a8c-11e2-a37a-fa163e3a40ba'
p187
aI01
aI00
aNaa(lp188
L7000000000000000000000011129930000L
aL7000000000000000000000011129940000L
aS'eb125796-8a8c-11e2-a37a-fa163e3a40ba'
p189
aI01
aI00
aNaa(lp190
L7000000000000000000000011129940000L
aL7000000000000000000000011129950000L
aS'eb126204-8a8c-11e2-a37a-fa163e3a40ba'
p191
aI01
aI00
aNaa(lp192
L7000000000000000000000011129950000L
aL7000000000000000000000011129960000L
aS'eb126b32-8a8c-11e2-a37a-fa163e3a40ba'
p193
aI01
aI00
aNaa(lp194
L7000000000000000000000011129960000L
aL7000000000000000000000011129970000L
aS'eb127294-8a8c-11e2-a37a-fa163e3a40ba'
p195
aI01
aI00
aNaa(lp196
L7000000000000000000000011129970000L
aL7000000000000000000000011129980000L
aS'eb127a32-8a8c-11e2-a37a-fa163e3a40ba'
p197
aI01
aI00
aNaa(lp198
L7000000000000000000000011129980000L
aL7000000000000000000000011129990000L
aS'eb1281c6-8a8c-11e2-a37a-fa163e3a40ba'
p199
aI01
aI00
aNaa(lp200
L7000000000000000000000011129990000L
aL7000000000000000000000011130000000L
aS'eb128900-8a8c-11e2-a37a-fa163e3a40ba'
p201
aI01
aI00
aNaa.