(lp1
(lp2
L7000000000000000000000005668000000L
aL7000000000000000000000005668010000L
aS'1cf105ca-867b-11e2-9265-000c29e250a1'
p3
aI01
aI01
aa(lp4
L7000000000000000000000005668010000L
aL7000000000000000000000005668020000L
aS'1cf10a84-867b-11e2-9265-000c29e250a1'
p5
aI01
aI01
aa(lp6
L7000000000000000000000005668020000L
aL7000000000000000000000005668030000L
aS'1cf10e9e-867b-11e2-9265-000c29e250a1'
p7
aI01
aI01
aa(lp8
L7000000000000000000000005668030000L
aL7000000000000000000000005668040000L
aS'1cf112ae-867b-11e2-9265-000c29e250a1'
p9
aI01
aI01
aa(lp10
L7000000000000000000000005668040000L
aL7000000000000000000000005668050000L
aS'1cf116b4-867b-11e2-9265-000c29e250a1'
p11
aI01
aI01
aa(lp12
L7000000000000000000000005668050000L
aL7000000000000000000000005668060000L
aS'1cf11ac4-867b-11e2-9265-000c29e250a1'
p13
aI01
aI01
aa(lp14
L7000000000000000000000005668060000L
aL7000000000000000000000005668070000L
aS'1cf1223a-867b-11e2-9265-000c29e250a1'
p15
aI01
aI01
aa(lp16
L7000000000000000000000005668070000L
aL7000000000000000000000005668080000L
aS'1cf1264a-867b-11e2-9265-000c29e250a1'
p17
aI01
aI01
aa(lp18
L7000000000000000000000005668080000L
aL7000000000000000000000005668090000L
aS'1cf12a46-867b-11e2-9265-000c29e250a1'
p19
aI01
aI01
aa(lp20
L7000000000000000000000005668090000L
aL7000000000000000000000005668100000L
aS'1cf12e4c-867b-11e2-9265-000c29e250a1'
p21
aI01
aI01
aa(lp22
L7000000000000000000000005668100000L
aL7000000000000000000000005668110000L
aS'1cf13252-867b-11e2-9265-000c29e250a1'
p23
aI01
aI01
aa(lp24
L7000000000000000000000005668110000L
aL7000000000000000000000005668120000L
aS'1cf1366c-867b-11e2-9265-000c29e250a1'
p25
aI01
aI01
aa(lp26
L7000000000000000000000005668120000L
aL7000000000000000000000005668130000L
aS'1cf13a7c-867b-11e2-9265-000c29e250a1'
p27
aI01
aI01
aa(lp28
L7000000000000000000000005668130000L
aL7000000000000000000000005668140000L
aS'1cf13e82-867b-11e2-9265-000c29e250a1'
p29
aI01
aI01
aa(lp30
L7000000000000000000000005668140000L
aL7000000000000000000000005668150000L
aS'1cf14288-867b-11e2-9265-000c29e250a1'
p31
aI01
aI01
aa(lp32
L7000000000000000000000005668150000L
aL7000000000000000000000005668160000L
aS'1cf1468e-867b-11e2-9265-000c29e250a1'
p33
aI01
aI01
aa(lp34
L7000000000000000000000005668160000L
aL7000000000000000000000005668170000L
aS'1cf14a94-867b-11e2-9265-000c29e250a1'
p35
aI01
aI01
aa(lp36
L7000000000000000000000005668170000L
aL7000000000000000000000005668180000L
aS'1cf14ea4-867b-11e2-9265-000c29e250a1'
p37
aI01
aI01
aa(lp38
L7000000000000000000000005668180000L
aL7000000000000000000000005668190000L
aS'1cf152aa-867b-11e2-9265-000c29e250a1'
p39
aI01
aI01
aa(lp40
L7000000000000000000000005668190000L
aL7000000000000000000000005668200000L
aS'1cf156ce-867b-11e2-9265-000c29e250a1'
p41
aI01
aI01
aa(lp42
L7000000000000000000000005668200000L
aL7000000000000000000000005668210000L
aS'1cf15aca-867b-11e2-9265-000c29e250a1'
p43
aI01
aI01
aa(lp44
L7000000000000000000000005668210000L
aL7000000000000000000000005668220000L
aS'1cf15ec6-867b-11e2-9265-000c29e250a1'
p45
aI01
aI01
aa(lp46
L7000000000000000000000005668220000L
aL7000000000000000000000005668230000L
aS'1cf162c2-867b-11e2-9265-000c29e250a1'
p47
aI01
aI01
aa(lp48
L7000000000000000000000005668230000L
aL7000000000000000000000005668240000L
aS'1cf166b4-867b-11e2-9265-000c29e250a1'
p49
aI01
aI01
aa(lp50
L7000000000000000000000005668240000L
aL7000000000000000000000005668250000L
aS'1cf18e0a-867b-11e2-9265-000c29e250a1'
p51
aI01
aI01
aa(lp52
L7000000000000000000000005668250000L
aL7000000000000000000000005668260000L
aS'1cf1926a-867b-11e2-9265-000c29e250a1'
p53
aI01
aI01
aa(lp54
L7000000000000000000000005668260000L
aL7000000000000000000000005668270000L
aS'1cf1967a-867b-11e2-9265-000c29e250a1'
p55
aI01
aI01
aa(lp56
L7000000000000000000000005668270000L
aL7000000000000000000000005668280000L
aS'1cf19a80-867b-11e2-9265-000c29e250a1'
p57
aI01
aI01
aa(lp58
L7000000000000000000000005668280000L
aL7000000000000000000000005668290000L
aS'1cf19f1c-867b-11e2-9265-000c29e250a1'
p59
aI01
aI01
aa(lp60
L7000000000000000000000005668290000L
aL7000000000000000000000005668300000L
aS'1cf1a34a-867b-11e2-9265-000c29e250a1'
p61
aI01
aI01
aa(lp62
L7000000000000000000000005668300000L
aL7000000000000000000000005668310000L
aS'1cf1a764-867b-11e2-9265-000c29e250a1'
p63
aI01
aI01
aa(lp64
L7000000000000000000000005668310000L
aL7000000000000000000000005668320000L
aS'1cf1ab60-867b-11e2-9265-000c29e250a1'
p65
aI01
aI01
aa(lp66
L7000000000000000000000005668320000L
aL7000000000000000000000005668330000L
aS'1cf1af66-867b-11e2-9265-000c29e250a1'
p67
aI01
aI01
aa(lp68
L7000000000000000000000005668330000L
aL7000000000000000000000005668340000L
aS'1cf1b362-867b-11e2-9265-000c29e250a1'
p69
aI01
aI01
aa(lp70
L7000000000000000000000005668340000L
aL7000000000000000000000005668350000L
aS'1cf1b772-867b-11e2-9265-000c29e250a1'
p71
aI01
aI01
aa(lp72
L7000000000000000000000005668350000L
aL7000000000000000000000005668360000L
aS'1cf1bb82-867b-11e2-9265-000c29e250a1'
p73
aI01
aI01
aa(lp74
L7000000000000000000000005668360000L
aL7000000000000000000000005668370000L
aS'1cf1bfa6-867b-11e2-9265-000c29e250a1'
p75
aI01
aI01
aa(lp76
L7000000000000000000000005668370000L
aL7000000000000000000000005668380000L
aS'1cf1c3c0-867b-11e2-9265-000c29e250a1'
p77
aI01
aI01
aa(lp78
L7000000000000000000000005668380000L
aL7000000000000000000000005668390000L
aS'1cf1c7bc-867b-11e2-9265-000c29e250a1'
p79
aI01
aI01
aa(lp80
L7000000000000000000000005668390000L
aL7000000000000000000000005668400000L
aS'1cf1cbc2-867b-11e2-9265-000c29e250a1'
p81
aI01
aI01
aa(lp82
L7000000000000000000000005668400000L
aL7000000000000000000000005668410000L
aS'1cf1cfd2-867b-11e2-9265-000c29e250a1'
p83
aI01
aI01
aa(lp84
L7000000000000000000000005668410000L
aL7000000000000000000000005668420000L
aS'1cf24372-867b-11e2-9265-000c29e250a1'
p85
aI01
aI01
aa(lp86
L7000000000000000000000005668420000L
aL7000000000000000000000005668430000L
aS'1cf248b8-867b-11e2-9265-000c29e250a1'
p87
aI01
aI01
aa(lp88
L7000000000000000000000005668430000L
aL7000000000000000000000005668440000L
aS'1cf24d7c-867b-11e2-9265-000c29e250a1'
p89
aI01
aI01
aa(lp90
L7000000000000000000000005668440000L
aL7000000000000000000000005668450000L
aS'1cf2522c-867b-11e2-9265-000c29e250a1'
p91
aI01
aI01
aa(lp92
L7000000000000000000000005668450000L
aL7000000000000000000000005668460000L
aS'1cf256dc-867b-11e2-9265-000c29e250a1'
p93
aI01
aI01
aa(lp94
L7000000000000000000000005668460000L
aL7000000000000000000000005668470000L
aS'1cf25b8c-867b-11e2-9265-000c29e250a1'
p95
aI01
aI01
aa(lp96
L7000000000000000000000005668470000L
aL7000000000000000000000005668480000L
aS'1cf26046-867b-11e2-9265-000c29e250a1'
p97
aI01
aI01
aa(lp98
L7000000000000000000000005668480000L
aL7000000000000000000000005668490000L
aS'1cf264e2-867b-11e2-9265-000c29e250a1'
p99
aI01
aI01
aa(lp100
L7000000000000000000000005668490000L
aL7000000000000000000000005668500000L
aS'1cf26992-867b-11e2-9265-000c29e250a1'
p101
aI01
aI01
aa(lp102
L7000000000000000000000005668500000L
aL7000000000000000000000005668510000L
aS'1cf26e38-867b-11e2-9265-000c29e250a1'
p103
aI01
aI01
aa(lp104
L7000000000000000000000005668510000L
aL7000000000000000000000005668520000L
aS'1cf272fc-867b-11e2-9265-000c29e250a1'
p105
aI01
aI01
aa(lp106
L7000000000000000000000005668520000L
aL7000000000000000000000005668530000L
aS'1cf277ac-867b-11e2-9265-000c29e250a1'
p107
aI01
aI01
aa(lp108
L7000000000000000000000005668530000L
aL7000000000000000000000005668540000L
aS'1cf27c52-867b-11e2-9265-000c29e250a1'
p109
aI01
aI01
aa(lp110
L7000000000000000000000005668540000L
aL7000000000000000000000005668550000L
aS'1cf280da-867b-11e2-9265-000c29e250a1'
p111
aI01
aI01
aa(lp112
L7000000000000000000000005668550000L
aL7000000000000000000000005668560000L
aS'1cf28576-867b-11e2-9265-000c29e250a1'
p113
aI01
aI01
aa(lp114
L7000000000000000000000005668560000L
aL7000000000000000000000005668570000L
aS'1cf28a12-867b-11e2-9265-000c29e250a1'
p115
aI01
aI01
aa(lp116
L7000000000000000000000005668570000L
aL7000000000000000000000005668580000L
aS'1cf30596-867b-11e2-9265-000c29e250a1'
p117
aI01
aI01
aa(lp118
L7000000000000000000000005668580000L
aL7000000000000000000000005668590000L
aS'1cf30b54-867b-11e2-9265-000c29e250a1'
p119
aI01
aI01
aa(lp120
L7000000000000000000000005668590000L
aL7000000000000000000000005668600000L
aS'1cf30ff0-867b-11e2-9265-000c29e250a1'
p121
aI01
aI01
aa(lp122
L7000000000000000000000005668600000L
aL7000000000000000000000005668610000L
aS'1cf314a0-867b-11e2-9265-000c29e250a1'
p123
aI01
aI01
aa(lp124
L7000000000000000000000005668610000L
aL7000000000000000000000005668620000L
aS'1cf31932-867b-11e2-9265-000c29e250a1'
p125
aI01
aI01
aa(lp126
L7000000000000000000000005668620000L
aL7000000000000000000000005668630000L
aS'1cf31dce-867b-11e2-9265-000c29e250a1'
p127
aI01
aI01
aa(lp128
L7000000000000000000000005668630000L
aL7000000000000000000000005668640000L
aS'1cf3226a-867b-11e2-9265-000c29e250a1'
p129
aI01
aI01
aa(lp130
L7000000000000000000000005668640000L
aL7000000000000000000000005668650000L
aS'1cf326f2-867b-11e2-9265-000c29e250a1'
p131
aI01
aI01
aa(lp132
L7000000000000000000000005668650000L
aL7000000000000000000000005668660000L
aS'1cf32b8e-867b-11e2-9265-000c29e250a1'
p133
aI01
aI01
aa(lp134
L7000000000000000000000005668660000L
aL7000000000000000000000005668670000L
aS'1cf3300c-867b-11e2-9265-000c29e250a1'
p135
aI01
aI01
aa(lp136
L7000000000000000000000005668670000L
aL7000000000000000000000005668680000L
aS'1cf33494-867b-11e2-9265-000c29e250a1'
p137
aI01
aI01
aa(lp138
L7000000000000000000000005668680000L
aL7000000000000000000000005668690000L
aS'1cf3391c-867b-11e2-9265-000c29e250a1'
p139
aI01
aI01
aa(lp140
L7000000000000000000000005668690000L
aL7000000000000000000000005668700000L
aS'1cf33dae-867b-11e2-9265-000c29e250a1'
p141
aI01
aI01
aa(lp142
L7000000000000000000000005668700000L
aL7000000000000000000000005668710000L
aS'1cf34254-867b-11e2-9265-000c29e250a1'
p143
aI01
aI01
aa(lp144
L7000000000000000000000005668710000L
aL7000000000000000000000005668720000L
aS'1cf346fa-867b-11e2-9265-000c29e250a1'
p145
aI01
aI01
aa(lp146
L7000000000000000000000005668720000L
aL7000000000000000000000005668730000L
aS'1cf34ba0-867b-11e2-9265-000c29e250a1'
p147
aI01
aI01
aa(lp148
L7000000000000000000000005668730000L
aL7000000000000000000000005668740000L
aS'1cf35046-867b-11e2-9265-000c29e250a1'
p149
aI01
aI01
aa(lp150
L7000000000000000000000005668740000L
aL7000000000000000000000005668750000L
aS'1cf354ce-867b-11e2-9265-000c29e250a1'
p151
aI01
aI01
aa(lp152
L7000000000000000000000005668750000L
aL7000000000000000000000005668760000L
aS'1cf3594c-867b-11e2-9265-000c29e250a1'
p153
aI01
aI01
aa(lp154
L7000000000000000000000005668760000L
aL7000000000000000000000005668770000L
aS'1cf36a68-867b-11e2-9265-000c29e250a1'
p155
aI01
aI01
aa(lp156
L7000000000000000000000005668770000L
aL7000000000000000000000005668780000L
aS'1cf36f18-867b-11e2-9265-000c29e250a1'
p157
aI01
aI01
aa(lp158
L7000000000000000000000005668780000L
aL7000000000000000000000005668790000L
aS'1cf373b4-867b-11e2-9265-000c29e250a1'
p159
aI01
aI01
aa(lp160
L7000000000000000000000005668790000L
aL7000000000000000000000005668800000L
aS'1cf3785a-867b-11e2-9265-000c29e250a1'
p161
aI01
aI01
aa(lp162
L7000000000000000000000005668800000L
aL7000000000000000000000005668810000L
aS'1cf37d0a-867b-11e2-9265-000c29e250a1'
p163
aI01
aI01
aa(lp164
L7000000000000000000000005668810000L
aL7000000000000000000000005668820000L
aS'1cf381a6-867b-11e2-9265-000c29e250a1'
p165
aI01
aI01
aa(lp166
L7000000000000000000000005668820000L
aL7000000000000000000000005668830000L
aS'1cf38656-867b-11e2-9265-000c29e250a1'
p167
aI01
aI01
aa(lp168
L7000000000000000000000005668830000L
aL7000000000000000000000005668840000L
aS'1cf38b10-867b-11e2-9265-000c29e250a1'
p169
aI01
aI01
aa(lp170
L7000000000000000000000005668840000L
aL7000000000000000000000005668850000L
aS'1cf46fd0-867b-11e2-9265-000c29e250a1'
p171
aI01
aI01
aa(lp172
L7000000000000000000000005668850000L
aL7000000000000000000000005668860000L
aS'1cf47548-867b-11e2-9265-000c29e250a1'
p173
aI01
aI01
aa(lp174
L7000000000000000000000005668860000L
aL7000000000000000000000005668870000L
aS'1cf4796c-867b-11e2-9265-000c29e250a1'
p175
aI01
aI01
aa(lp176
L7000000000000000000000005668870000L
aL7000000000000000000000005668880000L
aS'1cf47d72-867b-11e2-9265-000c29e250a1'
p177
aI01
aI01
aa(lp178
L7000000000000000000000005668880000L
aL7000000000000000000000005668890000L
aS'1cf4e71c-867b-11e2-9265-000c29e250a1'
p179
aI01
aI01
aa(lp180
L7000000000000000000000005668890000L
aL7000000000000000000000005668900000L
aS'1cf4ec1c-867b-11e2-9265-000c29e250a1'
p181
aI01
aI00
aa(lp182
L7000000000000000000000005668900000L
aL7000000000000000000000005668910000L
aS'1cf4f04a-867b-11e2-9265-000c29e250a1'
p183
aI01
aI01
aa(lp184
L7000000000000000000000005668910000L
aL7000000000000000000000005668920000L
aS'1cf4f450-867b-11e2-9265-000c29e250a1'
p185
aI01
aI01
aa(lp186
L7000000000000000000000005668920000L
aL7000000000000000000000005668930000L
aS'1cf4f888-867b-11e2-9265-000c29e250a1'
p187
aI01
aI01
aa(lp188
L7000000000000000000000005668930000L
aL7000000000000000000000005668940000L
aS'1cf4fcc0-867b-11e2-9265-000c29e250a1'
p189
aI01
aI01
aa(lp190
L7000000000000000000000005668940000L
aL7000000000000000000000005668950000L
aS'1cf500d0-867b-11e2-9265-000c29e250a1'
p191
aI01
aI00
aa(lp192
L7000000000000000000000005668950000L
aL7000000000000000000000005668960000L
aS'1cf504d6-867b-11e2-9265-000c29e250a1'
p193
aI01
aI00
aa(lp194
L7000000000000000000000005668960000L
aL7000000000000000000000005668970000L
aS'1cf508fa-867b-11e2-9265-000c29e250a1'
p195
aI01
aI01
aa(lp196
L7000000000000000000000005668970000L
aL7000000000000000000000005668980000L
aS'1cf50d14-867b-11e2-9265-000c29e250a1'
p197
aI01
aI00
aa(lp198
L7000000000000000000000005668980000L
aL7000000000000000000000005668990000L
aS'1cf5112e-867b-11e2-9265-000c29e250a1'
p199
aI01
aI00
aa(lp200
L7000000000000000000000005668990000L
aL7000000000000000000000005669000000L
aS'1cf5153e-867b-11e2-9265-000c29e250a1'
p201
aI01
aI01
aa.