(lp1
(lp2
L7000000000000000000000011164750000L
aL7000000000000000000000011164770000L
aS'f38ec6a4-8b2f-11e2-b8f4-fa163e3a40ba'
p3
aI01
aI01
aS'e4a8b3d4-8b1b-11e2-99e4-00e07dd5df94'
p4
aa(lp5
L7000000000000000000000011164770000L
aL7000000000000000000000011164790000L
aS'f38f23c4-8b2f-11e2-b8f4-fa163e3a40ba'
p6
aI01
aI01
aS'e37449ec-8b1b-11e2-a8a3-00e07dd5df94'
p7
aa(lp8
L7000000000000000000000011164790000L
aL7000000000000000000000011164810000L
aS'f38f83dc-8b2f-11e2-b8f4-fa163e3a40ba'
p9
aI01
aI01
aS'e5f3a1f4-8b1b-11e2-9ec6-00e07dd5df94'
p10
aa(lp11
L7000000000000000000000011164810000L
aL7000000000000000000000011164830000L
aS'f38fd256-8b2f-11e2-b8f4-fa163e3a40ba'
p12
aI01
aI01
aS'e51c0dac-8b1b-11e2-8101-00e07dd5df94'
p13
aa(lp14
L7000000000000000000000011164830000L
aL7000000000000000000000011164850000L
aS'f39032d2-8b2f-11e2-b8f4-fa163e3a40ba'
p15
aI01
aI01
aS'e4d67fbc-8b1b-11e2-af62-00e07dd5df94'
p16
aa(lp17
L7000000000000000000000011164850000L
aL7000000000000000000000011164870000L
aS'f3904baa-8b2f-11e2-b8f4-fa163e3a40ba'
p18
aI01
aI01
aS'e5f3a1f4-8b1b-11e2-9ec6-00e07dd5df94'
p19
aa(lp20
L7000000000000000000000011164870000L
aL7000000000000000000000011164890000L
aS'f3905500-8b2f-11e2-b8f4-fa163e3a40ba'
p21
aI01
aI01
aS'e4a8b3d4-8b1b-11e2-99e4-00e07dd5df94'
p22
aa(lp23
L7000000000000000000000011164890000L
aL7000000000000000000000011164910000L
aS'f3905da2-8b2f-11e2-b8f4-fa163e3a40ba'
p24
aI01
aI01
aS'e37449ec-8b1b-11e2-a8a3-00e07dd5df94'
p25
aa(lp26
L7000000000000000000000011164910000L
aL7000000000000000000000011164930000L
aS'f39065d6-8b2f-11e2-b8f4-fa163e3a40ba'
p27
aI01
aI01
aS'e51c0dac-8b1b-11e2-8101-00e07dd5df94'
p28
aa(lp29
L7000000000000000000000011164930000L
aL7000000000000000000000011164950000L
aS'f3907008-8b2f-11e2-b8f4-fa163e3a40ba'
p30
aI01
aI01
aS'e4d67fbc-8b1b-11e2-af62-00e07dd5df94'
p31
aa(lp32
L7000000000000000000000011164950000L
aL7000000000000000000000011164970000L
aS'f3907a30-8b2f-11e2-b8f4-fa163e3a40ba'
p33
aI01
aI01
aS'e5f3a1f4-8b1b-11e2-9ec6-00e07dd5df94'
p34
aa(lp35
L7000000000000000000000011164970000L
aL7000000000000000000000011164990000L
aS'f3908322-8b2f-11e2-b8f4-fa163e3a40ba'
p36
aI01
aI01
aS'e4a8b3d4-8b1b-11e2-99e4-00e07dd5df94'
p37
aa(lp38
L7000000000000000000000011164990000L
aL7000000000000000000000011165010000L
aS'f3908b38-8b2f-11e2-b8f4-fa163e3a40ba'
p39
aI01
aI01
aS'e4d67fbc-8b1b-11e2-af62-00e07dd5df94'
p40
aa(lp41
L7000000000000000000000011165010000L
aL7000000000000000000000011165030000L
aS'f390939e-8b2f-11e2-b8f4-fa163e3a40ba'
p42
aI01
aI01
aS'e51c0dac-8b1b-11e2-8101-00e07dd5df94'
p43
aa(lp44
L7000000000000000000000011165030000L
aL7000000000000000000000011165050000L
aS'f3909bb4-8b2f-11e2-b8f4-fa163e3a40ba'
p45
aI01
aI01
aS'e37449ec-8b1b-11e2-a8a3-00e07dd5df94'
p46
aa(lp47
L7000000000000000000000011165050000L
aL7000000000000000000000011165070000L
aS'f390a3b6-8b2f-11e2-b8f4-fa163e3a40ba'
p48
aI01
aI01
aS'e5f3a1f4-8b1b-11e2-9ec6-00e07dd5df94'
p49
aa(lp50
L7000000000000000000000011165070000L
aL7000000000000000000000011165090000L
aS'f390abcc-8b2f-11e2-b8f4-fa163e3a40ba'
p51
aI01
aI00
aNaa(lp52
L7000000000000000000000011165090000L
aL7000000000000000000000011165110000L
aS'f390b478-8b2f-11e2-b8f4-fa163e3a40ba'
p53
aI01
aI00
aNaa(lp54
L7000000000000000000000011165110000L
aL7000000000000000000000011165130000L
aS'f390bc8e-8b2f-11e2-b8f4-fa163e3a40ba'
p55
aI01
aI00
aNaa(lp56
L7000000000000000000000011165130000L
aL7000000000000000000000011165150000L
aS'f390c5b2-8b2f-11e2-b8f4-fa163e3a40ba'
p57
aI01
aI00
aNaa(lp58
L7000000000000000000000011165150000L
aL7000000000000000000000011165170000L
aS'f390ce04-8b2f-11e2-b8f4-fa163e3a40ba'
p59
aI01
aI00
aNaa(lp60
L7000000000000000000000011165170000L
aL7000000000000000000000011165190000L
aS'f390d624-8b2f-11e2-b8f4-fa163e3a40ba'
p61
aI00
aI00
aNaa(lp62
L7000000000000000000000011165190000L
aL7000000000000000000000011165210000L
aS'f390de80-8b2f-11e2-b8f4-fa163e3a40ba'
p63
aI00
aI00
aNaa(lp64
L7000000000000000000000011165210000L
aL7000000000000000000000011165230000L
aS'f390e6dc-8b2f-11e2-b8f4-fa163e3a40ba'
p65
aI00
aI00
aNaa(lp66
L7000000000000000000000011165230000L
aL7000000000000000000000011165250000L
aS'f390ef9c-8b2f-11e2-b8f4-fa163e3a40ba'
p67
aI00
aI00
aNaa(lp68
L7000000000000000000000011165250000L
aL7000000000000000000000011165270000L
aS'f390f7ee-8b2f-11e2-b8f4-fa163e3a40ba'
p69
aI00
aI00
aNaa(lp70
L7000000000000000000000011165270000L
aL7000000000000000000000011165290000L
aS'f391005e-8b2f-11e2-b8f4-fa163e3a40ba'
p71
aI00
aI00
aNaa(lp72
L7000000000000000000000011165290000L
aL7000000000000000000000011165310000L
aS'f3910874-8b2f-11e2-b8f4-fa163e3a40ba'
p73
aI00
aI00
aNaa(lp74
L7000000000000000000000011165310000L
aL7000000000000000000000011165330000L
aS'f3911058-8b2f-11e2-b8f4-fa163e3a40ba'
p75
aI00
aI00
aNaa(lp76
L7000000000000000000000011165330000L
aL7000000000000000000000011165350000L
aS'f3911864-8b2f-11e2-b8f4-fa163e3a40ba'
p77
aI00
aI00
aNaa(lp78
L7000000000000000000000011165350000L
aL7000000000000000000000011165370000L
aS'f3912048-8b2f-11e2-b8f4-fa163e3a40ba'
p79
aI00
aI00
aNaa(lp80
L7000000000000000000000011165370000L
aL7000000000000000000000011165390000L
aS'f3912912-8b2f-11e2-b8f4-fa163e3a40ba'
p81
aI00
aI00
aNaa(lp82
L7000000000000000000000011165390000L
aL7000000000000000000000011165410000L
aS'f39131c8-8b2f-11e2-b8f4-fa163e3a40ba'
p83
aI00
aI00
aNaa(lp84
L7000000000000000000000011165410000L
aL7000000000000000000000011165430000L
aS'f3913a60-8b2f-11e2-b8f4-fa163e3a40ba'
p85
aI00
aI00
aNaa(lp86
L7000000000000000000000011165430000L
aL7000000000000000000000011165450000L
aS'f391426c-8b2f-11e2-b8f4-fa163e3a40ba'
p87
aI00
aI00
aNaa(lp88
L7000000000000000000000011165450000L
aL7000000000000000000000011165470000L
aS'f3914a46-8b2f-11e2-b8f4-fa163e3a40ba'
p89
aI00
aI00
aNaa(lp90
L7000000000000000000000011165470000L
aL7000000000000000000000011165490000L
aS'f391522a-8b2f-11e2-b8f4-fa163e3a40ba'
p91
aI00
aI00
aNaa(lp92
L7000000000000000000000011165490000L
aL7000000000000000000000011165510000L
aS'f3915a90-8b2f-11e2-b8f4-fa163e3a40ba'
p93
aI00
aI00
aNaa(lp94
L7000000000000000000000011165510000L
aL7000000000000000000000011165530000L
aS'f39163b4-8b2f-11e2-b8f4-fa163e3a40ba'
p95
aI00
aI00
aNaa(lp96
L7000000000000000000000011165530000L
aL7000000000000000000000011165550000L
aS'f3916ba2-8b2f-11e2-b8f4-fa163e3a40ba'
p97
aI00
aI00
aNaa(lp98
L7000000000000000000000011165550000L
aL7000000000000000000000011165570000L
aS'f39173b8-8b2f-11e2-b8f4-fa163e3a40ba'
p99
aI00
aI00
aNaa(lp100
L7000000000000000000000011165570000L
aL7000000000000000000000011165590000L
aS'f3917bba-8b2f-11e2-b8f4-fa163e3a40ba'
p101
aI00
aI00
aNaa(lp102
L7000000000000000000000011165590000L
aL7000000000000000000000011165610000L
aS'f3918394-8b2f-11e2-b8f4-fa163e3a40ba'
p103
aI00
aI00
aNaa(lp104
L7000000000000000000000011165610000L
aL7000000000000000000000011165630000L
aS'f3918bfa-8b2f-11e2-b8f4-fa163e3a40ba'
p105
aI00
aI00
aNaa(lp106
L7000000000000000000000011165630000L
aL7000000000000000000000011165650000L
aS'f391942e-8b2f-11e2-b8f4-fa163e3a40ba'
p107
aI00
aI00
aNaa(lp108
L7000000000000000000000011165650000L
aL7000000000000000000000011165670000L
aS'f3919c44-8b2f-11e2-b8f4-fa163e3a40ba'
p109
aI00
aI00
aNaa(lp110
L7000000000000000000000011165670000L
aL7000000000000000000000011165690000L
aS'f391a45a-8b2f-11e2-b8f4-fa163e3a40ba'
p111
aI00
aI00
aNaa(lp112
L7000000000000000000000011165690000L
aL7000000000000000000000011165710000L
aS'f391acac-8b2f-11e2-b8f4-fa163e3a40ba'
p113
aI00
aI00
aNaa(lp114
L7000000000000000000000011165710000L
aL7000000000000000000000011165730000L
aS'f391b4cc-8b2f-11e2-b8f4-fa163e3a40ba'
p115
aI00
aI00
aNaa(lp116
L7000000000000000000000011165730000L
aL7000000000000000000000011165750000L
aS'f391bcce-8b2f-11e2-b8f4-fa163e3a40ba'
p117
aI00
aI00
aNaa(lp118
L7000000000000000000000011165750000L
aL7000000000000000000000011165770000L
aS'f391c4e4-8b2f-11e2-b8f4-fa163e3a40ba'
p119
aI00
aI00
aNaa(lp120
L7000000000000000000000011165770000L
aL7000000000000000000000011165790000L
aS'f391ccbe-8b2f-11e2-b8f4-fa163e3a40ba'
p121
aI00
aI00
aNaa(lp122
L7000000000000000000000011165790000L
aL7000000000000000000000011165810000L
aS'f391d4de-8b2f-11e2-b8f4-fa163e3a40ba'
p123
aI00
aI00
aNaa(lp124
L7000000000000000000000011165810000L
aL7000000000000000000000011165830000L
aS'f391dda8-8b2f-11e2-b8f4-fa163e3a40ba'
p125
aI00
aI00
aNaa(lp126
L7000000000000000000000011165830000L
aL7000000000000000000000011165850000L
aS'f391e640-8b2f-11e2-b8f4-fa163e3a40ba'
p127
aI00
aI00
aNaa(lp128
L7000000000000000000000011165850000L
aL7000000000000000000000011165870000L
aS'f391ee4c-8b2f-11e2-b8f4-fa163e3a40ba'
p129
aI00
aI00
aNaa(lp130
L7000000000000000000000011165870000L
aL7000000000000000000000011165890000L
aS'f391f626-8b2f-11e2-b8f4-fa163e3a40ba'
p131
aI00
aI00
aNaa(lp132
L7000000000000000000000011165890000L
aL7000000000000000000000011165910000L
aS'f39200b2-8b2f-11e2-b8f4-fa163e3a40ba'
p133
aI00
aI00
aNaa(lp134
L7000000000000000000000011165910000L
aL7000000000000000000000011165930000L
aS'f39203c8-8b2f-11e2-b8f4-fa163e3a40ba'
p135
aI00
aI00
aNaa(lp136
L7000000000000000000000011165930000L
aL7000000000000000000000011165950000L
aS'f39206c0-8b2f-11e2-b8f4-fa163e3a40ba'
p137
aI00
aI00
aNaa(lp138
L7000000000000000000000011165950000L
aL7000000000000000000000011165970000L
aS'f39209ea-8b2f-11e2-b8f4-fa163e3a40ba'
p139
aI00
aI00
aNaa(lp140
L7000000000000000000000011165970000L
aL7000000000000000000000011165990000L
aS'f3920cba-8b2f-11e2-b8f4-fa163e3a40ba'
p141
aI00
aI00
aNaa(lp142
L7000000000000000000000011165990000L
aL7000000000000000000000011166010000L
aS'f3920fbc-8b2f-11e2-b8f4-fa163e3a40ba'
p143
aI00
aI00
aNaa(lp144
L7000000000000000000000011166010000L
aL7000000000000000000000011166030000L
aS'f39212aa-8b2f-11e2-b8f4-fa163e3a40ba'
p145
aI00
aI00
aNaa(lp146
L7000000000000000000000011166030000L
aL7000000000000000000000011166050000L
aS'f39215a2-8b2f-11e2-b8f4-fa163e3a40ba'
p147
aI00
aI00
aNaa(lp148
L7000000000000000000000011166050000L
aL7000000000000000000000011166070000L
aS'f3921872-8b2f-11e2-b8f4-fa163e3a40ba'
p149
aI00
aI00
aNaa(lp150
L7000000000000000000000011166070000L
aL7000000000000000000000011166090000L
aS'f3921b7e-8b2f-11e2-b8f4-fa163e3a40ba'
p151
aI00
aI00
aNaa(lp152
L7000000000000000000000011166090000L
aL7000000000000000000000011166110000L
aS'f3921e76-8b2f-11e2-b8f4-fa163e3a40ba'
p153
aI00
aI00
aNaa(lp154
L7000000000000000000000011166110000L
aL7000000000000000000000011166130000L
aS'f3922182-8b2f-11e2-b8f4-fa163e3a40ba'
p155
aI00
aI00
aNaa(lp156
L7000000000000000000000011166130000L
aL7000000000000000000000011166150000L
aS'f3922556-8b2f-11e2-b8f4-fa163e3a40ba'
p157
aI00
aI00
aNaa(lp158
L7000000000000000000000011166150000L
aL7000000000000000000000011166170000L
aS'f3922862-8b2f-11e2-b8f4-fa163e3a40ba'
p159
aI00
aI00
aNaa(lp160
L7000000000000000000000011166170000L
aL7000000000000000000000011166190000L
aS'f3922b5a-8b2f-11e2-b8f4-fa163e3a40ba'
p161
aI00
aI00
aNaa(lp162
L7000000000000000000000011166190000L
aL7000000000000000000000011166210000L
aS'f3922e48-8b2f-11e2-b8f4-fa163e3a40ba'
p163
aI00
aI00
aNaa(lp164
L7000000000000000000000011166210000L
aL7000000000000000000000011166230000L
aS'f392315e-8b2f-11e2-b8f4-fa163e3a40ba'
p165
aI00
aI00
aNaa(lp166
L7000000000000000000000011166230000L
aL7000000000000000000000011166250000L
aS'f39234c4-8b2f-11e2-b8f4-fa163e3a40ba'
p167
aI00
aI00
aNaa(lp168
L7000000000000000000000011166250000L
aL7000000000000000000000011166270000L
aS'f39237f8-8b2f-11e2-b8f4-fa163e3a40ba'
p169
aI00
aI00
aNaa(lp170
L7000000000000000000000011166270000L
aL7000000000000000000000011166290000L
aS'f3923b04-8b2f-11e2-b8f4-fa163e3a40ba'
p171
aI00
aI00
aNaa(lp172
L7000000000000000000000011166290000L
aL7000000000000000000000011166310000L
aS'f3923e06-8b2f-11e2-b8f4-fa163e3a40ba'
p173
aI00
aI00
aNaa(lp174
L7000000000000000000000011166310000L
aL7000000000000000000000011166330000L
aS'f3924112-8b2f-11e2-b8f4-fa163e3a40ba'
p175
aI00
aI00
aNaa(lp176
L7000000000000000000000011166330000L
aL7000000000000000000000011166350000L
aS'f3924414-8b2f-11e2-b8f4-fa163e3a40ba'
p177
aI00
aI00
aNaa(lp178
L7000000000000000000000011166350000L
aL7000000000000000000000011166370000L
aS'f3924716-8b2f-11e2-b8f4-fa163e3a40ba'
p179
aI00
aI00
aNaa(lp180
L7000000000000000000000011166370000L
aL7000000000000000000000011166390000L
aS'f3924a04-8b2f-11e2-b8f4-fa163e3a40ba'
p181
aI00
aI00
aNaa(lp182
L7000000000000000000000011166390000L
aL7000000000000000000000011166410000L
aS'f3924d06-8b2f-11e2-b8f4-fa163e3a40ba'
p183
aI00
aI00
aNaa(lp184
L7000000000000000000000011166410000L
aL7000000000000000000000011166430000L
aS'f392501c-8b2f-11e2-b8f4-fa163e3a40ba'
p185
aI00
aI00
aNaa(lp186
L7000000000000000000000011166430000L
aL7000000000000000000000011166450000L
aS'f3925328-8b2f-11e2-b8f4-fa163e3a40ba'
p187
aI00
aI00
aNaa(lp188
L7000000000000000000000011166450000L
aL7000000000000000000000011166470000L
aS'f3925616-8b2f-11e2-b8f4-fa163e3a40ba'
p189
aI00
aI00
aNaa(lp190
L7000000000000000000000011166470000L
aL7000000000000000000000011166490000L
aS'f3925936-8b2f-11e2-b8f4-fa163e3a40ba'
p191
aI00
aI00
aNaa(lp192
L7000000000000000000000011166490000L
aL7000000000000000000000011166510000L
aS'f3925c38-8b2f-11e2-b8f4-fa163e3a40ba'
p193
aI00
aI00
aNaa(lp194
L7000000000000000000000011166510000L
aL7000000000000000000000011166530000L
aS'f3925f4e-8b2f-11e2-b8f4-fa163e3a40ba'
p195
aI00
aI00
aNaa(lp196
L7000000000000000000000011166530000L
aL7000000000000000000000011166550000L
aS'f392625a-8b2f-11e2-b8f4-fa163e3a40ba'
p197
aI00
aI00
aNaa(lp198
L7000000000000000000000011166550000L
aL7000000000000000000000011166570000L
aS'f3926534-8b2f-11e2-b8f4-fa163e3a40ba'
p199
aI00
aI00
aNaa(lp200
L7000000000000000000000011166570000L
aL7000000000000000000000011166590000L
aS'f392685e-8b2f-11e2-b8f4-fa163e3a40ba'
p201
aI00
aI00
aNaa(lp202
L7000000000000000000000011166590000L
aL7000000000000000000000011166610000L
aS'f3926b6a-8b2f-11e2-b8f4-fa163e3a40ba'
p203
aI00
aI00
aNaa(lp204
L7000000000000000000000011166610000L
aL7000000000000000000000011166630000L
aS'f3926e76-8b2f-11e2-b8f4-fa163e3a40ba'
p205
aI00
aI00
aNaa(lp206
L7000000000000000000000011166630000L
aL7000000000000000000000011166650000L
aS'f3927178-8b2f-11e2-b8f4-fa163e3a40ba'
p207
aI00
aI00
aNaa(lp208
L7000000000000000000000011166650000L
aL7000000000000000000000011166670000L
aS'f39274b6-8b2f-11e2-b8f4-fa163e3a40ba'
p209
aI00
aI00
aNaa(lp210
L7000000000000000000000011166670000L
aL7000000000000000000000011166690000L
aS'f39277ea-8b2f-11e2-b8f4-fa163e3a40ba'
p211
aI00
aI00
aNaa(lp212
L7000000000000000000000011166690000L
aL7000000000000000000000011166710000L
aS'f3927b14-8b2f-11e2-b8f4-fa163e3a40ba'
p213
aI00
aI00
aNaa(lp214
L7000000000000000000000011166710000L
aL7000000000000000000000011166730000L
aS'f3927e16-8b2f-11e2-b8f4-fa163e3a40ba'
p215
aI00
aI00
aNaa(lp216
L7000000000000000000000011166730000L
aL7000000000000000000000011166750000L
aS'f3928118-8b2f-11e2-b8f4-fa163e3a40ba'
p217
aI00
aI01
aS'e4d67fbc-8b1b-11e2-af62-00e07dd5df94'
p218
aa.